C000 4C F5 C5 JMP $C5F5			A:00 X:00 Y:00 P:24 SP:FD CYC:7
C5F5 A2 00    LDX #$00			A:00 X:00 Y:00 P:24 SP:FD CYC:10
C5F7 86 00    STX $00			A:00 X:00 Y:00 P:26 SP:FD CYC:12
C5F9 86 10    STX $10			A:00 X:00 Y:00 P:26 SP:FD CYC:15
C5FB 86 11    STX $11			A:00 X:00 Y:00 P:26 SP:FD CYC:18
C5FD 20 2D C7 JSR $C72D			A:00 X:00 Y:00 P:26 SP:FD CYC:21
C72D EA       NOP 			A:00 X:00 Y:00 P:26 SP:FB CYC:27
C72E 38       SEC 			A:00 X:00 Y:00 P:26 SP:FB CYC:29
C72F B0 04    BCS $C735			A:00 X:00 Y:00 P:27 SP:FB CYC:31
C735 EA       NOP 			A:00 X:00 Y:00 P:27 SP:FB CYC:34
C736 18       CLC 			A:00 X:00 Y:00 P:27 SP:FB CYC:36
C737 B0 03    BCS $C73C			A:00 X:00 Y:00 P:26 SP:FB CYC:38
C739 4C 40 C7 JMP $C740			A:00 X:00 Y:00 P:26 SP:FB CYC:40
C740 EA       NOP 			A:00 X:00 Y:00 P:26 SP:FB CYC:43
C741 38       SEC 			A:00 X:00 Y:00 P:26 SP:FB CYC:45
C742 90 03    BCC $C747			A:00 X:00 Y:00 P:27 SP:FB CYC:47
C744 4C 4B C7 JMP $C74B			A:00 X:00 Y:00 P:27 SP:FB CYC:49
C74B EA       NOP 			A:00 X:00 Y:00 P:27 SP:FB CYC:52
C74C 18       CLC 			A:00 X:00 Y:00 P:27 SP:FB CYC:54
C74D 90 04    BCC $C753			A:00 X:00 Y:00 P:26 SP:FB CYC:56
C753 EA       NOP 			A:00 X:00 Y:00 P:26 SP:FB CYC:59
C754 A9 00    LDA #$00			A:00 X:00 Y:00 P:26 SP:FB CYC:61
C756 F0 04    BEQ $C75C			A:00 X:00 Y:00 P:26 SP:FB CYC:63
C75C EA       NOP 			A:00 X:00 Y:00 P:26 SP:FB CYC:66
C75D A9 40    LDA #$40			A:00 X:00 Y:00 P:26 SP:FB CYC:68
C75F F0 03    BEQ $C764			A:40 X:00 Y:00 P:24 SP:FB CYC:70
C761 4C 68 C7 JMP $C768			A:40 X:00 Y:00 P:24 SP:FB CYC:72
C768 EA       NOP 			A:40 X:00 Y:00 P:24 SP:FB CYC:75
C769 A9 40    LDA #$40			A:40 X:00 Y:00 P:24 SP:FB CYC:77
C76B D0 04    BNE $C771			A:40 X:00 Y:00 P:24 SP:FB CYC:79
C771 EA       NOP 			A:40 X:00 Y:00 P:24 SP:FB CYC:82
C772 A9 00    LDA #$00			A:40 X:00 Y:00 P:24 SP:FB CYC:84
C774 D0 03    BNE $C779			A:00 X:00 Y:00 P:26 SP:FB CYC:86
C776 4C 7D C7 JMP $C77D			A:00 X:00 Y:00 P:26 SP:FB CYC:88
C77D EA       NOP 			A:00 X:00 Y:00 P:26 SP:FB CYC:91
C77E A9 FF    LDA #$FF			A:00 X:00 Y:00 P:26 SP:FB CYC:93
C780 85 01    STA $01			A:FF X:00 Y:00 P:A4 SP:FB CYC:95
C782 24 01    BIT $01			A:FF X:00 Y:00 P:A4 SP:FB CYC:98
C784 70 04    BVS $C78A			A:FF X:00 Y:00 P:E4 SP:FB CYC:101
C78A EA       NOP 			A:FF X:00 Y:00 P:E4 SP:FB CYC:104
C78B 24 01    BIT $01			A:FF X:00 Y:00 P:E4 SP:FB CYC:106
C78D 50 03    BVC $C792			A:FF X:00 Y:00 P:E4 SP:FB CYC:109
C78F 4C 96 C7 JMP $C796			A:FF X:00 Y:00 P:E4 SP:FB CYC:111
C796 EA       NOP 			A:FF X:00 Y:00 P:E4 SP:FB CYC:114
C797 A9 00    LDA #$00			A:FF X:00 Y:00 P:E4 SP:FB CYC:116
C799 85 01    STA $01			A:00 X:00 Y:00 P:66 SP:FB CYC:118
C79B 24 01    BIT $01			A:00 X:00 Y:00 P:66 SP:FB CYC:121
C79D 50 04    BVC $C7A3			A:00 X:00 Y:00 P:26 SP:FB CYC:124
C7A3 EA       NOP 			A:00 X:00 Y:00 P:26 SP:FB CYC:127
C7A4 24 01    BIT $01			A:00 X:00 Y:00 P:26 SP:FB CYC:129
C7A6 70 03    BVS $C7AB			A:00 X:00 Y:00 P:26 SP:FB CYC:132
C7A8 4C AF C7 JMP $C7AF			A:00 X:00 Y:00 P:26 SP:FB CYC:134
C7AF EA       NOP 			A:00 X:00 Y:00 P:26 SP:FB CYC:137
C7B0 A9 00    LDA #$00			A:00 X:00 Y:00 P:26 SP:FB CYC:139
C7B2 10 04    BPL $C7B8			A:00 X:00 Y:00 P:26 SP:FB CYC:141
C7B8 EA       NOP 			A:00 X:00 Y:00 P:26 SP:FB CYC:144
C7B9 A9 80    LDA #$80			A:00 X:00 Y:00 P:26 SP:FB CYC:146
C7BB 10 03    BPL $C7C0			A:80 X:00 Y:00 P:A4 SP:FB CYC:148
C7BD 4C D9 C7 JMP $C7D9			A:80 X:00 Y:00 P:A4 SP:FB CYC:150
C7D9 EA       NOP 			A:80 X:00 Y:00 P:A4 SP:FB CYC:153
C7DA 60       RTS 			A:80 X:00 Y:00 P:A4 SP:FB CYC:155
C600 20 DB C7 JSR $C7DB			A:80 X:00 Y:00 P:A4 SP:FD CYC:161
C7DB EA       NOP 			A:80 X:00 Y:00 P:A4 SP:FB CYC:167
C7DC A9 FF    LDA #$FF			A:80 X:00 Y:00 P:A4 SP:FB CYC:169
C7DE 85 01    STA $01			A:FF X:00 Y:00 P:A4 SP:FB CYC:171
C7E0 24 01    BIT $01			A:FF X:00 Y:00 P:A4 SP:FB CYC:174
C7E2 A9 00    LDA #$00			A:FF X:00 Y:00 P:E4 SP:FB CYC:177
C7E4 38       SEC 			A:00 X:00 Y:00 P:66 SP:FB CYC:179
C7E5 78       SEI 			A:00 X:00 Y:00 P:67 SP:FB CYC:181
C7E6 F8       SED 			A:00 X:00 Y:00 P:67 SP:FB CYC:183
C7E7 08       PHP 			A:00 X:00 Y:00 P:6F SP:FB CYC:185
C7E8 68       PLA 			A:00 X:00 Y:00 P:6F SP:FA CYC:188
C7E9 29 EF    AND #$EF			A:7F X:00 Y:00 P:6D SP:FB CYC:192
C7EB C9 6F    CMP #$6F			A:6F X:00 Y:00 P:6D SP:FB CYC:194
C7ED F0 04    BEQ $C7F3			A:6F X:00 Y:00 P:6F SP:FB CYC:196
C7F3 EA       NOP 			A:6F X:00 Y:00 P:6F SP:FB CYC:199
C7F4 A9 40    LDA #$40			A:6F X:00 Y:00 P:6F SP:FB CYC:201
C7F6 85 01    STA $01			A:40 X:00 Y:00 P:6D SP:FB CYC:203
C7F8 24 01    BIT $01			A:40 X:00 Y:00 P:6D SP:FB CYC:206
C7FA D8       CLD 			A:40 X:00 Y:00 P:6D SP:FB CYC:209
C7FB A9 10    LDA #$10			A:40 X:00 Y:00 P:65 SP:FB CYC:211
C7FD 18       CLC 			A:10 X:00 Y:00 P:65 SP:FB CYC:213
C7FE 08       PHP 			A:10 X:00 Y:00 P:64 SP:FB CYC:215
C7FF 68       PLA 			A:10 X:00 Y:00 P:64 SP:FA CYC:218
C800 29 EF    AND #$EF			A:74 X:00 Y:00 P:64 SP:FB CYC:222
C802 C9 64    CMP #$64			A:64 X:00 Y:00 P:64 SP:FB CYC:224
C804 F0 04    BEQ $C80A			A:64 X:00 Y:00 P:E4 SP:FB CYC:226
C806 A2 12    LDX #$12			A:64 X:00 Y:00 P:E4 SP:FB CYC:228
C808 86 00    STX $00			A:64 X:64 Y:00 P:64 SP:FB CYC:230
C80A EA       NOP 			A:64 X:64 Y:00 P:64 SP:FB CYC:233
C80B A9 80    LDA #$80			A:64 X:64 Y:00 P:64 SP:FB CYC:235
C80D 85 01    STA $01			A:80 X:64 Y:00 P:E4 SP:FB CYC:237
C80F 24 01    BIT $01			A:80 X:64 Y:00 P:E4 SP:FB CYC:240
C811 F8       SED 			A:80 X:64 Y:00 P:A4 SP:FB CYC:243
C812 A9 00    LDA #$00			A:80 X:64 Y:00 P:AC SP:FB CYC:245
C814 38       SEC 			A:00 X:64 Y:00 P:2E SP:FB CYC:247
C815 08       PHP 			A:00 X:64 Y:00 P:2F SP:FB CYC:249
C816 68       PLA 			A:00 X:64 Y:00 P:2F SP:FA CYC:252
C817 29 EF    AND #$EF			A:3F X:64 Y:00 P:2D SP:FB CYC:256
C819 C9 2F    CMP #$2F			A:2F X:64 Y:00 P:2D SP:FB CYC:258
C81B F0 04    BEQ $C821			A:2F X:64 Y:00 P:2F SP:FB CYC:260
C821 EA       NOP 			A:2F X:64 Y:00 P:2F SP:FB CYC:263
C822 A9 FF    LDA #$FF			A:2F X:64 Y:00 P:2F SP:FB CYC:265
C824 48       PHA 			A:FF X:64 Y:00 P:AD SP:FB CYC:267
C825 28       PLP 			A:FF X:64 Y:00 P:AD SP:FA CYC:270
C826 D0 09    BNE $C831			A:FF X:64 Y:00 P:FF SP:FB CYC:274
C828 10 07    BPL $C831			A:FF X:64 Y:00 P:FF SP:FB CYC:277
C82A 50 05    BVC $C831			A:FF X:64 Y:00 P:FF SP:FB CYC:278
C82C 90 03    BCC $C831			A:FF X:64 Y:00 P:FF SP:FB CYC:281
C82E 4C 35 C8 JMP $C835			A:FF X:64 Y:00 P:FF SP:FB CYC:282
C835 EA       NOP 			A:FF X:64 Y:00 P:FF SP:FB CYC:285
C836 A9 04    LDA #$04			A:FF X:64 Y:00 P:FF SP:FB CYC:287
C838 48       PHA 			A:04 X:64 Y:00 P:7D SP:FB CYC:289
C839 28       PLP 			A:04 X:64 Y:00 P:7D SP:FA CYC:292
C83A F0 09    BEQ $C845			A:04 X:64 Y:00 P:34 SP:FB CYC:296
C83C 30 07    BMI $C845			A:04 X:64 Y:00 P:34 SP:FB CYC:299
C83E 70 05    BVS $C845			A:04 X:64 Y:00 P:34 SP:FB CYC:300
C840 B0 03    BCS $C845			A:04 X:64 Y:00 P:34 SP:FB CYC:303
C842 4C 49 C8 JMP $C849			A:04 X:64 Y:00 P:34 SP:FB CYC:304
C849 EA       NOP 			A:04 X:64 Y:00 P:34 SP:FB CYC:307
C84A F8       SED 			A:04 X:64 Y:00 P:34 SP:FB CYC:309
C84B A9 FF    LDA #$FF			A:04 X:64 Y:00 P:3C SP:FB CYC:311
C84D 85 01    STA $01			A:FF X:64 Y:00 P:BC SP:FB CYC:313
C84F 24 01    BIT $01			A:FF X:64 Y:00 P:BC SP:FB CYC:316
C851 18       CLC 			A:FF X:64 Y:00 P:FC SP:FB CYC:319
C852 A9 00    LDA #$00			A:FF X:64 Y:00 P:FC SP:FB CYC:321
C854 48       PHA 			A:00 X:64 Y:00 P:7E SP:FB CYC:323
C855 A9 FF    LDA #$FF			A:00 X:64 Y:00 P:7E SP:FA CYC:326
C857 68       PLA 			A:FF X:64 Y:00 P:FC SP:FA CYC:328
C858 D0 09    BNE $C863			A:00 X:64 Y:00 P:7E SP:FB CYC:332
C85A 30 07    BMI $C863			A:00 X:64 Y:00 P:7E SP:FB CYC:335
C85C 50 05    BVC $C863			A:00 X:64 Y:00 P:7E SP:FB CYC:336
C85E B0 03    BCS $C863			A:00 X:64 Y:00 P:7E SP:FB CYC:339
C860 4C 67 C8 JMP $C867			A:00 X:64 Y:00 P:7E SP:FB CYC:340
C867 EA       NOP 			A:00 X:64 Y:00 P:7E SP:FB CYC:343
C868 A9 00    LDA #$00			A:00 X:64 Y:00 P:7E SP:FB CYC:345
C86A 85 01    STA $01			A:00 X:64 Y:00 P:7E SP:FB CYC:347
C86C 24 01    BIT $01			A:00 X:64 Y:00 P:7E SP:FB CYC:350
C86E 38       SEC 			A:00 X:64 Y:00 P:3E SP:FB CYC:353
C86F A9 FF    LDA #$FF			A:00 X:64 Y:00 P:3F SP:FB CYC:355
C871 48       PHA 			A:FF X:64 Y:00 P:BD SP:FB CYC:357
C872 A9 00    LDA #$00			A:FF X:64 Y:00 P:BD SP:FA CYC:360
C874 68       PLA 			A:00 X:64 Y:00 P:3F SP:FA CYC:362
C875 F0 09    BEQ $C880			A:FF X:64 Y:00 P:BD SP:FB CYC:366
C877 10 07    BPL $C880			A:FF X:64 Y:00 P:BD SP:FB CYC:369
C879 70 05    BVS $C880			A:FF X:64 Y:00 P:BD SP:FB CYC:370
C87B 90 03    BCC $C880			A:FF X:64 Y:00 P:BD SP:FB CYC:373
C87D 4C 84 C8 JMP $C884			A:FF X:64 Y:00 P:BD SP:FB CYC:374
C884 60       RTS 			A:FF X:64 Y:00 P:BD SP:FB CYC:377
C603 20 85 C8 JSR $C885			A:FF X:64 Y:00 P:BD SP:FD CYC:383
C885 EA       NOP 			A:FF X:64 Y:00 P:BD SP:FB CYC:389
C886 18       CLC 			A:FF X:64 Y:00 P:BD SP:FB CYC:391
C887 A9 FF    LDA #$FF			A:FF X:64 Y:00 P:BC SP:FB CYC:393
C889 85 01    STA $01			A:FF X:64 Y:00 P:BC SP:FB CYC:395
C88B 24 01    BIT $01			A:FF X:64 Y:00 P:BC SP:FB CYC:398
C88D A9 55    LDA #$55			A:FF X:64 Y:00 P:FC SP:FB CYC:401
C88F 09 AA    ORA #$AA			A:55 X:64 Y:00 P:7C SP:FB CYC:403
C891 B0 0B    BCS $C89E			A:FF X:64 Y:00 P:FC SP:FB CYC:405
C893 10 09    BPL $C89E			A:FF X:64 Y:00 P:FC SP:FB CYC:408
C895 C9 FF    CMP #$FF			A:FF X:64 Y:00 P:FC SP:FB CYC:409
C897 D0 05    BNE $C89E			A:FF X:64 Y:00 P:FC SP:FB CYC:411
C89E A2 18    LDX #$18			A:FF X:64 Y:00 P:FC SP:FB CYC:414
C8A0 86 00    STX $00			A:FF X:18 Y:00 P:7C SP:FB CYC:416
C8A2 EA       NOP 			A:FF X:18 Y:00 P:7C SP:FB CYC:419
C8A3 38       SEC 			A:FF X:18 Y:00 P:7C SP:FB CYC:421
C8A4 B8       CLV 			A:FF X:18 Y:00 P:7D SP:FB CYC:423
C8A5 A9 00    LDA #$00			A:FF X:18 Y:00 P:3D SP:FB CYC:425
C8A7 09 00    ORA #$00			A:00 X:18 Y:00 P:3F SP:FB CYC:427
C8A9 D0 09    BNE $C8B4			A:00 X:18 Y:00 P:3F SP:FB CYC:429
C8AB 70 07    BVS $C8B4			A:00 X:18 Y:00 P:3F SP:FB CYC:432
C8AD 90 05    BCC $C8B4			A:00 X:18 Y:00 P:3F SP:FB CYC:433
C8AF 30 03    BMI $C8B4			A:00 X:18 Y:00 P:3F SP:FB CYC:436
C8B1 4C B8 C8 JMP $C8B8			A:00 X:18 Y:00 P:3F SP:FB CYC:437
C8B8 EA       NOP 			A:00 X:18 Y:00 P:3F SP:FB CYC:440
C8B9 18       CLC 			A:00 X:18 Y:00 P:3F SP:FB CYC:442
C8BA 24 01    BIT $01			A:00 X:18 Y:00 P:3E SP:FB CYC:444
C8BC A9 55    LDA #$55			A:00 X:18 Y:00 P:FE SP:FB CYC:447
C8BE 29 AA    AND #$AA			A:55 X:18 Y:00 P:7C SP:FB CYC:449
C8C0 D0 09    BNE $C8CB			A:00 X:18 Y:00 P:7E SP:FB CYC:451
C8C2 50 07    BVC $C8CB			A:00 X:18 Y:00 P:7E SP:FB CYC:454
C8C4 B0 05    BCS $C8CB			A:00 X:18 Y:00 P:7E SP:FB CYC:455
C8C6 30 03    BMI $C8CB			A:00 X:18 Y:00 P:7E SP:FB CYC:458
C8C8 4C CF C8 JMP $C8CF			A:00 X:18 Y:00 P:7E SP:FB CYC:459
C8CF EA       NOP 			A:00 X:18 Y:00 P:7E SP:FB CYC:462
C8D0 38       SEC 			A:00 X:18 Y:00 P:7E SP:FB CYC:464
C8D1 B8       CLV 			A:00 X:18 Y:00 P:7F SP:FB CYC:466
C8D2 A9 F8    LDA #$F8			A:00 X:18 Y:00 P:3F SP:FB CYC:468
C8D4 29 EF    AND #$EF			A:F8 X:18 Y:00 P:BD SP:FB CYC:470
C8D6 90 0B    BCC $C8E3			A:E8 X:18 Y:00 P:BD SP:FB CYC:472
C8D8 10 09    BPL $C8E3			A:E8 X:18 Y:00 P:BD SP:FB CYC:475
C8DA C9 E8    CMP #$E8			A:E8 X:18 Y:00 P:BD SP:FB CYC:476
C8DC D0 05    BNE $C8E3			A:E8 X:18 Y:00 P:3F SP:FB CYC:478
C8DE 70 03    BVS $C8E3			A:E8 X:18 Y:00 P:3F SP:FB CYC:481
C8E0 4C E7 C8 JMP $C8E7			A:E8 X:18 Y:00 P:3F SP:FB CYC:482
C8E7 EA       NOP 			A:E8 X:18 Y:00 P:3F SP:FB CYC:485
C8E8 18       CLC 			A:E8 X:18 Y:00 P:3F SP:FB CYC:487
C8E9 24 01    BIT $01			A:E8 X:18 Y:00 P:3E SP:FB CYC:489
C8EB A9 5F    LDA #$5F			A:E8 X:18 Y:00 P:FC SP:FB CYC:492
C8ED 49 AA    EOR #$AA			A:5F X:18 Y:00 P:7C SP:FB CYC:494
C8EF B0 0B    BCS $C8FC			A:F5 X:18 Y:00 P:FC SP:FB CYC:496
C8F1 10 09    BPL $C8FC			A:F5 X:18 Y:00 P:FC SP:FB CYC:499
C8F3 C9 F5    CMP #$F5			A:F5 X:18 Y:00 P:FC SP:FB CYC:500
C8F5 D0 05    BNE $C8FC			A:F5 X:18 Y:00 P:FC SP:FB CYC:502
C8FC A2 1C    LDX #$1C			A:F5 X:18 Y:00 P:FC SP:FB CYC:505
C8FE 86 00    STX $00			A:F5 X:1C Y:00 P:7C SP:FB CYC:507
C900 EA       NOP 			A:F5 X:1C Y:00 P:7C SP:FB CYC:510
C901 38       SEC 			A:F5 X:1C Y:00 P:7C SP:FB CYC:512
C902 B8       CLV 			A:F5 X:1C Y:00 P:7D SP:FB CYC:514
C903 A9 70    LDA #$70			A:F5 X:1C Y:00 P:3D SP:FB CYC:516
C905 49 70    EOR #$70			A:70 X:1C Y:00 P:3D SP:FB CYC:518
C907 D0 09    BNE $C912			A:00 X:1C Y:00 P:3F SP:FB CYC:520
C909 70 07    BVS $C912			A:00 X:1C Y:00 P:3F SP:FB CYC:523
C90B 90 05    BCC $C912			A:00 X:1C Y:00 P:3F SP:FB CYC:524
C90D 30 03    BMI $C912			A:00 X:1C Y:00 P:3F SP:FB CYC:527
C90F 4C 16 C9 JMP $C916			A:00 X:1C Y:00 P:3F SP:FB CYC:528
C916 EA       NOP 			A:00 X:1C Y:00 P:3F SP:FB CYC:531
C917 18       CLC 			A:00 X:1C Y:00 P:3F SP:FB CYC:533
C918 24 01    BIT $01			A:00 X:1C Y:00 P:3E SP:FB CYC:535
C91A A9 00    LDA #$00			A:00 X:1C Y:00 P:FE SP:FB CYC:538
C91C 69 69    ADC #$69			A:00 X:1C Y:00 P:7E SP:FB CYC:540
C91E 30 0B    BMI $C92B			A:69 X:1C Y:00 P:3C SP:FB CYC:542
C920 B0 09    BCS $C92B			A:69 X:1C Y:00 P:3C SP:FB CYC:545
C922 C9 69    CMP #$69			A:69 X:1C Y:00 P:3C SP:FB CYC:546
C924 D0 05    BNE $C92B			A:69 X:1C Y:00 P:BC SP:FB CYC:548
C92B A2 1E    LDX #$1E			A:69 X:1C Y:00 P:BC SP:FB CYC:551
C92D 86 00    STX $00			A:69 X:1E Y:00 P:3C SP:FB CYC:553
C92F EA       NOP 			A:69 X:1E Y:00 P:3C SP:FB CYC:556
C930 38       SEC 			A:69 X:1E Y:00 P:3C SP:FB CYC:558
C931 F8       SED 			A:69 X:1E Y:00 P:3D SP:FB CYC:560
C932 24 01    BIT $01			A:69 X:1E Y:00 P:3D SP:FB CYC:562
C934 A9 01    LDA #$01			A:69 X:1E Y:00 P:FD SP:FB CYC:565
C936 69 69    ADC #$69			A:01 X:1E Y:00 P:7D SP:FB CYC:567
C938 30 0B    BMI $C945			A:6B X:1E Y:00 P:3C SP:FB CYC:569
C93A B0 09    BCS $C945			A:6B X:1E Y:00 P:3C SP:FB CYC:572
C93C C9 6B    CMP #$6B			A:6B X:1E Y:00 P:3C SP:FB CYC:573
C93E D0 05    BNE $C945			A:6B X:1E Y:00 P:BC SP:FB CYC:575
C945 A2 1F    LDX #$1F			A:6B X:1E Y:00 P:BC SP:FB CYC:578
C947 86 00    STX $00			A:6B X:1F Y:00 P:3C SP:FB CYC:580
C949 EA       NOP 			A:6B X:1F Y:00 P:3C SP:FB CYC:583
C94A D8       CLD 			A:6B X:1F Y:00 P:3C SP:FB CYC:585
C94B 38       SEC 			A:6B X:1F Y:00 P:34 SP:FB CYC:587
C94C B8       CLV 			A:6B X:1F Y:00 P:35 SP:FB CYC:589
C94D A9 7F    LDA #$7F			A:6B X:1F Y:00 P:35 SP:FB CYC:591
C94F 69 7F    ADC #$7F			A:7F X:1F Y:00 P:35 SP:FB CYC:593
C951 10 0B    BPL $C95E			A:FF X:1F Y:00 P:F4 SP:FB CYC:595
C953 B0 09    BCS $C95E			A:FF X:1F Y:00 P:F4 SP:FB CYC:598
C955 C9 FF    CMP #$FF			A:FF X:1F Y:00 P:F4 SP:FB CYC:599
C957 D0 05    BNE $C95E			A:FF X:1F Y:00 P:F4 SP:FB CYC:601
C95E A2 20    LDX #$20			A:FF X:1F Y:00 P:F4 SP:FB CYC:604
C960 86 00    STX $00			A:FF X:20 Y:00 P:74 SP:FB CYC:606
C962 EA       NOP 			A:FF X:20 Y:00 P:74 SP:FB CYC:609
C963 18       CLC 			A:FF X:20 Y:00 P:74 SP:FB CYC:611
C964 24 01    BIT $01			A:FF X:20 Y:00 P:74 SP:FB CYC:613
C966 A9 7F    LDA #$7F			A:FF X:20 Y:00 P:F4 SP:FB CYC:616
C968 69 80    ADC #$80			A:7F X:20 Y:00 P:74 SP:FB CYC:618
C96A 10 0B    BPL $C977			A:FF X:20 Y:00 P:B4 SP:FB CYC:620
C96C B0 09    BCS $C977			A:FF X:20 Y:00 P:B4 SP:FB CYC:623
C96E C9 FF    CMP #$FF			A:FF X:20 Y:00 P:B4 SP:FB CYC:624
C970 D0 05    BNE $C977			A:FF X:20 Y:00 P:B4 SP:FB CYC:626
C977 A2 21    LDX #$21			A:FF X:20 Y:00 P:B4 SP:FB CYC:629
C979 86 00    STX $00			A:FF X:21 Y:00 P:34 SP:FB CYC:631
C97B EA       NOP 			A:FF X:21 Y:00 P:34 SP:FB CYC:634
C97C 38       SEC 			A:FF X:21 Y:00 P:34 SP:FB CYC:636
C97D B8       CLV 			A:FF X:21 Y:00 P:35 SP:FB CYC:638
C97E A9 7F    LDA #$7F			A:FF X:21 Y:00 P:35 SP:FB CYC:640
C980 69 80    ADC #$80			A:7F X:21 Y:00 P:35 SP:FB CYC:642
C982 D0 09    BNE $C98D			A:00 X:21 Y:00 P:37 SP:FB CYC:644
C984 30 07    BMI $C98D			A:00 X:21 Y:00 P:37 SP:FB CYC:647
C986 70 05    BVS $C98D			A:00 X:21 Y:00 P:37 SP:FB CYC:648
C988 90 03    BCC $C98D			A:00 X:21 Y:00 P:37 SP:FB CYC:651
C98A 4C 91 C9 JMP $C991			A:00 X:21 Y:00 P:37 SP:FB CYC:652
C991 EA       NOP 			A:00 X:21 Y:00 P:37 SP:FB CYC:655
C992 38       SEC 			A:00 X:21 Y:00 P:37 SP:FB CYC:657
C993 B8       CLV 			A:00 X:21 Y:00 P:37 SP:FB CYC:659
C994 A9 9F    LDA #$9F			A:00 X:21 Y:00 P:37 SP:FB CYC:661
C996 F0 09    BEQ $C9A1			A:9F X:21 Y:00 P:B5 SP:FB CYC:663
C998 10 07    BPL $C9A1			A:9F X:21 Y:00 P:B5 SP:FB CYC:666
C99A 70 05    BVS $C9A1			A:9F X:21 Y:00 P:B5 SP:FB CYC:667
C99C 90 03    BCC $C9A1			A:9F X:21 Y:00 P:B5 SP:FB CYC:670
C99E 4C A5 C9 JMP $C9A5			A:9F X:21 Y:00 P:B5 SP:FB CYC:671
C9A5 EA       NOP 			A:9F X:21 Y:00 P:B5 SP:FB CYC:674
C9A6 18       CLC 			A:9F X:21 Y:00 P:B5 SP:FB CYC:676
C9A7 24 01    BIT $01			A:9F X:21 Y:00 P:B4 SP:FB CYC:678
C9A9 A9 00    LDA #$00			A:9F X:21 Y:00 P:F4 SP:FB CYC:681
C9AB D0 09    BNE $C9B6			A:00 X:21 Y:00 P:76 SP:FB CYC:683
C9AD 30 07    BMI $C9B6			A:00 X:21 Y:00 P:76 SP:FB CYC:686
C9AF 50 05    BVC $C9B6			A:00 X:21 Y:00 P:76 SP:FB CYC:687
C9B1 B0 03    BCS $C9B6			A:00 X:21 Y:00 P:76 SP:FB CYC:690
C9B3 4C BA C9 JMP $C9BA			A:00 X:21 Y:00 P:76 SP:FB CYC:691
C9BA EA       NOP 			A:00 X:21 Y:00 P:76 SP:FB CYC:694
C9BB 24 01    BIT $01			A:00 X:21 Y:00 P:76 SP:FB CYC:696
C9BD A9 40    LDA #$40			A:00 X:21 Y:00 P:F6 SP:FB CYC:699
C9BF C9 40    CMP #$40			A:40 X:21 Y:00 P:74 SP:FB CYC:701
C9C1 30 09    BMI $C9CC			A:40 X:21 Y:00 P:F4 SP:FB CYC:703
C9CC A2 24    LDX #$24			A:40 X:21 Y:00 P:F4 SP:FB CYC:706
C9CE 86 00    STX $00			A:40 X:24 Y:00 P:74 SP:FB CYC:708
C9D0 EA       NOP 			A:40 X:24 Y:00 P:74 SP:FB CYC:711
C9D1 B8       CLV 			A:40 X:24 Y:00 P:74 SP:FB CYC:713
C9D2 C9 3F    CMP #$3F			A:40 X:24 Y:00 P:34 SP:FB CYC:715
C9D4 F0 09    BEQ $C9DF			A:40 X:24 Y:00 P:37 SP:FB CYC:717
C9DF A2 25    LDX #$25			A:40 X:24 Y:00 P:37 SP:FB CYC:720
C9E1 86 00    STX $00			A:40 X:25 Y:00 P:35 SP:FB CYC:722
C9E3 EA       NOP 			A:40 X:25 Y:00 P:35 SP:FB CYC:725
C9E4 C9 41    CMP #$41			A:40 X:25 Y:00 P:35 SP:FB CYC:727
C9E6 F0 07    BEQ $C9EF			A:40 X:25 Y:00 P:B4 SP:FB CYC:729
C9E8 10 05    BPL $C9EF			A:40 X:25 Y:00 P:B4 SP:FB CYC:732
C9EA 10 03    BPL $C9EF			A:40 X:25 Y:00 P:B4 SP:FB CYC:733
C9EC 4C F3 C9 JMP $C9F3			A:40 X:25 Y:00 P:B4 SP:FB CYC:735
C9F3 EA       NOP 			A:40 X:25 Y:00 P:B4 SP:FB CYC:738
C9F4 A9 80    LDA #$80			A:40 X:25 Y:00 P:B4 SP:FB CYC:740
C9F6 C9 00    CMP #$00			A:80 X:25 Y:00 P:B4 SP:FB CYC:742
C9F8 F0 07    BEQ $CA01			A:80 X:25 Y:00 P:35 SP:FB CYC:744
C9FA 10 05    BPL $CA01			A:80 X:25 Y:00 P:35 SP:FB CYC:746
C903 A9 70    LDA #$70			A:80 X:25 Y:00 P:35 SP:FB CYC:749
C905 49 70    EOR #$70			A:70 X:25 Y:00 P:35 SP:FB CYC:751
C907 D0 09    BNE $C912			A:00 X:25 Y:00 P:37 SP:FB CYC:753
C909 70 07    BVS $C912			A:00 X:25 Y:00 P:37 SP:FB CYC:756
C90B 90 05    BCC $C912			A:00 X:25 Y:00 P:37 SP:FB CYC:757
C90D 30 03    BMI $C912			A:00 X:25 Y:00 P:37 SP:FB CYC:760
C90F 4C 16 C9 JMP $C916			A:00 X:25 Y:00 P:37 SP:FB CYC:761
C916 EA       NOP 			A:00 X:25 Y:00 P:37 SP:FB CYC:764
C917 18       CLC 			A:00 X:25 Y:00 P:37 SP:FB CYC:766
C918 24 01    BIT $01			A:00 X:25 Y:00 P:36 SP:FB CYC:768
C91A A9 00    LDA #$00			A:00 X:25 Y:00 P:F6 SP:FB CYC:771
C91C 69 69    ADC #$69			A:00 X:25 Y:00 P:76 SP:FB CYC:773
C91E 30 0B    BMI $C92B			A:69 X:25 Y:00 P:34 SP:FB CYC:775
C920 B0 09    BCS $C92B			A:69 X:25 Y:00 P:34 SP:FB CYC:778
C922 C9 69    CMP #$69			A:69 X:25 Y:00 P:34 SP:FB CYC:779
C924 D0 05    BNE $C92B			A:69 X:25 Y:00 P:B4 SP:FB CYC:781
C92B A2 1E    LDX #$1E			A:69 X:25 Y:00 P:B4 SP:FB CYC:784
C92D 86 00    STX $00			A:69 X:1E Y:00 P:34 SP:FB CYC:786
C92F EA       NOP 			A:69 X:1E Y:00 P:34 SP:FB CYC:789
C930 38       SEC 			A:69 X:1E Y:00 P:34 SP:FB CYC:791
C931 F8       SED 			A:69 X:1E Y:00 P:35 SP:FB CYC:793
C932 24 01    BIT $01			A:69 X:1E Y:00 P:3D SP:FB CYC:795
C934 A9 01    LDA #$01			A:69 X:1E Y:00 P:FD SP:FB CYC:798
C936 69 69    ADC #$69			A:01 X:1E Y:00 P:7D SP:FB CYC:800
C938 30 0B    BMI $C945			A:6B X:1E Y:00 P:3C SP:FB CYC:802
C93A B0 09    BCS $C945			A:6B X:1E Y:00 P:3C SP:FB CYC:805
C93C C9 6B    CMP #$6B			A:6B X:1E Y:00 P:3C SP:FB CYC:806
C93E D0 05    BNE $C945			A:6B X:1E Y:00 P:BC SP:FB CYC:808
C945 A2 1F    LDX #$1F			A:6B X:1E Y:00 P:BC SP:FB CYC:811
C947 86 00    STX $00			A:6B X:1F Y:00 P:3C SP:FB CYC:813
C949 EA       NOP 			A:6B X:1F Y:00 P:3C SP:FB CYC:816
C94A D8       CLD 			A:6B X:1F Y:00 P:3C SP:FB CYC:818
C94B 38       SEC 			A:6B X:1F Y:00 P:34 SP:FB CYC:820
C94C B8       CLV 			A:6B X:1F Y:00 P:35 SP:FB CYC:822
C94D A9 7F    LDA #$7F			A:6B X:1F Y:00 P:35 SP:FB CYC:824
C94F 69 7F    ADC #$7F			A:7F X:1F Y:00 P:35 SP:FB CYC:826
C951 10 0B    BPL $C95E			A:FF X:1F Y:00 P:F4 SP:FB CYC:828
C953 B0 09    BCS $C95E			A:FF X:1F Y:00 P:F4 SP:FB CYC:831
C955 C9 FF    CMP #$FF			A:FF X:1F Y:00 P:F4 SP:FB CYC:832
C957 D0 05    BNE $C95E			A:FF X:1F Y:00 P:F4 SP:FB CYC:834
C95E A2 20    LDX #$20			A:FF X:1F Y:00 P:F4 SP:FB CYC:837
C960 86 00    STX $00			A:FF X:20 Y:00 P:74 SP:FB CYC:839
C962 EA       NOP 			A:FF X:20 Y:00 P:74 SP:FB CYC:842
C963 18       CLC 			A:FF X:20 Y:00 P:74 SP:FB CYC:844
C964 24 01    BIT $01			A:FF X:20 Y:00 P:74 SP:FB CYC:846
C966 A9 7F    LDA #$7F			A:FF X:20 Y:00 P:F4 SP:FB CYC:849
C968 69 80    ADC #$80			A:7F X:20 Y:00 P:74 SP:FB CYC:851
C96A 10 0B    BPL $C977			A:FF X:20 Y:00 P:B4 SP:FB CYC:853
C96C B0 09    BCS $C977			A:FF X:20 Y:00 P:B4 SP:FB CYC:856
C96E C9 FF    CMP #$FF			A:FF X:20 Y:00 P:B4 SP:FB CYC:857
C970 D0 05    BNE $C977			A:FF X:20 Y:00 P:B4 SP:FB CYC:859
C977 A2 21    LDX #$21			A:FF X:20 Y:00 P:B4 SP:FB CYC:862
C979 86 00    STX $00			A:FF X:21 Y:00 P:34 SP:FB CYC:864
C97B EA       NOP 			A:FF X:21 Y:00 P:34 SP:FB CYC:867
C97C 38       SEC 			A:FF X:21 Y:00 P:34 SP:FB CYC:869
C97D B8       CLV 			A:FF X:21 Y:00 P:35 SP:FB CYC:871
C97E A9 7F    LDA #$7F			A:FF X:21 Y:00 P:35 SP:FB CYC:873
C980 69 80    ADC #$80			A:7F X:21 Y:00 P:35 SP:FB CYC:875
C982 D0 09    BNE $C98D			A:00 X:21 Y:00 P:37 SP:FB CYC:877
C984 30 07    BMI $C98D			A:00 X:21 Y:00 P:37 SP:FB CYC:880
C986 70 05    BVS $C98D			A:00 X:21 Y:00 P:37 SP:FB CYC:881
C988 90 03    BCC $C98D			A:00 X:21 Y:00 P:37 SP:FB CYC:884
C98A 4C 91 C9 JMP $C991			A:00 X:21 Y:00 P:37 SP:FB CYC:885
C991 EA       NOP 			A:00 X:21 Y:00 P:37 SP:FB CYC:888
C992 38       SEC 			A:00 X:21 Y:00 P:37 SP:FB CYC:890
C993 B8       CLV 			A:00 X:21 Y:00 P:37 SP:FB CYC:892
C994 A9 9F    LDA #$9F			A:00 X:21 Y:00 P:37 SP:FB CYC:894
C996 F0 09    BEQ $C9A1			A:9F X:21 Y:00 P:B5 SP:FB CYC:896
C998 10 07    BPL $C9A1			A:9F X:21 Y:00 P:B5 SP:FB CYC:899
C99A 70 05    BVS $C9A1			A:9F X:21 Y:00 P:B5 SP:FB CYC:900
C99C 90 03    BCC $C9A1			A:9F X:21 Y:00 P:B5 SP:FB CYC:903
C99E 4C A5 C9 JMP $C9A5			A:9F X:21 Y:00 P:B5 SP:FB CYC:904
C9A5 EA       NOP 			A:9F X:21 Y:00 P:B5 SP:FB CYC:907
C9A6 18       CLC 			A:9F X:21 Y:00 P:B5 SP:FB CYC:909
C9A7 24 01    BIT $01			A:9F X:21 Y:00 P:B4 SP:FB CYC:911
C9A9 A9 00    LDA #$00			A:9F X:21 Y:00 P:F4 SP:FB CYC:914
C9AB D0 09    BNE $C9B6			A:00 X:21 Y:00 P:76 SP:FB CYC:916
C9AD 30 07    BMI $C9B6			A:00 X:21 Y:00 P:76 SP:FB CYC:919
C9AF 50 05    BVC $C9B6			A:00 X:21 Y:00 P:76 SP:FB CYC:920
C9B1 B0 03    BCS $C9B6			A:00 X:21 Y:00 P:76 SP:FB CYC:923
C9B3 4C BA C9 JMP $C9BA			A:00 X:21 Y:00 P:76 SP:FB CYC:924
C9BA EA       NOP 			A:00 X:21 Y:00 P:76 SP:FB CYC:927
C9BB 24 01    BIT $01			A:00 X:21 Y:00 P:76 SP:FB CYC:929
C9BD A9 40    LDA #$40			A:00 X:21 Y:00 P:F6 SP:FB CYC:932
C9BF C9 40    CMP #$40			A:40 X:21 Y:00 P:74 SP:FB CYC:934
C9C1 30 09    BMI $C9CC			A:40 X:21 Y:00 P:F4 SP:FB CYC:936
C9CC A2 24    LDX #$24			A:40 X:21 Y:00 P:F4 SP:FB CYC:939
C9CE 86 00    STX $00			A:40 X:24 Y:00 P:74 SP:FB CYC:941
C9D0 EA       NOP 			A:40 X:24 Y:00 P:74 SP:FB CYC:944
C9D1 B8       CLV 			A:40 X:24 Y:00 P:74 SP:FB CYC:946
C9D2 C9 3F    CMP #$3F			A:40 X:24 Y:00 P:34 SP:FB CYC:948
C9D4 F0 09    BEQ $C9DF			A:40 X:24 Y:00 P:37 SP:FB CYC:950
C9DF A2 25    LDX #$25			A:40 X:24 Y:00 P:37 SP:FB CYC:953
C9E1 86 00    STX $00			A:40 X:25 Y:00 P:35 SP:FB CYC:955
C9E3 EA       NOP 			A:40 X:25 Y:00 P:35 SP:FB CYC:958
C9E4 C9 41    CMP #$41			A:40 X:25 Y:00 P:35 SP:FB CYC:960
C9E6 F0 07    BEQ $C9EF			A:40 X:25 Y:00 P:B4 SP:FB CYC:962
C9E8 10 05    BPL $C9EF			A:40 X:25 Y:00 P:B4 SP:FB CYC:965
C9EA 10 03    BPL $C9EF			A:40 X:25 Y:00 P:B4 SP:FB CYC:966
C9EC 4C F3 C9 JMP $C9F3			A:40 X:25 Y:00 P:B4 SP:FB CYC:968
C9F3 EA       NOP 			A:40 X:25 Y:00 P:B4 SP:FB CYC:971
C9F4 A9 80    LDA #$80			A:40 X:25 Y:00 P:B4 SP:FB CYC:973
C9F6 C9 00    CMP #$00			A:80 X:25 Y:00 P:B4 SP:FB CYC:975
C9F8 F0 07    BEQ $CA01			A:80 X:25 Y:00 P:35 SP:FB CYC:977
C9FA 10 05    BPL $CA01			A:80 X:25 Y:00 P:35 SP:FB CYC:979
C903 A9 70    LDA #$70			A:80 X:25 Y:00 P:35 SP:FB CYC:982
C905 49 70    EOR #$70			A:70 X:25 Y:00 P:35 SP:FB CYC:984
C907 D0 09    BNE $C912			A:00 X:25 Y:00 P:37 SP:FB CYC:986
C909 70 07    BVS $C912			A:00 X:25 Y:00 P:37 SP:FB CYC:989
C90B 90 05    BCC $C912			A:00 X:25 Y:00 P:37 SP:FB CYC:990
C90D 30 03    BMI $C912			A:00 X:25 Y:00 P:37 SP:FB CYC:993
C90F 4C 16 C9 JMP $C916			A:00 X:25 Y:00 P:37 SP:FB CYC:994
C916 EA       NOP 			A:00 X:25 Y:00 P:37 SP:FB CYC:997
C917 18       CLC 			A:00 X:25 Y:00 P:37 SP:FB CYC:999
C918 24 01    BIT $01			A:00 X:25 Y:00 P:36 SP:FB CYC:1001
C91A A9 00    LDA #$00			A:00 X:25 Y:00 P:F6 SP:FB CYC:1004
C91C 69 69    ADC #$69			A:00 X:25 Y:00 P:76 SP:FB CYC:1006
C91E 30 0B    BMI $C92B			A:69 X:25 Y:00 P:34 SP:FB CYC:1008
C920 B0 09    BCS $C92B			A:69 X:25 Y:00 P:34 SP:FB CYC:1011
C922 C9 69    CMP #$69			A:69 X:25 Y:00 P:34 SP:FB CYC:1012
C924 D0 05    BNE $C92B			A:69 X:25 Y:00 P:B4 SP:FB CYC:1014
C92B A2 1E    LDX #$1E			A:69 X:25 Y:00 P:B4 SP:FB CYC:1017
C92D 86 00    STX $00			A:69 X:1E Y:00 P:34 SP:FB CYC:1019
C92F EA       NOP 			A:69 X:1E Y:00 P:34 SP:FB CYC:1022
C930 38       SEC 			A:69 X:1E Y:00 P:34 SP:FB CYC:1024
C931 F8       SED 			A:69 X:1E Y:00 P:35 SP:FB CYC:1026
C932 24 01    BIT $01			A:69 X:1E Y:00 P:3D SP:FB CYC:1028
C934 A9 01    LDA #$01			A:69 X:1E Y:00 P:FD SP:FB CYC:1031
C936 69 69    ADC #$69			A:01 X:1E Y:00 P:7D SP:FB CYC:1033
C938 30 0B    BMI $C945			A:6B X:1E Y:00 P:3C SP:FB CYC:1035
C93A B0 09    BCS $C945			A:6B X:1E Y:00 P:3C SP:FB CYC:1038
C93C C9 6B    CMP #$6B			A:6B X:1E Y:00 P:3C SP:FB CYC:1039
C93E D0 05    BNE $C945			A:6B X:1E Y:00 P:BC SP:FB CYC:1041
C945 A2 1F    LDX #$1F			A:6B X:1E Y:00 P:BC SP:FB CYC:1044
C947 86 00    STX $00			A:6B X:1F Y:00 P:3C SP:FB CYC:1046
C949 EA       NOP 			A:6B X:1F Y:00 P:3C SP:FB CYC:1049
C94A D8       CLD 			A:6B X:1F Y:00 P:3C SP:FB CYC:1051
C94B 38       SEC 			A:6B X:1F Y:00 P:34 SP:FB CYC:1053
C94C B8       CLV 			A:6B X:1F Y:00 P:35 SP:FB CYC:1055
C94D A9 7F    LDA #$7F			A:6B X:1F Y:00 P:35 SP:FB CYC:1057
C94F 69 7F    ADC #$7F			A:7F X:1F Y:00 P:35 SP:FB CYC:1059
C951 10 0B    BPL $C95E			A:FF X:1F Y:00 P:F4 SP:FB CYC:1061
C953 B0 09    BCS $C95E			A:FF X:1F Y:00 P:F4 SP:FB CYC:1064
C955 C9 FF    CMP #$FF			A:FF X:1F Y:00 P:F4 SP:FB CYC:1065
C957 D0 05    BNE $C95E			A:FF X:1F Y:00 P:F4 SP:FB CYC:1067
C95E A2 20    LDX #$20			A:FF X:1F Y:00 P:F4 SP:FB CYC:1070
C960 86 00    STX $00			A:FF X:20 Y:00 P:74 SP:FB CYC:1072
C962 EA       NOP 			A:FF X:20 Y:00 P:74 SP:FB CYC:1075
C963 18       CLC 			A:FF X:20 Y:00 P:74 SP:FB CYC:1077
C964 24 01    BIT $01			A:FF X:20 Y:00 P:74 SP:FB CYC:1079
C966 A9 7F    LDA #$7F			A:FF X:20 Y:00 P:F4 SP:FB CYC:1082
C968 69 80    ADC #$80			A:7F X:20 Y:00 P:74 SP:FB CYC:1084
C96A 10 0B    BPL $C977			A:FF X:20 Y:00 P:B4 SP:FB CYC:1086
C96C B0 09    BCS $C977			A:FF X:20 Y:00 P:B4 SP:FB CYC:1089
C96E C9 FF    CMP #$FF			A:FF X:20 Y:00 P:B4 SP:FB CYC:1090
C970 D0 05    BNE $C977			A:FF X:20 Y:00 P:B4 SP:FB CYC:1092
C977 A2 21    LDX #$21			A:FF X:20 Y:00 P:B4 SP:FB CYC:1095
C979 86 00    STX $00			A:FF X:21 Y:00 P:34 SP:FB CYC:1097
C97B EA       NOP 			A:FF X:21 Y:00 P:34 SP:FB CYC:1100
C97C 38       SEC 			A:FF X:21 Y:00 P:34 SP:FB CYC:1102
C97D B8       CLV 			A:FF X:21 Y:00 P:35 SP:FB CYC:1104
C97E A9 7F    LDA #$7F			A:FF X:21 Y:00 P:35 SP:FB CYC:1106
C980 69 80    ADC #$80			A:7F X:21 Y:00 P:35 SP:FB CYC:1108
C982 D0 09    BNE $C98D			A:00 X:21 Y:00 P:37 SP:FB CYC:1110
C984 30 07    BMI $C98D			A:00 X:21 Y:00 P:37 SP:FB CYC:1113
C986 70 05    BVS $C98D			A:00 X:21 Y:00 P:37 SP:FB CYC:1114
C988 90 03    BCC $C98D			A:00 X:21 Y:00 P:37 SP:FB CYC:1117
C98A 4C 91 C9 JMP $C991			A:00 X:21 Y:00 P:37 SP:FB CYC:1118
C991 EA       NOP 			A:00 X:21 Y:00 P:37 SP:FB CYC:1121
C992 38       SEC 			A:00 X:21 Y:00 P:37 SP:FB CYC:1123
C993 B8       CLV 			A:00 X:21 Y:00 P:37 SP:FB CYC:1125
C994 A9 9F    LDA #$9F			A:00 X:21 Y:00 P:37 SP:FB CYC:1127
C996 F0 09    BEQ $C9A1			A:9F X:21 Y:00 P:B5 SP:FB CYC:1129
C998 10 07    BPL $C9A1			A:9F X:21 Y:00 P:B5 SP:FB CYC:1132
C99A 70 05    BVS $C9A1			A:9F X:21 Y:00 P:B5 SP:FB CYC:1133
C99C 90 03    BCC $C9A1			A:9F X:21 Y:00 P:B5 SP:FB CYC:1136
C99E 4C A5 C9 JMP $C9A5			A:9F X:21 Y:00 P:B5 SP:FB CYC:1137
C9A5 EA       NOP 			A:9F X:21 Y:00 P:B5 SP:FB CYC:1140
C9A6 18       CLC 			A:9F X:21 Y:00 P:B5 SP:FB CYC:1142
C9A7 24 01    BIT $01			A:9F X:21 Y:00 P:B4 SP:FB CYC:1144
C9A9 A9 00    LDA #$00			A:9F X:21 Y:00 P:F4 SP:FB CYC:1147
C9AB D0 09    BNE $C9B6			A:00 X:21 Y:00 P:76 SP:FB CYC:1149
C9AD 30 07    BMI $C9B6			A:00 X:21 Y:00 P:76 SP:FB CYC:1152
C9AF 50 05    BVC $C9B6			A:00 X:21 Y:00 P:76 SP:FB CYC:1153
C9B1 B0 03    BCS $C9B6			A:00 X:21 Y:00 P:76 SP:FB CYC:1156
C9B3 4C BA C9 JMP $C9BA			A:00 X:21 Y:00 P:76 SP:FB CYC:1157
C9BA EA       NOP 			A:00 X:21 Y:00 P:76 SP:FB CYC:1160
C9BB 24 01    BIT $01			A:00 X:21 Y:00 P:76 SP:FB CYC:1162
C9BD A9 40    LDA #$40			A:00 X:21 Y:00 P:F6 SP:FB CYC:1165
C9BF C9 40    CMP #$40			A:40 X:21 Y:00 P:74 SP:FB CYC:1167
C9C1 30 09    BMI $C9CC			A:40 X:21 Y:00 P:F4 SP:FB CYC:1169
C9CC A2 24    LDX #$24			A:40 X:21 Y:00 P:F4 SP:FB CYC:1172
C9CE 86 00    STX $00			A:40 X:24 Y:00 P:74 SP:FB CYC:1174
C9D0 EA       NOP 			A:40 X:24 Y:00 P:74 SP:FB CYC:1177
C9D1 B8       CLV 			A:40 X:24 Y:00 P:74 SP:FB CYC:1179
C9D2 C9 3F    CMP #$3F			A:40 X:24 Y:00 P:34 SP:FB CYC:1181
C9D4 F0 09    BEQ $C9DF			A:40 X:24 Y:00 P:37 SP:FB CYC:1183
C9DF A2 25    LDX #$25			A:40 X:24 Y:00 P:37 SP:FB CYC:1186
C9E1 86 00    STX $00			A:40 X:25 Y:00 P:35 SP:FB CYC:1188
C9E3 EA       NOP 			A:40 X:25 Y:00 P:35 SP:FB CYC:1191
C9E4 C9 41    CMP #$41			A:40 X:25 Y:00 P:35 SP:FB CYC:1193
C9E6 F0 07    BEQ $C9EF			A:40 X:25 Y:00 P:B4 SP:FB CYC:1195
C9E8 10 05    BPL $C9EF			A:40 X:25 Y:00 P:B4 SP:FB CYC:1198
C9EA 10 03    BPL $C9EF			A:40 X:25 Y:00 P:B4 SP:FB CYC:1199
C9EC 4C F3 C9 JMP $C9F3			A:40 X:25 Y:00 P:B4 SP:FB CYC:1201
C9F3 EA       NOP 			A:40 X:25 Y:00 P:B4 SP:FB CYC:1204
C9F4 A9 80    LDA #$80			A:40 X:25 Y:00 P:B4 SP:FB CYC:1206
C9F6 C9 00    CMP #$00			A:80 X:25 Y:00 P:B4 SP:FB CYC:1208
C9F8 F0 07    BEQ $CA01			A:80 X:25 Y:00 P:35 SP:FB CYC:1210
C9FA 10 05    BPL $CA01			A:80 X:25 Y:00 P:35 SP:FB CYC:1212
C903 A9 70    LDA #$70			A:80 X:25 Y:00 P:35 SP:FB CYC:1215
C905 49 70    EOR #$70			A:70 X:25 Y:00 P:35 SP:FB CYC:1217
C907 D0 09    BNE $C912			A:00 X:25 Y:00 P:37 SP:FB CYC:1219
C909 70 07    BVS $C912			A:00 X:25 Y:00 P:37 SP:FB CYC:1222
C90B 90 05    BCC $C912			A:00 X:25 Y:00 P:37 SP:FB CYC:1223
C90D 30 03    BMI $C912			A:00 X:25 Y:00 P:37 SP:FB CYC:1226
C90F 4C 16 C9 JMP $C916			A:00 X:25 Y:00 P:37 SP:FB CYC:1227
C916 EA       NOP 			A:00 X:25 Y:00 P:37 SP:FB CYC:1230
C917 18       CLC 			A:00 X:25 Y:00 P:37 SP:FB CYC:1232
C918 24 01    BIT $01			A:00 X:25 Y:00 P:36 SP:FB CYC:1234
C91A A9 00    LDA #$00			A:00 X:25 Y:00 P:F6 SP:FB CYC:1237
C91C 69 69    ADC #$69			A:00 X:25 Y:00 P:76 SP:FB CYC:1239
C91E 30 0B    BMI $C92B			A:69 X:25 Y:00 P:34 SP:FB CYC:1241
C920 B0 09    BCS $C92B			A:69 X:25 Y:00 P:34 SP:FB CYC:1244
C922 C9 69    CMP #$69			A:69 X:25 Y:00 P:34 SP:FB CYC:1245
C924 D0 05    BNE $C92B			A:69 X:25 Y:00 P:B4 SP:FB CYC:1247
C92B A2 1E    LDX #$1E			A:69 X:25 Y:00 P:B4 SP:FB CYC:1250
C92D 86 00    STX $00			A:69 X:1E Y:00 P:34 SP:FB CYC:1252
C92F EA       NOP 			A:69 X:1E Y:00 P:34 SP:FB CYC:1255
C930 38       SEC 			A:69 X:1E Y:00 P:34 SP:FB CYC:1257
C931 F8       SED 			A:69 X:1E Y:00 P:35 SP:FB CYC:1259
C932 24 01    BIT $01			A:69 X:1E Y:00 P:3D SP:FB CYC:1261
C934 A9 01    LDA #$01			A:69 X:1E Y:00 P:FD SP:FB CYC:1264
C936 69 69    ADC #$69			A:01 X:1E Y:00 P:7D SP:FB CYC:1266
C938 30 0B    BMI $C945			A:6B X:1E Y:00 P:3C SP:FB CYC:1268
C93A B0 09    BCS $C945			A:6B X:1E Y:00 P:3C SP:FB CYC:1271
C93C C9 6B    CMP #$6B			A:6B X:1E Y:00 P:3C SP:FB CYC:1272
C93E D0 05    BNE $C945			A:6B X:1E Y:00 P:BC SP:FB CYC:1274
C945 A2 1F    LDX #$1F			A:6B X:1E Y:00 P:BC SP:FB CYC:1277
C947 86 00    STX $00			A:6B X:1F Y:00 P:3C SP:FB CYC:1279
C949 EA       NOP 			A:6B X:1F Y:00 P:3C SP:FB CYC:1282
C94A D8       CLD 			A:6B X:1F Y:00 P:3C SP:FB CYC:1284
C94B 38       SEC 			A:6B X:1F Y:00 P:34 SP:FB CYC:1286
C94C B8       CLV 			A:6B X:1F Y:00 P:35 SP:FB CYC:1288
C94D A9 7F    LDA #$7F			A:6B X:1F Y:00 P:35 SP:FB CYC:1290
C94F 69 7F    ADC #$7F			A:7F X:1F Y:00 P:35 SP:FB CYC:1292
C951 10 0B    BPL $C95E			A:FF X:1F Y:00 P:F4 SP:FB CYC:1294
C953 B0 09    BCS $C95E			A:FF X:1F Y:00 P:F4 SP:FB CYC:1297
C955 C9 FF    CMP #$FF			A:FF X:1F Y:00 P:F4 SP:FB CYC:1298
C957 D0 05    BNE $C95E			A:FF X:1F Y:00 P:F4 SP:FB CYC:1300
C95E A2 20    LDX #$20			A:FF X:1F Y:00 P:F4 SP:FB CYC:1303
C960 86 00    STX $00			A:FF X:20 Y:00 P:74 SP:FB CYC:1305
C962 EA       NOP 			A:FF X:20 Y:00 P:74 SP:FB CYC:1308
C963 18       CLC 			A:FF X:20 Y:00 P:74 SP:FB CYC:1310
C964 24 01    BIT $01			A:FF X:20 Y:00 P:74 SP:FB CYC:1312
C966 A9 7F    LDA #$7F			A:FF X:20 Y:00 P:F4 SP:FB CYC:1315
C968 69 80    ADC #$80			A:7F X:20 Y:00 P:74 SP:FB CYC:1317
C96A 10 0B    BPL $C977			A:FF X:20 Y:00 P:B4 SP:FB CYC:1319
C96C B0 09    BCS $C977			A:FF X:20 Y:00 P:B4 SP:FB CYC:1322
C96E C9 FF    CMP #$FF			A:FF X:20 Y:00 P:B4 SP:FB CYC:1323
C970 D0 05    BNE $C977			A:FF X:20 Y:00 P:B4 SP:FB CYC:1325
C977 A2 21    LDX #$21			A:FF X:20 Y:00 P:B4 SP:FB CYC:1328
C979 86 00    STX $00			A:FF X:21 Y:00 P:34 SP:FB CYC:1330
C97B EA       NOP 			A:FF X:21 Y:00 P:34 SP:FB CYC:1333
C97C 38       SEC 			A:FF X:21 Y:00 P:34 SP:FB CYC:1335
C97D B8       CLV 			A:FF X:21 Y:00 P:35 SP:FB CYC:1337
C97E A9 7F    LDA #$7F			A:FF X:21 Y:00 P:35 SP:FB CYC:1339
C980 69 80    ADC #$80			A:7F X:21 Y:00 P:35 SP:FB CYC:1341
C982 D0 09    BNE $C98D			A:00 X:21 Y:00 P:37 SP:FB CYC:1343
C984 30 07    BMI $C98D			A:00 X:21 Y:00 P:37 SP:FB CYC:1346
C986 70 05    BVS $C98D			A:00 X:21 Y:00 P:37 SP:FB CYC:1347
C988 90 03    BCC $C98D			A:00 X:21 Y:00 P:37 SP:FB CYC:1350
C98A 4C 91 C9 JMP $C991			A:00 X:21 Y:00 P:37 SP:FB CYC:1351
C991 EA       NOP 			A:00 X:21 Y:00 P:37 SP:FB CYC:1354
C992 38       SEC 			A:00 X:21 Y:00 P:37 SP:FB CYC:1356
C993 B8       CLV 			A:00 X:21 Y:00 P:37 SP:FB CYC:1358
C994 A9 9F    LDA #$9F			A:00 X:21 Y:00 P:37 SP:FB CYC:1360
C996 F0 09    BEQ $C9A1			A:9F X:21 Y:00 P:B5 SP:FB CYC:1362
C998 10 07    BPL $C9A1			A:9F X:21 Y:00 P:B5 SP:FB CYC:1365
C99A 70 05    BVS $C9A1			A:9F X:21 Y:00 P:B5 SP:FB CYC:1366
C99C 90 03    BCC $C9A1			A:9F X:21 Y:00 P:B5 SP:FB CYC:1369
C99E 4C A5 C9 JMP $C9A5			A:9F X:21 Y:00 P:B5 SP:FB CYC:1370
C9A5 EA       NOP 			A:9F X:21 Y:00 P:B5 SP:FB CYC:1373
C9A6 18       CLC 			A:9F X:21 Y:00 P:B5 SP:FB CYC:1375
C9A7 24 01    BIT $01			A:9F X:21 Y:00 P:B4 SP:FB CYC:1377
C9A9 A9 00    LDA #$00			A:9F X:21 Y:00 P:F4 SP:FB CYC:1380
C9AB D0 09    BNE $C9B6			A:00 X:21 Y:00 P:76 SP:FB CYC:1382
C9AD 30 07    BMI $C9B6			A:00 X:21 Y:00 P:76 SP:FB CYC:1385
C9AF 50 05    BVC $C9B6			A:00 X:21 Y:00 P:76 SP:FB CYC:1386
C9B1 B0 03    BCS $C9B6			A:00 X:21 Y:00 P:76 SP:FB CYC:1389
C9B3 4C BA C9 JMP $C9BA			A:00 X:21 Y:00 P:76 SP:FB CYC:1390
C9BA EA       NOP 			A:00 X:21 Y:00 P:76 SP:FB CYC:1393
C9BB 24 01    BIT $01			A:00 X:21 Y:00 P:76 SP:FB CYC:1395
C9BD A9 40    LDA #$40			A:00 X:21 Y:00 P:F6 SP:FB CYC:1398
C9BF C9 40    CMP #$40			A:40 X:21 Y:00 P:74 SP:FB CYC:1400
C9C1 30 09    BMI $C9CC			A:40 X:21 Y:00 P:F4 SP:FB CYC:1402
C9CC A2 24    LDX #$24			A:40 X:21 Y:00 P:F4 SP:FB CYC:1405
C9CE 86 00    STX $00			A:40 X:24 Y:00 P:74 SP:FB CYC:1407
C9D0 EA       NOP 			A:40 X:24 Y:00 P:74 SP:FB CYC:1410
C9D1 B8       CLV 			A:40 X:24 Y:00 P:74 SP:FB CYC:1412
C9D2 C9 3F    CMP #$3F			A:40 X:24 Y:00 P:34 SP:FB CYC:1414
C9D4 F0 09    BEQ $C9DF			A:40 X:24 Y:00 P:37 SP:FB CYC:1416
C9DF A2 25    LDX #$25			A:40 X:24 Y:00 P:37 SP:FB CYC:1419
C9E1 86 00    STX $00			A:40 X:25 Y:00 P:35 SP:FB CYC:1421
C9E3 EA       NOP 			A:40 X:25 Y:00 P:35 SP:FB CYC:1424
C9E4 C9 41    CMP #$41			A:40 X:25 Y:00 P:35 SP:FB CYC:1426
C9E6 F0 07    BEQ $C9EF			A:40 X:25 Y:00 P:B4 SP:FB CYC:1428
C9E8 10 05    BPL $C9EF			A:40 X:25 Y:00 P:B4 SP:FB CYC:1431
C9EA 10 03    BPL $C9EF			A:40 X:25 Y:00 P:B4 SP:FB CYC:1432
C9EC 4C F3 C9 JMP $C9F3			A:40 X:25 Y:00 P:B4 SP:FB CYC:1434
C9F3 EA       NOP 			A:40 X:25 Y:00 P:B4 SP:FB CYC:1437
C9F4 A9 80    LDA #$80			A:40 X:25 Y:00 P:B4 SP:FB CYC:1439
C9F6 C9 00    CMP #$00			A:80 X:25 Y:00 P:B4 SP:FB CYC:1441
C9F8 F0 07    BEQ $CA01			A:80 X:25 Y:00 P:35 SP:FB CYC:1443
C9FA 10 05    BPL $CA01			A:80 X:25 Y:00 P:35 SP:FB CYC:1445
C903 A9 70    LDA #$70			A:80 X:25 Y:00 P:35 SP:FB CYC:1448
C905 49 70    EOR #$70			A:70 X:25 Y:00 P:35 SP:FB CYC:1450
C907 D0 09    BNE $C912			A:00 X:25 Y:00 P:37 SP:FB CYC:1452
C909 70 07    BVS $C912			A:00 X:25 Y:00 P:37 SP:FB CYC:1455
C90B 90 05    BCC $C912			A:00 X:25 Y:00 P:37 SP:FB CYC:1456
C90D 30 03    BMI $C912			A:00 X:25 Y:00 P:37 SP:FB CYC:1459
C90F 4C 16 C9 JMP $C916			A:00 X:25 Y:00 P:37 SP:FB CYC:1460
C916 EA       NOP 			A:00 X:25 Y:00 P:37 SP:FB CYC:1463
C917 18       CLC 			A:00 X:25 Y:00 P:37 SP:FB CYC:1465
C918 24 01    BIT $01			A:00 X:25 Y:00 P:36 SP:FB CYC:1467
C91A A9 00    LDA #$00			A:00 X:25 Y:00 P:F6 SP:FB CYC:1470
C91C 69 69    ADC #$69			A:00 X:25 Y:00 P:76 SP:FB CYC:1472
C91E 30 0B    BMI $C92B			A:69 X:25 Y:00 P:34 SP:FB CYC:1474
C920 B0 09    BCS $C92B			A:69 X:25 Y:00 P:34 SP:FB CYC:1477
C922 C9 69    CMP #$69			A:69 X:25 Y:00 P:34 SP:FB CYC:1478
C924 D0 05    BNE $C92B			A:69 X:25 Y:00 P:B4 SP:FB CYC:1480
C92B A2 1E    LDX #$1E			A:69 X:25 Y:00 P:B4 SP:FB CYC:1483
C92D 86 00    STX $00			A:69 X:1E Y:00 P:34 SP:FB CYC:1485
C92F EA       NOP 			A:69 X:1E Y:00 P:34 SP:FB CYC:1488
C930 38       SEC 			A:69 X:1E Y:00 P:34 SP:FB CYC:1490
C931 F8       SED 			A:69 X:1E Y:00 P:35 SP:FB CYC:1492
C932 24 01    BIT $01			A:69 X:1E Y:00 P:3D SP:FB CYC:1494
C934 A9 01    LDA #$01			A:69 X:1E Y:00 P:FD SP:FB CYC:1497
C936 69 69    ADC #$69			A:01 X:1E Y:00 P:7D SP:FB CYC:1499
C938 30 0B    BMI $C945			A:6B X:1E Y:00 P:3C SP:FB CYC:1501
C93A B0 09    BCS $C945			A:6B X:1E Y:00 P:3C SP:FB CYC:1504
C93C C9 6B    CMP #$6B			A:6B X:1E Y:00 P:3C SP:FB CYC:1505
C93E D0 05    BNE $C945			A:6B X:1E Y:00 P:BC SP:FB CYC:1507
C945 A2 1F    LDX #$1F			A:6B X:1E Y:00 P:BC SP:FB CYC:1510
C947 86 00    STX $00			A:6B X:1F Y:00 P:3C SP:FB CYC:1512
C949 EA       NOP 			A:6B X:1F Y:00 P:3C SP:FB CYC:1515
C94A D8       CLD 			A:6B X:1F Y:00 P:3C SP:FB CYC:1517
C94B 38       SEC 			A:6B X:1F Y:00 P:34 SP:FB CYC:1519
C94C B8       CLV 			A:6B X:1F Y:00 P:35 SP:FB CYC:1521
C94D A9 7F    LDA #$7F			A:6B X:1F Y:00 P:35 SP:FB CYC:1523
C94F 69 7F    ADC #$7F			A:7F X:1F Y:00 P:35 SP:FB CYC:1525
C951 10 0B    BPL $C95E			A:FF X:1F Y:00 P:F4 SP:FB CYC:1527
C953 B0 09    BCS $C95E			A:FF X:1F Y:00 P:F4 SP:FB CYC:1530
C955 C9 FF    CMP #$FF			A:FF X:1F Y:00 P:F4 SP:FB CYC:1531
C957 D0 05    BNE $C95E			A:FF X:1F Y:00 P:F4 SP:FB CYC:1533
C95E A2 20    LDX #$20			A:FF X:1F Y:00 P:F4 SP:FB CYC:1536
C960 86 00    STX $00			A:FF X:20 Y:00 P:74 SP:FB CYC:1538
C962 EA       NOP 			A:FF X:20 Y:00 P:74 SP:FB CYC:1541
C963 18       CLC 			A:FF X:20 Y:00 P:74 SP:FB CYC:1543
C964 24 01    BIT $01			A:FF X:20 Y:00 P:74 SP:FB CYC:1545
C966 A9 7F    LDA #$7F			A:FF X:20 Y:00 P:F4 SP:FB CYC:1548
C968 69 80    ADC #$80			A:7F X:20 Y:00 P:74 SP:FB CYC:1550
C96A 10 0B    BPL $C977			A:FF X:20 Y:00 P:B4 SP:FB CYC:1552
C96C B0 09    BCS $C977			A:FF X:20 Y:00 P:B4 SP:FB CYC:1555
C96E C9 FF    CMP #$FF			A:FF X:20 Y:00 P:B4 SP:FB CYC:1556
C970 D0 05    BNE $C977			A:FF X:20 Y:00 P:B4 SP:FB CYC:1558
C977 A2 21    LDX #$21			A:FF X:20 Y:00 P:B4 SP:FB CYC:1561
C979 86 00    STX $00			A:FF X:21 Y:00 P:34 SP:FB CYC:1563
C97B EA       NOP 			A:FF X:21 Y:00 P:34 SP:FB CYC:1566
C97C 38       SEC 			A:FF X:21 Y:00 P:34 SP:FB CYC:1568
C97D B8       CLV 			A:FF X:21 Y:00 P:35 SP:FB CYC:1570
C97E A9 7F    LDA #$7F			A:FF X:21 Y:00 P:35 SP:FB CYC:1572
C980 69 80    ADC #$80			A:7F X:21 Y:00 P:35 SP:FB CYC:1574
C982 D0 09    BNE $C98D			A:00 X:21 Y:00 P:37 SP:FB CYC:1576
C984 30 07    BMI $C98D			A:00 X:21 Y:00 P:37 SP:FB CYC:1579
C986 70 05    BVS $C98D			A:00 X:21 Y:00 P:37 SP:FB CYC:1580
C988 90 03    BCC $C98D			A:00 X:21 Y:00 P:37 SP:FB CYC:1583
C98A 4C 91 C9 JMP $C991			A:00 X:21 Y:00 P:37 SP:FB CYC:1584
C991 EA       NOP 			A:00 X:21 Y:00 P:37 SP:FB CYC:1587
C992 38       SEC 			A:00 X:21 Y:00 P:37 SP:FB CYC:1589
C993 B8       CLV 			A:00 X:21 Y:00 P:37 SP:FB CYC:1591
C994 A9 9F    LDA #$9F			A:00 X:21 Y:00 P:37 SP:FB CYC:1593
C996 F0 09    BEQ $C9A1			A:9F X:21 Y:00 P:B5 SP:FB CYC:1595
C998 10 07    BPL $C9A1			A:9F X:21 Y:00 P:B5 SP:FB CYC:1598
C99A 70 05    BVS $C9A1			A:9F X:21 Y:00 P:B5 SP:FB CYC:1599
C99C 90 03    BCC $C9A1			A:9F X:21 Y:00 P:B5 SP:FB CYC:1602
C99E 4C A5 C9 JMP $C9A5			A:9F X:21 Y:00 P:B5 SP:FB CYC:1603
C9A5 EA       NOP 			A:9F X:21 Y:00 P:B5 SP:FB CYC:1606
C9A6 18       CLC 			A:9F X:21 Y:00 P:B5 SP:FB CYC:1608
C9A7 24 01    BIT $01			A:9F X:21 Y:00 P:B4 SP:FB CYC:1610
C9A9 A9 00    LDA #$00			A:9F X:21 Y:00 P:F4 SP:FB CYC:1613
C9AB D0 09    BNE $C9B6			A:00 X:21 Y:00 P:76 SP:FB CYC:1615
C9AD 30 07    BMI $C9B6			A:00 X:21 Y:00 P:76 SP:FB CYC:1618
C9AF 50 05    BVC $C9B6			A:00 X:21 Y:00 P:76 SP:FB CYC:1619
C9B1 B0 03    BCS $C9B6			A:00 X:21 Y:00 P:76 SP:FB CYC:1622
C9B3 4C BA C9 JMP $C9BA			A:00 X:21 Y:00 P:76 SP:FB CYC:1623
C9BA EA       NOP 			A:00 X:21 Y:00 P:76 SP:FB CYC:1626
C9BB 24 01    BIT $01			A:00 X:21 Y:00 P:76 SP:FB CYC:1628
C9BD A9 40    LDA #$40			A:00 X:21 Y:00 P:F6 SP:FB CYC:1631
C9BF C9 40    CMP #$40			A:40 X:21 Y:00 P:74 SP:FB CYC:1633
C9C1 30 09    BMI $C9CC			A:40 X:21 Y:00 P:F4 SP:FB CYC:1635
C9CC A2 24    LDX #$24			A:40 X:21 Y:00 P:F4 SP:FB CYC:1638
C9CE 86 00    STX $00			A:40 X:24 Y:00 P:74 SP:FB CYC:1640
C9D0 EA       NOP 			A:40 X:24 Y:00 P:74 SP:FB CYC:1643
C9D1 B8       CLV 			A:40 X:24 Y:00 P:74 SP:FB CYC:1645
C9D2 C9 3F    CMP #$3F			A:40 X:24 Y:00 P:34 SP:FB CYC:1647
C9D4 F0 09    BEQ $C9DF			A:40 X:24 Y:00 P:37 SP:FB CYC:1649
C9DF A2 25    LDX #$25			A:40 X:24 Y:00 P:37 SP:FB CYC:1652
C9E1 86 00    STX $00			A:40 X:25 Y:00 P:35 SP:FB CYC:1654
C9E3 EA       NOP 			A:40 X:25 Y:00 P:35 SP:FB CYC:1657
C9E4 C9 41    CMP #$41			A:40 X:25 Y:00 P:35 SP:FB CYC:1659
C9E6 F0 07    BEQ $C9EF			A:40 X:25 Y:00 P:B4 SP:FB CYC:1661
C9E8 10 05    BPL $C9EF			A:40 X:25 Y:00 P:B4 SP:FB CYC:1664
C9EA 10 03    BPL $C9EF			A:40 X:25 Y:00 P:B4 SP:FB CYC:1665
C9EC 4C F3 C9 JMP $C9F3			A:40 X:25 Y:00 P:B4 SP:FB CYC:1667
C9F3 EA       NOP 			A:40 X:25 Y:00 P:B4 SP:FB CYC:1670
C9F4 A9 80    LDA #$80			A:40 X:25 Y:00 P:B4 SP:FB CYC:1672
C9F6 C9 00    CMP #$00			A:80 X:25 Y:00 P:B4 SP:FB CYC:1674
C9F8 F0 07    BEQ $CA01			A:80 X:25 Y:00 P:35 SP:FB CYC:1676
C9FA 10 05    BPL $CA01			A:80 X:25 Y:00 P:35 SP:FB CYC:1678
C903 A9 70    LDA #$70			A:80 X:25 Y:00 P:35 SP:FB CYC:1681
C905 49 70    EOR #$70			A:70 X:25 Y:00 P:35 SP:FB CYC:1683
C907 D0 09    BNE $C912			A:00 X:25 Y:00 P:37 SP:FB CYC:1685
C909 70 07    BVS $C912			A:00 X:25 Y:00 P:37 SP:FB CYC:1688
C90B 90 05    BCC $C912			A:00 X:25 Y:00 P:37 SP:FB CYC:1689
C90D 30 03    BMI $C912			A:00 X:25 Y:00 P:37 SP:FB CYC:1692
C90F 4C 16 C9 JMP $C916			A:00 X:25 Y:00 P:37 SP:FB CYC:1693
C916 EA       NOP 			A:00 X:25 Y:00 P:37 SP:FB CYC:1696
C917 18       CLC 			A:00 X:25 Y:00 P:37 SP:FB CYC:1698
C918 24 01    BIT $01			A:00 X:25 Y:00 P:36 SP:FB CYC:1700
C91A A9 00    LDA #$00			A:00 X:25 Y:00 P:F6 SP:FB CYC:1703
C91C 69 69    ADC #$69			A:00 X:25 Y:00 P:76 SP:FB CYC:1705
C91E 30 0B    BMI $C92B			A:69 X:25 Y:00 P:34 SP:FB CYC:1707
C920 B0 09    BCS $C92B			A:69 X:25 Y:00 P:34 SP:FB CYC:1710
C922 C9 69    CMP #$69			A:69 X:25 Y:00 P:34 SP:FB CYC:1711
C924 D0 05    BNE $C92B			A:69 X:25 Y:00 P:B4 SP:FB CYC:1713
C92B A2 1E    LDX #$1E			A:69 X:25 Y:00 P:B4 SP:FB CYC:1716
C92D 86 00    STX $00			A:69 X:1E Y:00 P:34 SP:FB CYC:1718
C92F EA       NOP 			A:69 X:1E Y:00 P:34 SP:FB CYC:1721
C930 38       SEC 			A:69 X:1E Y:00 P:34 SP:FB CYC:1723
C931 F8       SED 			A:69 X:1E Y:00 P:35 SP:FB CYC:1725
C932 24 01    BIT $01			A:69 X:1E Y:00 P:3D SP:FB CYC:1727
C934 A9 01    LDA #$01			A:69 X:1E Y:00 P:FD SP:FB CYC:1730
C936 69 69    ADC #$69			A:01 X:1E Y:00 P:7D SP:FB CYC:1732
C938 30 0B    BMI $C945			A:6B X:1E Y:00 P:3C SP:FB CYC:1734
C93A B0 09    BCS $C945			A:6B X:1E Y:00 P:3C SP:FB CYC:1737
C93C C9 6B    CMP #$6B			A:6B X:1E Y:00 P:3C SP:FB CYC:1738
C93E D0 05    BNE $C945			A:6B X:1E Y:00 P:BC SP:FB CYC:1740
C945 A2 1F    LDX #$1F			A:6B X:1E Y:00 P:BC SP:FB CYC:1743
C947 86 00    STX $00			A:6B X:1F Y:00 P:3C SP:FB CYC:1745
C949 EA       NOP 			A:6B X:1F Y:00 P:3C SP:FB CYC:1748
C94A D8       CLD 			A:6B X:1F Y:00 P:3C SP:FB CYC:1750
C94B 38       SEC 			A:6B X:1F Y:00 P:34 SP:FB CYC:1752
C94C B8       CLV 			A:6B X:1F Y:00 P:35 SP:FB CYC:1754
C94D A9 7F    LDA #$7F			A:6B X:1F Y:00 P:35 SP:FB CYC:1756
C94F 69 7F    ADC #$7F			A:7F X:1F Y:00 P:35 SP:FB CYC:1758
C951 10 0B    BPL $C95E			A:FF X:1F Y:00 P:F4 SP:FB CYC:1760
C953 B0 09    BCS $C95E			A:FF X:1F Y:00 P:F4 SP:FB CYC:1763
C955 C9 FF    CMP #$FF			A:FF X:1F Y:00 P:F4 SP:FB CYC:1764
C957 D0 05    BNE $C95E			A:FF X:1F Y:00 P:F4 SP:FB CYC:1766
C95E A2 20    LDX #$20			A:FF X:1F Y:00 P:F4 SP:FB CYC:1769
C960 86 00    STX $00			A:FF X:20 Y:00 P:74 SP:FB CYC:1771
C962 EA       NOP 			A:FF X:20 Y:00 P:74 SP:FB CYC:1774
C963 18       CLC 			A:FF X:20 Y:00 P:74 SP:FB CYC:1776
C964 24 01    BIT $01			A:FF X:20 Y:00 P:74 SP:FB CYC:1778
C966 A9 7F    LDA #$7F			A:FF X:20 Y:00 P:F4 SP:FB CYC:1781
C968 69 80    ADC #$80			A:7F X:20 Y:00 P:74 SP:FB CYC:1783
C96A 10 0B    BPL $C977			A:FF X:20 Y:00 P:B4 SP:FB CYC:1785
C96C B0 09    BCS $C977			A:FF X:20 Y:00 P:B4 SP:FB CYC:1788
C96E C9 FF    CMP #$FF			A:FF X:20 Y:00 P:B4 SP:FB CYC:1789
C970 D0 05    BNE $C977			A:FF X:20 Y:00 P:B4 SP:FB CYC:1791
C977 A2 21    LDX #$21			A:FF X:20 Y:00 P:B4 SP:FB CYC:1794
C979 86 00    STX $00			A:FF X:21 Y:00 P:34 SP:FB CYC:1796
C97B EA       NOP 			A:FF X:21 Y:00 P:34 SP:FB CYC:1799
C97C 38       SEC 			A:FF X:21 Y:00 P:34 SP:FB CYC:1801
C97D B8       CLV 			A:FF X:21 Y:00 P:35 SP:FB CYC:1803
C97E A9 7F    LDA #$7F			A:FF X:21 Y:00 P:35 SP:FB CYC:1805
C980 69 80    ADC #$80			A:7F X:21 Y:00 P:35 SP:FB CYC:1807
C982 D0 09    BNE $C98D			A:00 X:21 Y:00 P:37 SP:FB CYC:1809
C984 30 07    BMI $C98D			A:00 X:21 Y:00 P:37 SP:FB CYC:1812
C986 70 05    BVS $C98D			A:00 X:21 Y:00 P:37 SP:FB CYC:1813
C988 90 03    BCC $C98D			A:00 X:21 Y:00 P:37 SP:FB CYC:1816
C98A 4C 91 C9 JMP $C991			A:00 X:21 Y:00 P:37 SP:FB CYC:1817
C991 EA       NOP 			A:00 X:21 Y:00 P:37 SP:FB CYC:1820
C992 38       SEC 			A:00 X:21 Y:00 P:37 SP:FB CYC:1822
C993 B8       CLV 			A:00 X:21 Y:00 P:37 SP:FB CYC:1824
C994 A9 9F    LDA #$9F			A:00 X:21 Y:00 P:37 SP:FB CYC:1826
C996 F0 09    BEQ $C9A1			A:9F X:21 Y:00 P:B5 SP:FB CYC:1828
C998 10 07    BPL $C9A1			A:9F X:21 Y:00 P:B5 SP:FB CYC:1831
C99A 70 05    BVS $C9A1			A:9F X:21 Y:00 P:B5 SP:FB CYC:1832
C99C 90 03    BCC $C9A1			A:9F X:21 Y:00 P:B5 SP:FB CYC:1835
C99E 4C A5 C9 JMP $C9A5			A:9F X:21 Y:00 P:B5 SP:FB CYC:1836
C9A5 EA       NOP 			A:9F X:21 Y:00 P:B5 SP:FB CYC:1839
C9A6 18       CLC 			A:9F X:21 Y:00 P:B5 SP:FB CYC:1841
C9A7 24 01    BIT $01			A:9F X:21 Y:00 P:B4 SP:FB CYC:1843
C9A9 A9 00    LDA #$00			A:9F X:21 Y:00 P:F4 SP:FB CYC:1846
C9AB D0 09    BNE $C9B6			A:00 X:21 Y:00 P:76 SP:FB CYC:1848
C9AD 30 07    BMI $C9B6			A:00 X:21 Y:00 P:76 SP:FB CYC:1851
C9AF 50 05    BVC $C9B6			A:00 X:21 Y:00 P:76 SP:FB CYC:1852
C9B1 B0 03    BCS $C9B6			A:00 X:21 Y:00 P:76 SP:FB CYC:1855
C9B3 4C BA C9 JMP $C9BA			A:00 X:21 Y:00 P:76 SP:FB CYC:1856
C9BA EA       NOP 			A:00 X:21 Y:00 P:76 SP:FB CYC:1859
C9BB 24 01    BIT $01			A:00 X:21 Y:00 P:76 SP:FB CYC:1861
C9BD A9 40    LDA #$40			A:00 X:21 Y:00 P:F6 SP:FB CYC:1864
C9BF C9 40    CMP #$40			A:40 X:21 Y:00 P:74 SP:FB CYC:1866
C9C1 30 09    BMI $C9CC			A:40 X:21 Y:00 P:F4 SP:FB CYC:1868
C9CC A2 24    LDX #$24			A:40 X:21 Y:00 P:F4 SP:FB CYC:1871
C9CE 86 00    STX $00			A:40 X:24 Y:00 P:74 SP:FB CYC:1873
C9D0 EA       NOP 			A:40 X:24 Y:00 P:74 SP:FB CYC:1876
C9D1 B8       CLV 			A:40 X:24 Y:00 P:74 SP:FB CYC:1878
C9D2 C9 3F    CMP #$3F			A:40 X:24 Y:00 P:34 SP:FB CYC:1880
C9D4 F0 09    BEQ $C9DF			A:40 X:24 Y:00 P:37 SP:FB CYC:1882
C9DF A2 25    LDX #$25			A:40 X:24 Y:00 P:37 SP:FB CYC:1885
C9E1 86 00    STX $00			A:40 X:25 Y:00 P:35 SP:FB CYC:1887
C9E3 EA       NOP 			A:40 X:25 Y:00 P:35 SP:FB CYC:1890
C9E4 C9 41    CMP #$41			A:40 X:25 Y:00 P:35 SP:FB CYC:1892
C9E6 F0 07    BEQ $C9EF			A:40 X:25 Y:00 P:B4 SP:FB CYC:1894
C9E8 10 05    BPL $C9EF			A:40 X:25 Y:00 P:B4 SP:FB CYC:1897
C9EA 10 03    BPL $C9EF			A:40 X:25 Y:00 P:B4 SP:FB CYC:1898
C9EC 4C F3 C9 JMP $C9F3			A:40 X:25 Y:00 P:B4 SP:FB CYC:1900
C9F3 EA       NOP 			A:40 X:25 Y:00 P:B4 SP:FB CYC:1903
C9F4 A9 80    LDA #$80			A:40 X:25 Y:00 P:B4 SP:FB CYC:1905
C9F6 C9 00    CMP #$00			A:80 X:25 Y:00 P:B4 SP:FB CYC:1907
C9F8 F0 07    BEQ $CA01			A:80 X:25 Y:00 P:35 SP:FB CYC:1909
C9FA 10 05    BPL $CA01			A:80 X:25 Y:00 P:35 SP:FB CYC:1911
C903 A9 70    LDA #$70			A:80 X:25 Y:00 P:35 SP:FB CYC:1914
C905 49 70    EOR #$70			A:70 X:25 Y:00 P:35 SP:FB CYC:1916
C907 D0 09    BNE $C912			A:00 X:25 Y:00 P:37 SP:FB CYC:1918
C909 70 07    BVS $C912			A:00 X:25 Y:00 P:37 SP:FB CYC:1921
C90B 90 05    BCC $C912			A:00 X:25 Y:00 P:37 SP:FB CYC:1922
C90D 30 03    BMI $C912			A:00 X:25 Y:00 P:37 SP:FB CYC:1925
C90F 4C 16 C9 JMP $C916			A:00 X:25 Y:00 P:37 SP:FB CYC:1926
C916 EA       NOP 			A:00 X:25 Y:00 P:37 SP:FB CYC:1929
C917 18       CLC 			A:00 X:25 Y:00 P:37 SP:FB CYC:1931
C918 24 01    BIT $01			A:00 X:25 Y:00 P:36 SP:FB CYC:1933
C91A A9 00    LDA #$00			A:00 X:25 Y:00 P:F6 SP:FB CYC:1936
C91C 69 69    ADC #$69			A:00 X:25 Y:00 P:76 SP:FB CYC:1938
C91E 30 0B    BMI $C92B			A:69 X:25 Y:00 P:34 SP:FB CYC:1940
C920 B0 09    BCS $C92B			A:69 X:25 Y:00 P:34 SP:FB CYC:1943
C922 C9 69    CMP #$69			A:69 X:25 Y:00 P:34 SP:FB CYC:1944
C924 D0 05    BNE $C92B			A:69 X:25 Y:00 P:B4 SP:FB CYC:1946
C92B A2 1E    LDX #$1E			A:69 X:25 Y:00 P:B4 SP:FB CYC:1949
C92D 86 00    STX $00			A:69 X:1E Y:00 P:34 SP:FB CYC:1951
C92F EA       NOP 			A:69 X:1E Y:00 P:34 SP:FB CYC:1954
C930 38       SEC 			A:69 X:1E Y:00 P:34 SP:FB CYC:1956
C931 F8       SED 			A:69 X:1E Y:00 P:35 SP:FB CYC:1958
C932 24 01    BIT $01			A:69 X:1E Y:00 P:3D SP:FB CYC:1960
C934 A9 01    LDA #$01			A:69 X:1E Y:00 P:FD SP:FB CYC:1963
C936 69 69    ADC #$69			A:01 X:1E Y:00 P:7D SP:FB CYC:1965
C938 30 0B    BMI $C945			A:6B X:1E Y:00 P:3C SP:FB CYC:1967
C93A B0 09    BCS $C945			A:6B X:1E Y:00 P:3C SP:FB CYC:1970
C93C C9 6B    CMP #$6B			A:6B X:1E Y:00 P:3C SP:FB CYC:1971
C93E D0 05    BNE $C945			A:6B X:1E Y:00 P:BC SP:FB CYC:1973
C945 A2 1F    LDX #$1F			A:6B X:1E Y:00 P:BC SP:FB CYC:1976
C947 86 00    STX $00			A:6B X:1F Y:00 P:3C SP:FB CYC:1978
C949 EA       NOP 			A:6B X:1F Y:00 P:3C SP:FB CYC:1981
C94A D8       CLD 			A:6B X:1F Y:00 P:3C SP:FB CYC:1983
C94B 38       SEC 			A:6B X:1F Y:00 P:34 SP:FB CYC:1985
C94C B8       CLV 			A:6B X:1F Y:00 P:35 SP:FB CYC:1987
C94D A9 7F    LDA #$7F			A:6B X:1F Y:00 P:35 SP:FB CYC:1989
C94F 69 7F    ADC #$7F			A:7F X:1F Y:00 P:35 SP:FB CYC:1991
C951 10 0B    BPL $C95E			A:FF X:1F Y:00 P:F4 SP:FB CYC:1993
C953 B0 09    BCS $C95E			A:FF X:1F Y:00 P:F4 SP:FB CYC:1996
C955 C9 FF    CMP #$FF			A:FF X:1F Y:00 P:F4 SP:FB CYC:1997
C957 D0 05    BNE $C95E			A:FF X:1F Y:00 P:F4 SP:FB CYC:1999
C95E A2 20    LDX #$20			A:FF X:1F Y:00 P:F4 SP:FB CYC:2002
C960 86 00    STX $00			A:FF X:20 Y:00 P:74 SP:FB CYC:2004
C962 EA       NOP 			A:FF X:20 Y:00 P:74 SP:FB CYC:2007
C963 18       CLC 			A:FF X:20 Y:00 P:74 SP:FB CYC:2009
C964 24 01    BIT $01			A:FF X:20 Y:00 P:74 SP:FB CYC:2011
C966 A9 7F    LDA #$7F			A:FF X:20 Y:00 P:F4 SP:FB CYC:2014
C968 69 80    ADC #$80			A:7F X:20 Y:00 P:74 SP:FB CYC:2016
C96A 10 0B    BPL $C977			A:FF X:20 Y:00 P:B4 SP:FB CYC:2018
C96C B0 09    BCS $C977			A:FF X:20 Y:00 P:B4 SP:FB CYC:2021
C96E C9 FF    CMP #$FF			A:FF X:20 Y:00 P:B4 SP:FB CYC:2022
C970 D0 05    BNE $C977			A:FF X:20 Y:00 P:B4 SP:FB CYC:2024
C977 A2 21    LDX #$21			A:FF X:20 Y:00 P:B4 SP:FB CYC:2027
C979 86 00    STX $00			A:FF X:21 Y:00 P:34 SP:FB CYC:2029
C97B EA       NOP 			A:FF X:21 Y:00 P:34 SP:FB CYC:2032
C97C 38       SEC 			A:FF X:21 Y:00 P:34 SP:FB CYC:2034
C97D B8       CLV 			A:FF X:21 Y:00 P:35 SP:FB CYC:2036
C97E A9 7F    LDA #$7F			A:FF X:21 Y:00 P:35 SP:FB CYC:2038
C980 69 80    ADC #$80			A:7F X:21 Y:00 P:35 SP:FB CYC:2040
C982 D0 09    BNE $C98D			A:00 X:21 Y:00 P:37 SP:FB CYC:2042
C984 30 07    BMI $C98D			A:00 X:21 Y:00 P:37 SP:FB CYC:2045
C986 70 05    BVS $C98D			A:00 X:21 Y:00 P:37 SP:FB CYC:2046
C988 90 03    BCC $C98D			A:00 X:21 Y:00 P:37 SP:FB CYC:2049
C98A 4C 91 C9 JMP $C991			A:00 X:21 Y:00 P:37 SP:FB CYC:2050
C991 EA       NOP 			A:00 X:21 Y:00 P:37 SP:FB CYC:2053
C992 38       SEC 			A:00 X:21 Y:00 P:37 SP:FB CYC:2055
C993 B8       CLV 			A:00 X:21 Y:00 P:37 SP:FB CYC:2057
C994 A9 9F    LDA #$9F			A:00 X:21 Y:00 P:37 SP:FB CYC:2059
C996 F0 09    BEQ $C9A1			A:9F X:21 Y:00 P:B5 SP:FB CYC:2061
C998 10 07    BPL $C9A1			A:9F X:21 Y:00 P:B5 SP:FB CYC:2064
C99A 70 05    BVS $C9A1			A:9F X:21 Y:00 P:B5 SP:FB CYC:2065
C99C 90 03    BCC $C9A1			A:9F X:21 Y:00 P:B5 SP:FB CYC:2068
C99E 4C A5 C9 JMP $C9A5			A:9F X:21 Y:00 P:B5 SP:FB CYC:2069
C9A5 EA       NOP 			A:9F X:21 Y:00 P:B5 SP:FB CYC:2072
C9A6 18       CLC 			A:9F X:21 Y:00 P:B5 SP:FB CYC:2074
C9A7 24 01    BIT $01			A:9F X:21 Y:00 P:B4 SP:FB CYC:2076
C9A9 A9 00    LDA #$00			A:9F X:21 Y:00 P:F4 SP:FB CYC:2079
C9AB D0 09    BNE $C9B6			A:00 X:21 Y:00 P:76 SP:FB CYC:2081
C9AD 30 07    BMI $C9B6			A:00 X:21 Y:00 P:76 SP:FB CYC:2084
C9AF 50 05    BVC $C9B6			A:00 X:21 Y:00 P:76 SP:FB CYC:2085
C9B1 B0 03    BCS $C9B6			A:00 X:21 Y:00 P:76 SP:FB CYC:2088
C9B3 4C BA C9 JMP $C9BA			A:00 X:21 Y:00 P:76 SP:FB CYC:2089
C9BA EA       NOP 			A:00 X:21 Y:00 P:76 SP:FB CYC:2092
C9BB 24 01    BIT $01			A:00 X:21 Y:00 P:76 SP:FB CYC:2094
C9BD A9 40    LDA #$40			A:00 X:21 Y:00 P:F6 SP:FB CYC:2097
C9BF C9 40    CMP #$40			A:40 X:21 Y:00 P:74 SP:FB CYC:2099
C9C1 30 09    BMI $C9CC			A:40 X:21 Y:00 P:F4 SP:FB CYC:2101
C9CC A2 24    LDX #$24			A:40 X:21 Y:00 P:F4 SP:FB CYC:2104
C9CE 86 00    STX $00			A:40 X:24 Y:00 P:74 SP:FB CYC:2106
C9D0 EA       NOP 			A:40 X:24 Y:00 P:74 SP:FB CYC:2109
C9D1 B8       CLV 			A:40 X:24 Y:00 P:74 SP:FB CYC:2111
C9D2 C9 3F    CMP #$3F			A:40 X:24 Y:00 P:34 SP:FB CYC:2113
C9D4 F0 09    BEQ $C9DF			A:40 X:24 Y:00 P:37 SP:FB CYC:2115
C9DF A2 25    LDX #$25			A:40 X:24 Y:00 P:37 SP:FB CYC:2118
C9E1 86 00    STX $00			A:40 X:25 Y:00 P:35 SP:FB CYC:2120
C9E3 EA       NOP 			A:40 X:25 Y:00 P:35 SP:FB CYC:2123
C9E4 C9 41    CMP #$41			A:40 X:25 Y:00 P:35 SP:FB CYC:2125
C9E6 F0 07    BEQ $C9EF			A:40 X:25 Y:00 P:B4 SP:FB CYC:2127
C9E8 10 05    BPL $C9EF			A:40 X:25 Y:00 P:B4 SP:FB CYC:2130
C9EA 10 03    BPL $C9EF			A:40 X:25 Y:00 P:B4 SP:FB CYC:2131
C9EC 4C F3 C9 JMP $C9F3			A:40 X:25 Y:00 P:B4 SP:FB CYC:2133
C9F3 EA       NOP 			A:40 X:25 Y:00 P:B4 SP:FB CYC:2136
C9F4 A9 80    LDA #$80			A:40 X:25 Y:00 P:B4 SP:FB CYC:2138
C9F6 C9 00    CMP #$00			A:80 X:25 Y:00 P:B4 SP:FB CYC:2140
C9F8 F0 07    BEQ $CA01			A:80 X:25 Y:00 P:35 SP:FB CYC:2142
C9FA 10 05    BPL $CA01			A:80 X:25 Y:00 P:35 SP:FB CYC:2144
C903 A9 70    LDA #$70			A:80 X:25 Y:00 P:35 SP:FB CYC:2147
C905 49 70    EOR #$70			A:70 X:25 Y:00 P:35 SP:FB CYC:2149
C907 D0 09    BNE $C912			A:00 X:25 Y:00 P:37 SP:FB CYC:2151
C909 70 07    BVS $C912			A:00 X:25 Y:00 P:37 SP:FB CYC:2154
C90B 90 05    BCC $C912			A:00 X:25 Y:00 P:37 SP:FB CYC:2155
C90D 30 03    BMI $C912			A:00 X:25 Y:00 P:37 SP:FB CYC:2158
C90F 4C 16 C9 JMP $C916			A:00 X:25 Y:00 P:37 SP:FB CYC:2159
C916 EA       NOP 			A:00 X:25 Y:00 P:37 SP:FB CYC:2162
C917 18       CLC 			A:00 X:25 Y:00 P:37 SP:FB CYC:2164
C918 24 01    BIT $01			A:00 X:25 Y:00 P:36 SP:FB CYC:2166
C91A A9 00    LDA #$00			A:00 X:25 Y:00 P:F6 SP:FB CYC:2169
C91C 69 69    ADC #$69			A:00 X:25 Y:00 P:76 SP:FB CYC:2171
C91E 30 0B    BMI $C92B			A:69 X:25 Y:00 P:34 SP:FB CYC:2173
C920 B0 09    BCS $C92B			A:69 X:25 Y:00 P:34 SP:FB CYC:2176
C922 C9 69    CMP #$69			A:69 X:25 Y:00 P:34 SP:FB CYC:2177
C924 D0 05    BNE $C92B			A:69 X:25 Y:00 P:B4 SP:FB CYC:2179
C92B A2 1E    LDX #$1E			A:69 X:25 Y:00 P:B4 SP:FB CYC:2182
C92D 86 00    STX $00			A:69 X:1E Y:00 P:34 SP:FB CYC:2184
C92F EA       NOP 			A:69 X:1E Y:00 P:34 SP:FB CYC:2187
C930 38       SEC 			A:69 X:1E Y:00 P:34 SP:FB CYC:2189
C931 F8       SED 			A:69 X:1E Y:00 P:35 SP:FB CYC:2191
C932 24 01    BIT $01			A:69 X:1E Y:00 P:3D SP:FB CYC:2193
C934 A9 01    LDA #$01			A:69 X:1E Y:00 P:FD SP:FB CYC:2196
C936 69 69    ADC #$69			A:01 X:1E Y:00 P:7D SP:FB CYC:2198
C938 30 0B    BMI $C945			A:6B X:1E Y:00 P:3C SP:FB CYC:2200
C93A B0 09    BCS $C945			A:6B X:1E Y:00 P:3C SP:FB CYC:2203
C93C C9 6B    CMP #$6B			A:6B X:1E Y:00 P:3C SP:FB CYC:2204
C93E D0 05    BNE $C945			A:6B X:1E Y:00 P:BC SP:FB CYC:2206
C945 A2 1F    LDX #$1F			A:6B X:1E Y:00 P:BC SP:FB CYC:2209
C947 86 00    STX $00			A:6B X:1F Y:00 P:3C SP:FB CYC:2211
C949 EA       NOP 			A:6B X:1F Y:00 P:3C SP:FB CYC:2214
C94A D8       CLD 			A:6B X:1F Y:00 P:3C SP:FB CYC:2216
C94B 38       SEC 			A:6B X:1F Y:00 P:34 SP:FB CYC:2218
C94C B8       CLV 			A:6B X:1F Y:00 P:35 SP:FB CYC:2220
C94D A9 7F    LDA #$7F			A:6B X:1F Y:00 P:35 SP:FB CYC:2222
C94F 69 7F    ADC #$7F			A:7F X:1F Y:00 P:35 SP:FB CYC:2224
C951 10 0B    BPL $C95E			A:FF X:1F Y:00 P:F4 SP:FB CYC:2226
C953 B0 09    BCS $C95E			A:FF X:1F Y:00 P:F4 SP:FB CYC:2229
C955 C9 FF    CMP #$FF			A:FF X:1F Y:00 P:F4 SP:FB CYC:2230
C957 D0 05    BNE $C95E			A:FF X:1F Y:00 P:F4 SP:FB CYC:2232
C95E A2 20    LDX #$20			A:FF X:1F Y:00 P:F4 SP:FB CYC:2235
C960 86 00    STX $00			A:FF X:20 Y:00 P:74 SP:FB CYC:2237
C962 EA       NOP 			A:FF X:20 Y:00 P:74 SP:FB CYC:2240
C963 18       CLC 			A:FF X:20 Y:00 P:74 SP:FB CYC:2242
C964 24 01    BIT $01			A:FF X:20 Y:00 P:74 SP:FB CYC:2244
C966 A9 7F    LDA #$7F			A:FF X:20 Y:00 P:F4 SP:FB CYC:2247
C968 69 80    ADC #$80			A:7F X:20 Y:00 P:74 SP:FB CYC:2249
C96A 10 0B    BPL $C977			A:FF X:20 Y:00 P:B4 SP:FB CYC:2251
C96C B0 09    BCS $C977			A:FF X:20 Y:00 P:B4 SP:FB CYC:2254
C96E C9 FF    CMP #$FF			A:FF X:20 Y:00 P:B4 SP:FB CYC:2255
C970 D0 05    BNE $C977			A:FF X:20 Y:00 P:B4 SP:FB CYC:2257
C977 A2 21    LDX #$21			A:FF X:20 Y:00 P:B4 SP:FB CYC:2260
C979 86 00    STX $00			A:FF X:21 Y:00 P:34 SP:FB CYC:2262
C97B EA       NOP 			A:FF X:21 Y:00 P:34 SP:FB CYC:2265
C97C 38       SEC 			A:FF X:21 Y:00 P:34 SP:FB CYC:2267
C97D B8       CLV 			A:FF X:21 Y:00 P:35 SP:FB CYC:2269
C97E A9 7F    LDA #$7F			A:FF X:21 Y:00 P:35 SP:FB CYC:2271
C980 69 80    ADC #$80			A:7F X:21 Y:00 P:35 SP:FB CYC:2273
C982 D0 09    BNE $C98D			A:00 X:21 Y:00 P:37 SP:FB CYC:2275
C984 30 07    BMI $C98D			A:00 X:21 Y:00 P:37 SP:FB CYC:2278
C986 70 05    BVS $C98D			A:00 X:21 Y:00 P:37 SP:FB CYC:2279
C988 90 03    BCC $C98D			A:00 X:21 Y:00 P:37 SP:FB CYC:2282
C98A 4C 91 C9 JMP $C991			A:00 X:21 Y:00 P:37 SP:FB CYC:2283
C991 EA       NOP 			A:00 X:21 Y:00 P:37 SP:FB CYC:2286
C992 38       SEC 			A:00 X:21 Y:00 P:37 SP:FB CYC:2288
C993 B8       CLV 			A:00 X:21 Y:00 P:37 SP:FB CYC:2290
C994 A9 9F    LDA #$9F			A:00 X:21 Y:00 P:37 SP:FB CYC:2292
C996 F0 09    BEQ $C9A1			A:9F X:21 Y:00 P:B5 SP:FB CYC:2294
C998 10 07    BPL $C9A1			A:9F X:21 Y:00 P:B5 SP:FB CYC:2297
C99A 70 05    BVS $C9A1			A:9F X:21 Y:00 P:B5 SP:FB CYC:2298
C99C 90 03    BCC $C9A1			A:9F X:21 Y:00 P:B5 SP:FB CYC:2301
C99E 4C A5 C9 JMP $C9A5			A:9F X:21 Y:00 P:B5 SP:FB CYC:2302
C9A5 EA       NOP 			A:9F X:21 Y:00 P:B5 SP:FB CYC:2305
C9A6 18       CLC 			A:9F X:21 Y:00 P:B5 SP:FB CYC:2307
C9A7 24 01    BIT $01			A:9F X:21 Y:00 P:B4 SP:FB CYC:2309
C9A9 A9 00    LDA #$00			A:9F X:21 Y:00 P:F4 SP:FB CYC:2312
C9AB D0 09    BNE $C9B6			A:00 X:21 Y:00 P:76 SP:FB CYC:2314
C9AD 30 07    BMI $C9B6			A:00 X:21 Y:00 P:76 SP:FB CYC:2317
C9AF 50 05    BVC $C9B6			A:00 X:21 Y:00 P:76 SP:FB CYC:2318
C9B1 B0 03    BCS $C9B6			A:00 X:21 Y:00 P:76 SP:FB CYC:2321
C9B3 4C BA C9 JMP $C9BA			A:00 X:21 Y:00 P:76 SP:FB CYC:2322
C9BA EA       NOP 			A:00 X:21 Y:00 P:76 SP:FB CYC:2325
C9BB 24 01    BIT $01			A:00 X:21 Y:00 P:76 SP:FB CYC:2327
C9BD A9 40    LDA #$40			A:00 X:21 Y:00 P:F6 SP:FB CYC:2330
C9BF C9 40    CMP #$40			A:40 X:21 Y:00 P:74 SP:FB CYC:2332
C9C1 30 09    BMI $C9CC			A:40 X:21 Y:00 P:F4 SP:FB CYC:2334
C9CC A2 24    LDX #$24			A:40 X:21 Y:00 P:F4 SP:FB CYC:2337
C9CE 86 00    STX $00			A:40 X:24 Y:00 P:74 SP:FB CYC:2339
C9D0 EA       NOP 			A:40 X:24 Y:00 P:74 SP:FB CYC:2342
C9D1 B8       CLV 			A:40 X:24 Y:00 P:74 SP:FB CYC:2344
C9D2 C9 3F    CMP #$3F			A:40 X:24 Y:00 P:34 SP:FB CYC:2346
C9D4 F0 09    BEQ $C9DF			A:40 X:24 Y:00 P:37 SP:FB CYC:2348
C9DF A2 25    LDX #$25			A:40 X:24 Y:00 P:37 SP:FB CYC:2351
C9E1 86 00    STX $00			A:40 X:25 Y:00 P:35 SP:FB CYC:2353
C9E3 EA       NOP 			A:40 X:25 Y:00 P:35 SP:FB CYC:2356
C9E4 C9 41    CMP #$41			A:40 X:25 Y:00 P:35 SP:FB CYC:2358
C9E6 F0 07    BEQ $C9EF			A:40 X:25 Y:00 P:B4 SP:FB CYC:2360
C9E8 10 05    BPL $C9EF			A:40 X:25 Y:00 P:B4 SP:FB CYC:2363
C9EA 10 03    BPL $C9EF			A:40 X:25 Y:00 P:B4 SP:FB CYC:2364
C9EC 4C F3 C9 JMP $C9F3			A:40 X:25 Y:00 P:B4 SP:FB CYC:2366
C9F3 EA       NOP 			A:40 X:25 Y:00 P:B4 SP:FB CYC:2369
C9F4 A9 80    LDA #$80			A:40 X:25 Y:00 P:B4 SP:FB CYC:2371
C9F6 C9 00    CMP #$00			A:80 X:25 Y:00 P:B4 SP:FB CYC:2373
C9F8 F0 07    BEQ $CA01			A:80 X:25 Y:00 P:35 SP:FB CYC:2375
C9FA 10 05    BPL $CA01			A:80 X:25 Y:00 P:35 SP:FB CYC:2377
C903 A9 70    LDA #$70			A:80 X:25 Y:00 P:35 SP:FB CYC:2380
C905 49 70    EOR #$70			A:70 X:25 Y:00 P:35 SP:FB CYC:2382
C907 D0 09    BNE $C912			A:00 X:25 Y:00 P:37 SP:FB CYC:2384
C909 70 07    BVS $C912			A:00 X:25 Y:00 P:37 SP:FB CYC:2387
C90B 90 05    BCC $C912			A:00 X:25 Y:00 P:37 SP:FB CYC:2388
C90D 30 03    BMI $C912			A:00 X:25 Y:00 P:37 SP:FB CYC:2391
C90F 4C 16 C9 JMP $C916			A:00 X:25 Y:00 P:37 SP:FB CYC:2392
C916 EA       NOP 			A:00 X:25 Y:00 P:37 SP:FB CYC:2395
C917 18       CLC 			A:00 X:25 Y:00 P:37 SP:FB CYC:2397
C918 24 01    BIT $01			A:00 X:25 Y:00 P:36 SP:FB CYC:2399
C91A A9 00    LDA #$00			A:00 X:25 Y:00 P:F6 SP:FB CYC:2402
C91C 69 69    ADC #$69			A:00 X:25 Y:00 P:76 SP:FB CYC:2404
C91E 30 0B    BMI $C92B			A:69 X:25 Y:00 P:34 SP:FB CYC:2406
C920 B0 09    BCS $C92B			A:69 X:25 Y:00 P:34 SP:FB CYC:2409
C922 C9 69    CMP #$69			A:69 X:25 Y:00 P:34 SP:FB CYC:2410
C924 D0 05    BNE $C92B			A:69 X:25 Y:00 P:B4 SP:FB CYC:2412
C92B A2 1E    LDX #$1E			A:69 X:25 Y:00 P:B4 SP:FB CYC:2415
C92D 86 00    STX $00			A:69 X:1E Y:00 P:34 SP:FB CYC:2417
C92F EA       NOP 			A:69 X:1E Y:00 P:34 SP:FB CYC:2420
C930 38       SEC 			A:69 X:1E Y:00 P:34 SP:FB CYC:2422
C931 F8       SED 			A:69 X:1E Y:00 P:35 SP:FB CYC:2424
C932 24 01    BIT $01			A:69 X:1E Y:00 P:3D SP:FB CYC:2426
C934 A9 01    LDA #$01			A:69 X:1E Y:00 P:FD SP:FB CYC:2429
C936 69 69    ADC #$69			A:01 X:1E Y:00 P:7D SP:FB CYC:2431
C938 30 0B    BMI $C945			A:6B X:1E Y:00 P:3C SP:FB CYC:2433
C93A B0 09    BCS $C945			A:6B X:1E Y:00 P:3C SP:FB CYC:2436
C93C C9 6B    CMP #$6B			A:6B X:1E Y:00 P:3C SP:FB CYC:2437
C93E D0 05    BNE $C945			A:6B X:1E Y:00 P:BC SP:FB CYC:2439
C945 A2 1F    LDX #$1F			A:6B X:1E Y:00 P:BC SP:FB CYC:2442
C947 86 00    STX $00			A:6B X:1F Y:00 P:3C SP:FB CYC:2444
C949 EA       NOP 			A:6B X:1F Y:00 P:3C SP:FB CYC:2447
C94A D8       CLD 			A:6B X:1F Y:00 P:3C SP:FB CYC:2449
C94B 38       SEC 			A:6B X:1F Y:00 P:34 SP:FB CYC:2451
C94C B8       CLV 			A:6B X:1F Y:00 P:35 SP:FB CYC:2453
C94D A9 7F    LDA #$7F			A:6B X:1F Y:00 P:35 SP:FB CYC:2455
C94F 69 7F    ADC #$7F			A:7F X:1F Y:00 P:35 SP:FB CYC:2457
C951 10 0B    BPL $C95E			A:FF X:1F Y:00 P:F4 SP:FB CYC:2459
C953 B0 09    BCS $C95E			A:FF X:1F Y:00 P:F4 SP:FB CYC:2462
C955 C9 FF    CMP #$FF			A:FF X:1F Y:00 P:F4 SP:FB CYC:2463
C957 D0 05    BNE $C95E			A:FF X:1F Y:00 P:F4 SP:FB CYC:2465
C95E A2 20    LDX #$20			A:FF X:1F Y:00 P:F4 SP:FB CYC:2468
C960 86 00    STX $00			A:FF X:20 Y:00 P:74 SP:FB CYC:2470
C962 EA       NOP 			A:FF X:20 Y:00 P:74 SP:FB CYC:2473
C963 18       CLC 			A:FF X:20 Y:00 P:74 SP:FB CYC:2475
C964 24 01    BIT $01			A:FF X:20 Y:00 P:74 SP:FB CYC:2477
C966 A9 7F    LDA #$7F			A:FF X:20 Y:00 P:F4 SP:FB CYC:2480
C968 69 80    ADC #$80			A:7F X:20 Y:00 P:74 SP:FB CYC:2482
C96A 10 0B    BPL $C977			A:FF X:20 Y:00 P:B4 SP:FB CYC:2484
C96C B0 09    BCS $C977			A:FF X:20 Y:00 P:B4 SP:FB CYC:2487
C96E C9 FF    CMP #$FF			A:FF X:20 Y:00 P:B4 SP:FB CYC:2488
C970 D0 05    BNE $C977			A:FF X:20 Y:00 P:B4 SP:FB CYC:2490
C977 A2 21    LDX #$21			A:FF X:20 Y:00 P:B4 SP:FB CYC:2493
C979 86 00    STX $00			A:FF X:21 Y:00 P:34 SP:FB CYC:2495
C97B EA       NOP 			A:FF X:21 Y:00 P:34 SP:FB CYC:2498
C97C 38       SEC 			A:FF X:21 Y:00 P:34 SP:FB CYC:2500
C97D B8       CLV 			A:FF X:21 Y:00 P:35 SP:FB CYC:2502
C97E A9 7F    LDA #$7F			A:FF X:21 Y:00 P:35 SP:FB CYC:2504
C980 69 80    ADC #$80			A:7F X:21 Y:00 P:35 SP:FB CYC:2506
C982 D0 09    BNE $C98D			A:00 X:21 Y:00 P:37 SP:FB CYC:2508
C984 30 07    BMI $C98D			A:00 X:21 Y:00 P:37 SP:FB CYC:2511
C986 70 05    BVS $C98D			A:00 X:21 Y:00 P:37 SP:FB CYC:2512
C988 90 03    BCC $C98D			A:00 X:21 Y:00 P:37 SP:FB CYC:2515
C98A 4C 91 C9 JMP $C991			A:00 X:21 Y:00 P:37 SP:FB CYC:2516
C991 EA       NOP 			A:00 X:21 Y:00 P:37 SP:FB CYC:2519
C992 38       SEC 			A:00 X:21 Y:00 P:37 SP:FB CYC:2521
C993 B8       CLV 			A:00 X:21 Y:00 P:37 SP:FB CYC:2523
C994 A9 9F    LDA #$9F			A:00 X:21 Y:00 P:37 SP:FB CYC:2525
C996 F0 09    BEQ $C9A1			A:9F X:21 Y:00 P:B5 SP:FB CYC:2527
C998 10 07    BPL $C9A1			A:9F X:21 Y:00 P:B5 SP:FB CYC:2530
C99A 70 05    BVS $C9A1			A:9F X:21 Y:00 P:B5 SP:FB CYC:2531
C99C 90 03    BCC $C9A1			A:9F X:21 Y:00 P:B5 SP:FB CYC:2534
C99E 4C A5 C9 JMP $C9A5			A:9F X:21 Y:00 P:B5 SP:FB CYC:2535
C9A5 EA       NOP 			A:9F X:21 Y:00 P:B5 SP:FB CYC:2538
C9A6 18       CLC 			A:9F X:21 Y:00 P:B5 SP:FB CYC:2540
C9A7 24 01    BIT $01			A:9F X:21 Y:00 P:B4 SP:FB CYC:2542
C9A9 A9 00    LDA #$00			A:9F X:21 Y:00 P:F4 SP:FB CYC:2545
C9AB D0 09    BNE $C9B6			A:00 X:21 Y:00 P:76 SP:FB CYC:2547
C9AD 30 07    BMI $C9B6			A:00 X:21 Y:00 P:76 SP:FB CYC:2550
C9AF 50 05    BVC $C9B6			A:00 X:21 Y:00 P:76 SP:FB CYC:2551
C9B1 B0 03    BCS $C9B6			A:00 X:21 Y:00 P:76 SP:FB CYC:2554
C9B3 4C BA C9 JMP $C9BA			A:00 X:21 Y:00 P:76 SP:FB CYC:2555
C9BA EA       NOP 			A:00 X:21 Y:00 P:76 SP:FB CYC:2558
C9BB 24 01    BIT $01			A:00 X:21 Y:00 P:76 SP:FB CYC:2560
C9BD A9 40    LDA #$40			A:00 X:21 Y:00 P:F6 SP:FB CYC:2563
C9BF C9 40    CMP #$40			A:40 X:21 Y:00 P:74 SP:FB CYC:2565
C9C1 30 09    BMI $C9CC			A:40 X:21 Y:00 P:F4 SP:FB CYC:2567
C9CC A2 24    LDX #$24			A:40 X:21 Y:00 P:F4 SP:FB CYC:2570
C9CE 86 00    STX $00			A:40 X:24 Y:00 P:74 SP:FB CYC:2572
C9D0 EA       NOP 			A:40 X:24 Y:00 P:74 SP:FB CYC:2575
C9D1 B8       CLV 			A:40 X:24 Y:00 P:74 SP:FB CYC:2577
C9D2 C9 3F    CMP #$3F			A:40 X:24 Y:00 P:34 SP:FB CYC:2579
C9D4 F0 09    BEQ $C9DF			A:40 X:24 Y:00 P:37 SP:FB CYC:2581
C9DF A2 25    LDX #$25			A:40 X:24 Y:00 P:37 SP:FB CYC:2584
C9E1 86 00    STX $00			A:40 X:25 Y:00 P:35 SP:FB CYC:2586
C9E3 EA       NOP 			A:40 X:25 Y:00 P:35 SP:FB CYC:2589
C9E4 C9 41    CMP #$41			A:40 X:25 Y:00 P:35 SP:FB CYC:2591
C9E6 F0 07    BEQ $C9EF			A:40 X:25 Y:00 P:B4 SP:FB CYC:2593
C9E8 10 05    BPL $C9EF			A:40 X:25 Y:00 P:B4 SP:FB CYC:2596
C9EA 10 03    BPL $C9EF			A:40 X:25 Y:00 P:B4 SP:FB CYC:2597
C9EC 4C F3 C9 JMP $C9F3			A:40 X:25 Y:00 P:B4 SP:FB CYC:2599
C9F3 EA       NOP 			A:40 X:25 Y:00 P:B4 SP:FB CYC:2602
C9F4 A9 80    LDA #$80			A:40 X:25 Y:00 P:B4 SP:FB CYC:2604
C9F6 C9 00    CMP #$00			A:80 X:25 Y:00 P:B4 SP:FB CYC:2606
C9F8 F0 07    BEQ $CA01			A:80 X:25 Y:00 P:35 SP:FB CYC:2608
C9FA 10 05    BPL $CA01			A:80 X:25 Y:00 P:35 SP:FB CYC:2610
C903 A9 70    LDA #$70			A:80 X:25 Y:00 P:35 SP:FB CYC:2613
C905 49 70    EOR #$70			A:70 X:25 Y:00 P:35 SP:FB CYC:2615
C907 D0 09    BNE $C912			A:00 X:25 Y:00 P:37 SP:FB CYC:2617
C909 70 07    BVS $C912			A:00 X:25 Y:00 P:37 SP:FB CYC:2620
C90B 90 05    BCC $C912			A:00 X:25 Y:00 P:37 SP:FB CYC:2621
C90D 30 03    BMI $C912			A:00 X:25 Y:00 P:37 SP:FB CYC:2624
C90F 4C 16 C9 JMP $C916			A:00 X:25 Y:00 P:37 SP:FB CYC:2625
C916 EA       NOP 			A:00 X:25 Y:00 P:37 SP:FB CYC:2628
C917 18       CLC 			A:00 X:25 Y:00 P:37 SP:FB CYC:2630
C918 24 01    BIT $01			A:00 X:25 Y:00 P:36 SP:FB CYC:2632
C91A A9 00    LDA #$00			A:00 X:25 Y:00 P:F6 SP:FB CYC:2635
C91C 69 69    ADC #$69			A:00 X:25 Y:00 P:76 SP:FB CYC:2637
C91E 30 0B    BMI $C92B			A:69 X:25 Y:00 P:34 SP:FB CYC:2639
C920 B0 09    BCS $C92B			A:69 X:25 Y:00 P:34 SP:FB CYC:2642
C922 C9 69    CMP #$69			A:69 X:25 Y:00 P:34 SP:FB CYC:2643
C924 D0 05    BNE $C92B			A:69 X:25 Y:00 P:B4 SP:FB CYC:2645
C92B A2 1E    LDX #$1E			A:69 X:25 Y:00 P:B4 SP:FB CYC:2648
C92D 86 00    STX $00			A:69 X:1E Y:00 P:34 SP:FB CYC:2650
C92F EA       NOP 			A:69 X:1E Y:00 P:34 SP:FB CYC:2653
C930 38       SEC 			A:69 X:1E Y:00 P:34 SP:FB CYC:2655
C931 F8       SED 			A:69 X:1E Y:00 P:35 SP:FB CYC:2657
C932 24 01    BIT $01			A:69 X:1E Y:00 P:3D SP:FB CYC:2659
C934 A9 01    LDA #$01			A:69 X:1E Y:00 P:FD SP:FB CYC:2662
C936 69 69    ADC #$69			A:01 X:1E Y:00 P:7D SP:FB CYC:2664
C938 30 0B    BMI $C945			A:6B X:1E Y:00 P:3C SP:FB CYC:2666
C93A B0 09    BCS $C945			A:6B X:1E Y:00 P:3C SP:FB CYC:2669
C93C C9 6B    CMP #$6B			A:6B X:1E Y:00 P:3C SP:FB CYC:2670
C93E D0 05    BNE $C945			A:6B X:1E Y:00 P:BC SP:FB CYC:2672
C945 A2 1F    LDX #$1F			A:6B X:1E Y:00 P:BC SP:FB CYC:2675
C947 86 00    STX $00			A:6B X:1F Y:00 P:3C SP:FB CYC:2677
C949 EA       NOP 			A:6B X:1F Y:00 P:3C SP:FB CYC:2680
C94A D8       CLD 			A:6B X:1F Y:00 P:3C SP:FB CYC:2682
C94B 38       SEC 			A:6B X:1F Y:00 P:34 SP:FB CYC:2684
C94C B8       CLV 			A:6B X:1F Y:00 P:35 SP:FB CYC:2686
C94D A9 7F    LDA #$7F			A:6B X:1F Y:00 P:35 SP:FB CYC:2688
C94F 69 7F    ADC #$7F			A:7F X:1F Y:00 P:35 SP:FB CYC:2690
C951 10 0B    BPL $C95E			A:FF X:1F Y:00 P:F4 SP:FB CYC:2692
C953 B0 09    BCS $C95E			A:FF X:1F Y:00 P:F4 SP:FB CYC:2695
C955 C9 FF    CMP #$FF			A:FF X:1F Y:00 P:F4 SP:FB CYC:2696
C957 D0 05    BNE $C95E			A:FF X:1F Y:00 P:F4 SP:FB CYC:2698
C95E A2 20    LDX #$20			A:FF X:1F Y:00 P:F4 SP:FB CYC:2701
C960 86 00    STX $00			A:FF X:20 Y:00 P:74 SP:FB CYC:2703
C962 EA       NOP 			A:FF X:20 Y:00 P:74 SP:FB CYC:2706
C963 18       CLC 			A:FF X:20 Y:00 P:74 SP:FB CYC:2708
C964 24 01    BIT $01			A:FF X:20 Y:00 P:74 SP:FB CYC:2710
C966 A9 7F    LDA #$7F			A:FF X:20 Y:00 P:F4 SP:FB CYC:2713
C968 69 80    ADC #$80			A:7F X:20 Y:00 P:74 SP:FB CYC:2715
C96A 10 0B    BPL $C977			A:FF X:20 Y:00 P:B4 SP:FB CYC:2717
C96C B0 09    BCS $C977			A:FF X:20 Y:00 P:B4 SP:FB CYC:2720
C96E C9 FF    CMP #$FF			A:FF X:20 Y:00 P:B4 SP:FB CYC:2721
C970 D0 05    BNE $C977			A:FF X:20 Y:00 P:B4 SP:FB CYC:2723
C977 A2 21    LDX #$21			A:FF X:20 Y:00 P:B4 SP:FB CYC:2726
C979 86 00    STX $00			A:FF X:21 Y:00 P:34 SP:FB CYC:2728
C97B EA       NOP 			A:FF X:21 Y:00 P:34 SP:FB CYC:2731
C97C 38       SEC 			A:FF X:21 Y:00 P:34 SP:FB CYC:2733
C97D B8       CLV 			A:FF X:21 Y:00 P:35 SP:FB CYC:2735
C97E A9 7F    LDA #$7F			A:FF X:21 Y:00 P:35 SP:FB CYC:2737
C980 69 80    ADC #$80			A:7F X:21 Y:00 P:35 SP:FB CYC:2739
C982 D0 09    BNE $C98D			A:00 X:21 Y:00 P:37 SP:FB CYC:2741
C984 30 07    BMI $C98D			A:00 X:21 Y:00 P:37 SP:FB CYC:2744
C986 70 05    BVS $C98D			A:00 X:21 Y:00 P:37 SP:FB CYC:2745
C988 90 03    BCC $C98D			A:00 X:21 Y:00 P:37 SP:FB CYC:2748
C98A 4C 91 C9 JMP $C991			A:00 X:21 Y:00 P:37 SP:FB CYC:2749
C991 EA       NOP 			A:00 X:21 Y:00 P:37 SP:FB CYC:2752
C992 38       SEC 			A:00 X:21 Y:00 P:37 SP:FB CYC:2754
C993 B8       CLV 			A:00 X:21 Y:00 P:37 SP:FB CYC:2756
C994 A9 9F    LDA #$9F			A:00 X:21 Y:00 P:37 SP:FB CYC:2758
C996 F0 09    BEQ $C9A1			A:9F X:21 Y:00 P:B5 SP:FB CYC:2760
C998 10 07    BPL $C9A1			A:9F X:21 Y:00 P:B5 SP:FB CYC:2763
C99A 70 05    BVS $C9A1			A:9F X:21 Y:00 P:B5 SP:FB CYC:2764
C99C 90 03    BCC $C9A1			A:9F X:21 Y:00 P:B5 SP:FB CYC:2767
C99E 4C A5 C9 JMP $C9A5			A:9F X:21 Y:00 P:B5 SP:FB CYC:2768
C9A5 EA       NOP 			A:9F X:21 Y:00 P:B5 SP:FB CYC:2771
C9A6 18       CLC 			A:9F X:21 Y:00 P:B5 SP:FB CYC:2773
C9A7 24 01    BIT $01			A:9F X:21 Y:00 P:B4 SP:FB CYC:2775
C9A9 A9 00    LDA #$00			A:9F X:21 Y:00 P:F4 SP:FB CYC:2778
C9AB D0 09    BNE $C9B6			A:00 X:21 Y:00 P:76 SP:FB CYC:2780
C9AD 30 07    BMI $C9B6			A:00 X:21 Y:00 P:76 SP:FB CYC:2783
C9AF 50 05    BVC $C9B6			A:00 X:21 Y:00 P:76 SP:FB CYC:2784
C9B1 B0 03    BCS $C9B6			A:00 X:21 Y:00 P:76 SP:FB CYC:2787
C9B3 4C BA C9 JMP $C9BA			A:00 X:21 Y:00 P:76 SP:FB CYC:2788
C9BA EA       NOP 			A:00 X:21 Y:00 P:76 SP:FB CYC:2791
C9BB 24 01    BIT $01			A:00 X:21 Y:00 P:76 SP:FB CYC:2793
C9BD A9 40    LDA #$40			A:00 X:21 Y:00 P:F6 SP:FB CYC:2796
C9BF C9 40    CMP #$40			A:40 X:21 Y:00 P:74 SP:FB CYC:2798
C9C1 30 09    BMI $C9CC			A:40 X:21 Y:00 P:F4 SP:FB CYC:2800
C9CC A2 24    LDX #$24			A:40 X:21 Y:00 P:F4 SP:FB CYC:2803
C9CE 86 00    STX $00			A:40 X:24 Y:00 P:74 SP:FB CYC:2805
C9D0 EA       NOP 			A:40 X:24 Y:00 P:74 SP:FB CYC:2808
C9D1 B8       CLV 			A:40 X:24 Y:00 P:74 SP:FB CYC:2810
C9D2 C9 3F    CMP #$3F			A:40 X:24 Y:00 P:34 SP:FB CYC:2812
C9D4 F0 09    BEQ $C9DF			A:40 X:24 Y:00 P:37 SP:FB CYC:2814
C9DF A2 25    LDX #$25			A:40 X:24 Y:00 P:37 SP:FB CYC:2817
C9E1 86 00    STX $00			A:40 X:25 Y:00 P:35 SP:FB CYC:2819
C9E3 EA       NOP 			A:40 X:25 Y:00 P:35 SP:FB CYC:2822
C9E4 C9 41    CMP #$41			A:40 X:25 Y:00 P:35 SP:FB CYC:2824
C9E6 F0 07    BEQ $C9EF			A:40 X:25 Y:00 P:B4 SP:FB CYC:2826
C9E8 10 05    BPL $C9EF			A:40 X:25 Y:00 P:B4 SP:FB CYC:2829
C9EA 10 03    BPL $C9EF			A:40 X:25 Y:00 P:B4 SP:FB CYC:2830
C9EC 4C F3 C9 JMP $C9F3			A:40 X:25 Y:00 P:B4 SP:FB CYC:2832
C9F3 EA       NOP 			A:40 X:25 Y:00 P:B4 SP:FB CYC:2835
C9F4 A9 80    LDA #$80			A:40 X:25 Y:00 P:B4 SP:FB CYC:2837
C9F6 C9 00    CMP #$00			A:80 X:25 Y:00 P:B4 SP:FB CYC:2839
C9F8 F0 07    BEQ $CA01			A:80 X:25 Y:00 P:35 SP:FB CYC:2841
C9FA 10 05    BPL $CA01			A:80 X:25 Y:00 P:35 SP:FB CYC:2843
C903 A9 70    LDA #$70			A:80 X:25 Y:00 P:35 SP:FB CYC:2846
C905 49 70    EOR #$70			A:70 X:25 Y:00 P:35 SP:FB CYC:2848
C907 D0 09    BNE $C912			A:00 X:25 Y:00 P:37 SP:FB CYC:2850
C909 70 07    BVS $C912			A:00 X:25 Y:00 P:37 SP:FB CYC:2853
C90B 90 05    BCC $C912			A:00 X:25 Y:00 P:37 SP:FB CYC:2854
C90D 30 03    BMI $C912			A:00 X:25 Y:00 P:37 SP:FB CYC:2857
C90F 4C 16 C9 JMP $C916			A:00 X:25 Y:00 P:37 SP:FB CYC:2858
C916 EA       NOP 			A:00 X:25 Y:00 P:37 SP:FB CYC:2861
C917 18       CLC 			A:00 X:25 Y:00 P:37 SP:FB CYC:2863
C918 24 01    BIT $01			A:00 X:25 Y:00 P:36 SP:FB CYC:2865
C91A A9 00    LDA #$00			A:00 X:25 Y:00 P:F6 SP:FB CYC:2868
C91C 69 69    ADC #$69			A:00 X:25 Y:00 P:76 SP:FB CYC:2870
C91E 30 0B    BMI $C92B			A:69 X:25 Y:00 P:34 SP:FB CYC:2872
C920 B0 09    BCS $C92B			A:69 X:25 Y:00 P:34 SP:FB CYC:2875
C922 C9 69    CMP #$69			A:69 X:25 Y:00 P:34 SP:FB CYC:2876
C924 D0 05    BNE $C92B			A:69 X:25 Y:00 P:B4 SP:FB CYC:2878
C92B A2 1E    LDX #$1E			A:69 X:25 Y:00 P:B4 SP:FB CYC:2881
C92D 86 00    STX $00			A:69 X:1E Y:00 P:34 SP:FB CYC:2883
C92F EA       NOP 			A:69 X:1E Y:00 P:34 SP:FB CYC:2886
C930 38       SEC 			A:69 X:1E Y:00 P:34 SP:FB CYC:2888
C931 F8       SED 			A:69 X:1E Y:00 P:35 SP:FB CYC:2890
C932 24 01    BIT $01			A:69 X:1E Y:00 P:3D SP:FB CYC:2892
C934 A9 01    LDA #$01			A:69 X:1E Y:00 P:FD SP:FB CYC:2895
C936 69 69    ADC #$69			A:01 X:1E Y:00 P:7D SP:FB CYC:2897
C938 30 0B    BMI $C945			A:6B X:1E Y:00 P:3C SP:FB CYC:2899
C93A B0 09    BCS $C945			A:6B X:1E Y:00 P:3C SP:FB CYC:2902
C93C C9 6B    CMP #$6B			A:6B X:1E Y:00 P:3C SP:FB CYC:2903
C93E D0 05    BNE $C945			A:6B X:1E Y:00 P:BC SP:FB CYC:2905
C945 A2 1F    LDX #$1F			A:6B X:1E Y:00 P:BC SP:FB CYC:2908
C947 86 00    STX $00			A:6B X:1F Y:00 P:3C SP:FB CYC:2910
C949 EA       NOP 			A:6B X:1F Y:00 P:3C SP:FB CYC:2913
C94A D8       CLD 			A:6B X:1F Y:00 P:3C SP:FB CYC:2915
C94B 38       SEC 			A:6B X:1F Y:00 P:34 SP:FB CYC:2917
C94C B8       CLV 			A:6B X:1F Y:00 P:35 SP:FB CYC:2919
C94D A9 7F    LDA #$7F			A:6B X:1F Y:00 P:35 SP:FB CYC:2921
C94F 69 7F    ADC #$7F			A:7F X:1F Y:00 P:35 SP:FB CYC:2923
C951 10 0B    BPL $C95E			A:FF X:1F Y:00 P:F4 SP:FB CYC:2925
C953 B0 09    BCS $C95E			A:FF X:1F Y:00 P:F4 SP:FB CYC:2928
C955 C9 FF    CMP #$FF			A:FF X:1F Y:00 P:F4 SP:FB CYC:2929
C957 D0 05    BNE $C95E			A:FF X:1F Y:00 P:F4 SP:FB CYC:2931
C95E A2 20    LDX #$20			A:FF X:1F Y:00 P:F4 SP:FB CYC:2934
C960 86 00    STX $00			A:FF X:20 Y:00 P:74 SP:FB CYC:2936
C962 EA       NOP 			A:FF X:20 Y:00 P:74 SP:FB CYC:2939
C963 18       CLC 			A:FF X:20 Y:00 P:74 SP:FB CYC:2941
C964 24 01    BIT $01			A:FF X:20 Y:00 P:74 SP:FB CYC:2943
C966 A9 7F    LDA #$7F			A:FF X:20 Y:00 P:F4 SP:FB CYC:2946
C968 69 80    ADC #$80			A:7F X:20 Y:00 P:74 SP:FB CYC:2948
C96A 10 0B    BPL $C977			A:FF X:20 Y:00 P:B4 SP:FB CYC:2950
C96C B0 09    BCS $C977			A:FF X:20 Y:00 P:B4 SP:FB CYC:2953
C96E C9 FF    CMP #$FF			A:FF X:20 Y:00 P:B4 SP:FB CYC:2954
C970 D0 05    BNE $C977			A:FF X:20 Y:00 P:B4 SP:FB CYC:2956
C977 A2 21    LDX #$21			A:FF X:20 Y:00 P:B4 SP:FB CYC:2959
C979 86 00    STX $00			A:FF X:21 Y:00 P:34 SP:FB CYC:2961
C97B EA       NOP 			A:FF X:21 Y:00 P:34 SP:FB CYC:2964
C97C 38       SEC 			A:FF X:21 Y:00 P:34 SP:FB CYC:2966
C97D B8       CLV 			A:FF X:21 Y:00 P:35 SP:FB CYC:2968
C97E A9 7F    LDA #$7F			A:FF X:21 Y:00 P:35 SP:FB CYC:2970
C980 69 80    ADC #$80			A:7F X:21 Y:00 P:35 SP:FB CYC:2972
C982 D0 09    BNE $C98D			A:00 X:21 Y:00 P:37 SP:FB CYC:2974
C984 30 07    BMI $C98D			A:00 X:21 Y:00 P:37 SP:FB CYC:2977
C986 70 05    BVS $C98D			A:00 X:21 Y:00 P:37 SP:FB CYC:2978
C988 90 03    BCC $C98D			A:00 X:21 Y:00 P:37 SP:FB CYC:2981
C98A 4C 91 C9 JMP $C991			A:00 X:21 Y:00 P:37 SP:FB CYC:2982
C991 EA       NOP 			A:00 X:21 Y:00 P:37 SP:FB CYC:2985
C992 38       SEC 			A:00 X:21 Y:00 P:37 SP:FB CYC:2987
C993 B8       CLV 			A:00 X:21 Y:00 P:37 SP:FB CYC:2989
C994 A9 9F    LDA #$9F			A:00 X:21 Y:00 P:37 SP:FB CYC:2991
C996 F0 09    BEQ $C9A1			A:9F X:21 Y:00 P:B5 SP:FB CYC:2993
C998 10 07    BPL $C9A1			A:9F X:21 Y:00 P:B5 SP:FB CYC:2996
C99A 70 05    BVS $C9A1			A:9F X:21 Y:00 P:B5 SP:FB CYC:2997
C99C 90 03    BCC $C9A1			A:9F X:21 Y:00 P:B5 SP:FB CYC:3000
C99E 4C A5 C9 JMP $C9A5			A:9F X:21 Y:00 P:B5 SP:FB CYC:3001
C9A5 EA       NOP 			A:9F X:21 Y:00 P:B5 SP:FB CYC:3004
C9A6 18       CLC 			A:9F X:21 Y:00 P:B5 SP:FB CYC:3006
C9A7 24 01    BIT $01			A:9F X:21 Y:00 P:B4 SP:FB CYC:3008
C9A9 A9 00    LDA #$00			A:9F X:21 Y:00 P:F4 SP:FB CYC:3011
C9AB D0 09    BNE $C9B6			A:00 X:21 Y:00 P:76 SP:FB CYC:3013
C9AD 30 07    BMI $C9B6			A:00 X:21 Y:00 P:76 SP:FB CYC:3016
C9AF 50 05    BVC $C9B6			A:00 X:21 Y:00 P:76 SP:FB CYC:3017
C9B1 B0 03    BCS $C9B6			A:00 X:21 Y:00 P:76 SP:FB CYC:3020
C9B3 4C BA C9 JMP $C9BA			A:00 X:21 Y:00 P:76 SP:FB CYC:3021
C9BA EA       NOP 			A:00 X:21 Y:00 P:76 SP:FB CYC:3024
C9BB 24 01    BIT $01			A:00 X:21 Y:00 P:76 SP:FB CYC:3026
C9BD A9 40    LDA #$40			A:00 X:21 Y:00 P:F6 SP:FB CYC:3029
C9BF C9 40    CMP #$40			A:40 X:21 Y:00 P:74 SP:FB CYC:3031
C9C1 30 09    BMI $C9CC			A:40 X:21 Y:00 P:F4 SP:FB CYC:3033
C9CC A2 24    LDX #$24			A:40 X:21 Y:00 P:F4 SP:FB CYC:3036
C9CE 86 00    STX $00			A:40 X:24 Y:00 P:74 SP:FB CYC:3038
C9D0 EA       NOP 			A:40 X:24 Y:00 P:74 SP:FB CYC:3041
C9D1 B8       CLV 			A:40 X:24 Y:00 P:74 SP:FB CYC:3043
C9D2 C9 3F    CMP #$3F			A:40 X:24 Y:00 P:34 SP:FB CYC:3045
C9D4 F0 09    BEQ $C9DF			A:40 X:24 Y:00 P:37 SP:FB CYC:3047
C9DF A2 25    LDX #$25			A:40 X:24 Y:00 P:37 SP:FB CYC:3050
C9E1 86 00    STX $00			A:40 X:25 Y:00 P:35 SP:FB CYC:3052
C9E3 EA       NOP 			A:40 X:25 Y:00 P:35 SP:FB CYC:3055
C9E4 C9 41    CMP #$41			A:40 X:25 Y:00 P:35 SP:FB CYC:3057
C9E6 F0 07    BEQ $C9EF			A:40 X:25 Y:00 P:B4 SP:FB CYC:3059
C9E8 10 05    BPL $C9EF			A:40 X:25 Y:00 P:B4 SP:FB CYC:3062
C9EA 10 03    BPL $C9EF			A:40 X:25 Y:00 P:B4 SP:FB CYC:3063
C9EC 4C F3 C9 JMP $C9F3			A:40 X:25 Y:00 P:B4 SP:FB CYC:3065
C9F3 EA       NOP 			A:40 X:25 Y:00 P:B4 SP:FB CYC:3068
C9F4 A9 80    LDA #$80			A:40 X:25 Y:00 P:B4 SP:FB CYC:3070
C9F6 C9 00    CMP #$00			A:80 X:25 Y:00 P:B4 SP:FB CYC:3072
C9F8 F0 07    BEQ $CA01			A:80 X:25 Y:00 P:35 SP:FB CYC:3074
C9FA 10 05    BPL $CA01			A:80 X:25 Y:00 P:35 SP:FB CYC:3076
C903 A9 70    LDA #$70			A:80 X:25 Y:00 P:35 SP:FB CYC:3079
C905 49 70    EOR #$70			A:70 X:25 Y:00 P:35 SP:FB CYC:3081
C907 D0 09    BNE $C912			A:00 X:25 Y:00 P:37 SP:FB CYC:3083
C909 70 07    BVS $C912			A:00 X:25 Y:00 P:37 SP:FB CYC:3086
C90B 90 05    BCC $C912			A:00 X:25 Y:00 P:37 SP:FB CYC:3087
C90D 30 03    BMI $C912			A:00 X:25 Y:00 P:37 SP:FB CYC:3090
C90F 4C 16 C9 JMP $C916			A:00 X:25 Y:00 P:37 SP:FB CYC:3091
C916 EA       NOP 			A:00 X:25 Y:00 P:37 SP:FB CYC:3094
C917 18       CLC 			A:00 X:25 Y:00 P:37 SP:FB CYC:3096
C918 24 01    BIT $01			A:00 X:25 Y:00 P:36 SP:FB CYC:3098
C91A A9 00    LDA #$00			A:00 X:25 Y:00 P:F6 SP:FB CYC:3101
C91C 69 69    ADC #$69			A:00 X:25 Y:00 P:76 SP:FB CYC:3103
C91E 30 0B    BMI $C92B			A:69 X:25 Y:00 P:34 SP:FB CYC:3105
C920 B0 09    BCS $C92B			A:69 X:25 Y:00 P:34 SP:FB CYC:3108
C922 C9 69    CMP #$69			A:69 X:25 Y:00 P:34 SP:FB CYC:3109
C924 D0 05    BNE $C92B			A:69 X:25 Y:00 P:B4 SP:FB CYC:3111
C92B A2 1E    LDX #$1E			A:69 X:25 Y:00 P:B4 SP:FB CYC:3114
C92D 86 00    STX $00			A:69 X:1E Y:00 P:34 SP:FB CYC:3116
C92F EA       NOP 			A:69 X:1E Y:00 P:34 SP:FB CYC:3119
C930 38       SEC 			A:69 X:1E Y:00 P:34 SP:FB CYC:3121
C931 F8       SED 			A:69 X:1E Y:00 P:35 SP:FB CYC:3123
C932 24 01    BIT $01			A:69 X:1E Y:00 P:3D SP:FB CYC:3125
C934 A9 01    LDA #$01			A:69 X:1E Y:00 P:FD SP:FB CYC:3128
C936 69 69    ADC #$69			A:01 X:1E Y:00 P:7D SP:FB CYC:3130
C938 30 0B    BMI $C945			A:6B X:1E Y:00 P:3C SP:FB CYC:3132
C93A B0 09    BCS $C945			A:6B X:1E Y:00 P:3C SP:FB CYC:3135
C93C C9 6B    CMP #$6B			A:6B X:1E Y:00 P:3C SP:FB CYC:3136
C93E D0 05    BNE $C945			A:6B X:1E Y:00 P:BC SP:FB CYC:3138
C945 A2 1F    LDX #$1F			A:6B X:1E Y:00 P:BC SP:FB CYC:3141
C947 86 00    STX $00			A:6B X:1F Y:00 P:3C SP:FB CYC:3143
C949 EA       NOP 			A:6B X:1F Y:00 P:3C SP:FB CYC:3146
C94A D8       CLD 			A:6B X:1F Y:00 P:3C SP:FB CYC:3148
C94B 38       SEC 			A:6B X:1F Y:00 P:34 SP:FB CYC:3150
C94C B8       CLV 			A:6B X:1F Y:00 P:35 SP:FB CYC:3152
C94D A9 7F    LDA #$7F			A:6B X:1F Y:00 P:35 SP:FB CYC:3154
C94F 69 7F    ADC #$7F			A:7F X:1F Y:00 P:35 SP:FB CYC:3156
C951 10 0B    BPL $C95E			A:FF X:1F Y:00 P:F4 SP:FB CYC:3158
C953 B0 09    BCS $C95E			A:FF X:1F Y:00 P:F4 SP:FB CYC:3161
C955 C9 FF    CMP #$FF			A:FF X:1F Y:00 P:F4 SP:FB CYC:3162
C957 D0 05    BNE $C95E			A:FF X:1F Y:00 P:F4 SP:FB CYC:3164
C95E A2 20    LDX #$20			A:FF X:1F Y:00 P:F4 SP:FB CYC:3167
C960 86 00    STX $00			A:FF X:20 Y:00 P:74 SP:FB CYC:3169
C962 EA       NOP 			A:FF X:20 Y:00 P:74 SP:FB CYC:3172
C963 18       CLC 			A:FF X:20 Y:00 P:74 SP:FB CYC:3174
C964 24 01    BIT $01			A:FF X:20 Y:00 P:74 SP:FB CYC:3176
C966 A9 7F    LDA #$7F			A:FF X:20 Y:00 P:F4 SP:FB CYC:3179
C968 69 80    ADC #$80			A:7F X:20 Y:00 P:74 SP:FB CYC:3181
C96A 10 0B    BPL $C977			A:FF X:20 Y:00 P:B4 SP:FB CYC:3183
C96C B0 09    BCS $C977			A:FF X:20 Y:00 P:B4 SP:FB CYC:3186
C96E C9 FF    CMP #$FF			A:FF X:20 Y:00 P:B4 SP:FB CYC:3187
C970 D0 05    BNE $C977			A:FF X:20 Y:00 P:B4 SP:FB CYC:3189
C977 A2 21    LDX #$21			A:FF X:20 Y:00 P:B4 SP:FB CYC:3192
C979 86 00    STX $00			A:FF X:21 Y:00 P:34 SP:FB CYC:3194
C97B EA       NOP 			A:FF X:21 Y:00 P:34 SP:FB CYC:3197
C97C 38       SEC 			A:FF X:21 Y:00 P:34 SP:FB CYC:3199
C97D B8       CLV 			A:FF X:21 Y:00 P:35 SP:FB CYC:3201
C97E A9 7F    LDA #$7F			A:FF X:21 Y:00 P:35 SP:FB CYC:3203
C980 69 80    ADC #$80			A:7F X:21 Y:00 P:35 SP:FB CYC:3205
C982 D0 09    BNE $C98D			A:00 X:21 Y:00 P:37 SP:FB CYC:3207
C984 30 07    BMI $C98D			A:00 X:21 Y:00 P:37 SP:FB CYC:3210
C986 70 05    BVS $C98D			A:00 X:21 Y:00 P:37 SP:FB CYC:3211
C988 90 03    BCC $C98D			A:00 X:21 Y:00 P:37 SP:FB CYC:3214
C98A 4C 91 C9 JMP $C991			A:00 X:21 Y:00 P:37 SP:FB CYC:3215
C991 EA       NOP 			A:00 X:21 Y:00 P:37 SP:FB CYC:3218
C992 38       SEC 			A:00 X:21 Y:00 P:37 SP:FB CYC:3220
C993 B8       CLV 			A:00 X:21 Y:00 P:37 SP:FB CYC:3222
C994 A9 9F    LDA #$9F			A:00 X:21 Y:00 P:37 SP:FB CYC:3224
C996 F0 09    BEQ $C9A1			A:9F X:21 Y:00 P:B5 SP:FB CYC:3226
C998 10 07    BPL $C9A1			A:9F X:21 Y:00 P:B5 SP:FB CYC:3229
C99A 70 05    BVS $C9A1			A:9F X:21 Y:00 P:B5 SP:FB CYC:3230
C99C 90 03    BCC $C9A1			A:9F X:21 Y:00 P:B5 SP:FB CYC:3233
C99E 4C A5 C9 JMP $C9A5			A:9F X:21 Y:00 P:B5 SP:FB CYC:3234
C9A5 EA       NOP 			A:9F X:21 Y:00 P:B5 SP:FB CYC:3237
C9A6 18       CLC 			A:9F X:21 Y:00 P:B5 SP:FB CYC:3239
C9A7 24 01    BIT $01			A:9F X:21 Y:00 P:B4 SP:FB CYC:3241
C9A9 A9 00    LDA #$00			A:9F X:21 Y:00 P:F4 SP:FB CYC:3244
C9AB D0 09    BNE $C9B6			A:00 X:21 Y:00 P:76 SP:FB CYC:3246
C9AD 30 07    BMI $C9B6			A:00 X:21 Y:00 P:76 SP:FB CYC:3249
C9AF 50 05    BVC $C9B6			A:00 X:21 Y:00 P:76 SP:FB CYC:3250
C9B1 B0 03    BCS $C9B6			A:00 X:21 Y:00 P:76 SP:FB CYC:3253
C9B3 4C BA C9 JMP $C9BA			A:00 X:21 Y:00 P:76 SP:FB CYC:3254
C9BA EA       NOP 			A:00 X:21 Y:00 P:76 SP:FB CYC:3257
C9BB 24 01    BIT $01			A:00 X:21 Y:00 P:76 SP:FB CYC:3259
C9BD A9 40    LDA #$40			A:00 X:21 Y:00 P:F6 SP:FB CYC:3262
C9BF C9 40    CMP #$40			A:40 X:21 Y:00 P:74 SP:FB CYC:3264
C9C1 30 09    BMI $C9CC			A:40 X:21 Y:00 P:F4 SP:FB CYC:3266
C9CC A2 24    LDX #$24			A:40 X:21 Y:00 P:F4 SP:FB CYC:3269
C9CE 86 00    STX $00			A:40 X:24 Y:00 P:74 SP:FB CYC:3271
C9D0 EA       NOP 			A:40 X:24 Y:00 P:74 SP:FB CYC:3274
C9D1 B8       CLV 			A:40 X:24 Y:00 P:74 SP:FB CYC:3276
C9D2 C9 3F    CMP #$3F			A:40 X:24 Y:00 P:34 SP:FB CYC:3278
C9D4 F0 09    BEQ $C9DF			A:40 X:24 Y:00 P:37 SP:FB CYC:3280
C9DF A2 25    LDX #$25			A:40 X:24 Y:00 P:37 SP:FB CYC:3283
C9E1 86 00    STX $00			A:40 X:25 Y:00 P:35 SP:FB CYC:3285
C9E3 EA       NOP 			A:40 X:25 Y:00 P:35 SP:FB CYC:3288
C9E4 C9 41    CMP #$41			A:40 X:25 Y:00 P:35 SP:FB CYC:3290
C9E6 F0 07    BEQ $C9EF			A:40 X:25 Y:00 P:B4 SP:FB CYC:3292
C9E8 10 05    BPL $C9EF			A:40 X:25 Y:00 P:B4 SP:FB CYC:3295
C9EA 10 03    BPL $C9EF			A:40 X:25 Y:00 P:B4 SP:FB CYC:3296
C9EC 4C F3 C9 JMP $C9F3			A:40 X:25 Y:00 P:B4 SP:FB CYC:3298
C9F3 EA       NOP 			A:40 X:25 Y:00 P:B4 SP:FB CYC:3301
C9F4 A9 80    LDA #$80			A:40 X:25 Y:00 P:B4 SP:FB CYC:3303
C9F6 C9 00    CMP #$00			A:80 X:25 Y:00 P:B4 SP:FB CYC:3305
C9F8 F0 07    BEQ $CA01			A:80 X:25 Y:00 P:35 SP:FB CYC:3307
C9FA 10 05    BPL $CA01			A:80 X:25 Y:00 P:35 SP:FB CYC:3309
C903 A9 70    LDA #$70			A:80 X:25 Y:00 P:35 SP:FB CYC:3312
C905 49 70    EOR #$70			A:70 X:25 Y:00 P:35 SP:FB CYC:3314
C907 D0 09    BNE $C912			A:00 X:25 Y:00 P:37 SP:FB CYC:3316
C909 70 07    BVS $C912			A:00 X:25 Y:00 P:37 SP:FB CYC:3319
C90B 90 05    BCC $C912			A:00 X:25 Y:00 P:37 SP:FB CYC:3320
C90D 30 03    BMI $C912			A:00 X:25 Y:00 P:37 SP:FB CYC:3323
C90F 4C 16 C9 JMP $C916			A:00 X:25 Y:00 P:37 SP:FB CYC:3324
C916 EA       NOP 			A:00 X:25 Y:00 P:37 SP:FB CYC:3327
C917 18       CLC 			A:00 X:25 Y:00 P:37 SP:FB CYC:3329
C918 24 01    BIT $01			A:00 X:25 Y:00 P:36 SP:FB CYC:3331
C91A A9 00    LDA #$00			A:00 X:25 Y:00 P:F6 SP:FB CYC:3334
C91C 69 69    ADC #$69			A:00 X:25 Y:00 P:76 SP:FB CYC:3336
C91E 30 0B    BMI $C92B			A:69 X:25 Y:00 P:34 SP:FB CYC:3338
C920 B0 09    BCS $C92B			A:69 X:25 Y:00 P:34 SP:FB CYC:3341
C922 C9 69    CMP #$69			A:69 X:25 Y:00 P:34 SP:FB CYC:3342
C924 D0 05    BNE $C92B			A:69 X:25 Y:00 P:B4 SP:FB CYC:3344
C92B A2 1E    LDX #$1E			A:69 X:25 Y:00 P:B4 SP:FB CYC:3347
C92D 86 00    STX $00			A:69 X:1E Y:00 P:34 SP:FB CYC:3349
C92F EA       NOP 			A:69 X:1E Y:00 P:34 SP:FB CYC:3352
C930 38       SEC 			A:69 X:1E Y:00 P:34 SP:FB CYC:3354
C931 F8       SED 			A:69 X:1E Y:00 P:35 SP:FB CYC:3356
C932 24 01    BIT $01			A:69 X:1E Y:00 P:3D SP:FB CYC:3358
C934 A9 01    LDA #$01			A:69 X:1E Y:00 P:FD SP:FB CYC:3361
C936 69 69    ADC #$69			A:01 X:1E Y:00 P:7D SP:FB CYC:3363
C938 30 0B    BMI $C945			A:6B X:1E Y:00 P:3C SP:FB CYC:3365
C93A B0 09    BCS $C945			A:6B X:1E Y:00 P:3C SP:FB CYC:3368
C93C C9 6B    CMP #$6B			A:6B X:1E Y:00 P:3C SP:FB CYC:3369
C93E D0 05    BNE $C945			A:6B X:1E Y:00 P:BC SP:FB CYC:3371
C945 A2 1F    LDX #$1F			A:6B X:1E Y:00 P:BC SP:FB CYC:3374
C947 86 00    STX $00			A:6B X:1F Y:00 P:3C SP:FB CYC:3376
C949 EA       NOP 			A:6B X:1F Y:00 P:3C SP:FB CYC:3379
C94A D8       CLD 			A:6B X:1F Y:00 P:3C SP:FB CYC:3381
C94B 38       SEC 			A:6B X:1F Y:00 P:34 SP:FB CYC:3383
C94C B8       CLV 			A:6B X:1F Y:00 P:35 SP:FB CYC:3385
C94D A9 7F    LDA #$7F			A:6B X:1F Y:00 P:35 SP:FB CYC:3387
C94F 69 7F    ADC #$7F			A:7F X:1F Y:00 P:35 SP:FB CYC:3389
C951 10 0B    BPL $C95E			A:FF X:1F Y:00 P:F4 SP:FB CYC:3391
C953 B0 09    BCS $C95E			A:FF X:1F Y:00 P:F4 SP:FB CYC:3394
C955 C9 FF    CMP #$FF			A:FF X:1F Y:00 P:F4 SP:FB CYC:3395
C957 D0 05    BNE $C95E			A:FF X:1F Y:00 P:F4 SP:FB CYC:3397
C95E A2 20    LDX #$20			A:FF X:1F Y:00 P:F4 SP:FB CYC:3400
C960 86 00    STX $00			A:FF X:20 Y:00 P:74 SP:FB CYC:3402
C962 EA       NOP 			A:FF X:20 Y:00 P:74 SP:FB CYC:3405
C963 18       CLC 			A:FF X:20 Y:00 P:74 SP:FB CYC:3407
C964 24 01    BIT $01			A:FF X:20 Y:00 P:74 SP:FB CYC:3409
C966 A9 7F    LDA #$7F			A:FF X:20 Y:00 P:F4 SP:FB CYC:3412
C968 69 80    ADC #$80			A:7F X:20 Y:00 P:74 SP:FB CYC:3414
C96A 10 0B    BPL $C977			A:FF X:20 Y:00 P:B4 SP:FB CYC:3416
C96C B0 09    BCS $C977			A:FF X:20 Y:00 P:B4 SP:FB CYC:3419
C96E C9 FF    CMP #$FF			A:FF X:20 Y:00 P:B4 SP:FB CYC:3420
C970 D0 05    BNE $C977			A:FF X:20 Y:00 P:B4 SP:FB CYC:3422
C977 A2 21    LDX #$21			A:FF X:20 Y:00 P:B4 SP:FB CYC:3425
C979 86 00    STX $00			A:FF X:21 Y:00 P:34 SP:FB CYC:3427
C97B EA       NOP 			A:FF X:21 Y:00 P:34 SP:FB CYC:3430
C97C 38       SEC 			A:FF X:21 Y:00 P:34 SP:FB CYC:3432
C97D B8       CLV 			A:FF X:21 Y:00 P:35 SP:FB CYC:3434
C97E A9 7F    LDA #$7F			A:FF X:21 Y:00 P:35 SP:FB CYC:3436
C980 69 80    ADC #$80			A:7F X:21 Y:00 P:35 SP:FB CYC:3438
C982 D0 09    BNE $C98D			A:00 X:21 Y:00 P:37 SP:FB CYC:3440
C984 30 07    BMI $C98D			A:00 X:21 Y:00 P:37 SP:FB CYC:3443
C986 70 05    BVS $C98D			A:00 X:21 Y:00 P:37 SP:FB CYC:3444
C988 90 03    BCC $C98D			A:00 X:21 Y:00 P:37 SP:FB CYC:3447
C98A 4C 91 C9 JMP $C991			A:00 X:21 Y:00 P:37 SP:FB CYC:3448
C991 EA       NOP 			A:00 X:21 Y:00 P:37 SP:FB CYC:3451
C992 38       SEC 			A:00 X:21 Y:00 P:37 SP:FB CYC:3453
C993 B8       CLV 			A:00 X:21 Y:00 P:37 SP:FB CYC:3455
C994 A9 9F    LDA #$9F			A:00 X:21 Y:00 P:37 SP:FB CYC:3457
C996 F0 09    BEQ $C9A1			A:9F X:21 Y:00 P:B5 SP:FB CYC:3459
C998 10 07    BPL $C9A1			A:9F X:21 Y:00 P:B5 SP:FB CYC:3462
C99A 70 05    BVS $C9A1			A:9F X:21 Y:00 P:B5 SP:FB CYC:3463
C99C 90 03    BCC $C9A1			A:9F X:21 Y:00 P:B5 SP:FB CYC:3466
C99E 4C A5 C9 JMP $C9A5			A:9F X:21 Y:00 P:B5 SP:FB CYC:3467
C9A5 EA       NOP 			A:9F X:21 Y:00 P:B5 SP:FB CYC:3470
C9A6 18       CLC 			A:9F X:21 Y:00 P:B5 SP:FB CYC:3472
C9A7 24 01    BIT $01			A:9F X:21 Y:00 P:B4 SP:FB CYC:3474
C9A9 A9 00    LDA #$00			A:9F X:21 Y:00 P:F4 SP:FB CYC:3477
C9AB D0 09    BNE $C9B6			A:00 X:21 Y:00 P:76 SP:FB CYC:3479
C9AD 30 07    BMI $C9B6			A:00 X:21 Y:00 P:76 SP:FB CYC:3482
C9AF 50 05    BVC $C9B6			A:00 X:21 Y:00 P:76 SP:FB CYC:3483
C9B1 B0 03    BCS $C9B6			A:00 X:21 Y:00 P:76 SP:FB CYC:3486
C9B3 4C BA C9 JMP $C9BA			A:00 X:21 Y:00 P:76 SP:FB CYC:3487
C9BA EA       NOP 			A:00 X:21 Y:00 P:76 SP:FB CYC:3490
C9BB 24 01    BIT $01			A:00 X:21 Y:00 P:76 SP:FB CYC:3492
C9BD A9 40    LDA #$40			A:00 X:21 Y:00 P:F6 SP:FB CYC:3495
C9BF C9 40    CMP #$40			A:40 X:21 Y:00 P:74 SP:FB CYC:3497
C9C1 30 09    BMI $C9CC			A:40 X:21 Y:00 P:F4 SP:FB CYC:3499
C9CC A2 24    LDX #$24			A:40 X:21 Y:00 P:F4 SP:FB CYC:3502
C9CE 86 00    STX $00			A:40 X:24 Y:00 P:74 SP:FB CYC:3504
C9D0 EA       NOP 			A:40 X:24 Y:00 P:74 SP:FB CYC:3507
C9D1 B8       CLV 			A:40 X:24 Y:00 P:74 SP:FB CYC:3509
C9D2 C9 3F    CMP #$3F			A:40 X:24 Y:00 P:34 SP:FB CYC:3511
C9D4 F0 09    BEQ $C9DF			A:40 X:24 Y:00 P:37 SP:FB CYC:3513
C9DF A2 25    LDX #$25			A:40 X:24 Y:00 P:37 SP:FB CYC:3516
C9E1 86 00    STX $00			A:40 X:25 Y:00 P:35 SP:FB CYC:3518
C9E3 EA       NOP 			A:40 X:25 Y:00 P:35 SP:FB CYC:3521
C9E4 C9 41    CMP #$41			A:40 X:25 Y:00 P:35 SP:FB CYC:3523
C9E6 F0 07    BEQ $C9EF			A:40 X:25 Y:00 P:B4 SP:FB CYC:3525
C9E8 10 05    BPL $C9EF			A:40 X:25 Y:00 P:B4 SP:FB CYC:3528
C9EA 10 03    BPL $C9EF			A:40 X:25 Y:00 P:B4 SP:FB CYC:3529
C9EC 4C F3 C9 JMP $C9F3			A:40 X:25 Y:00 P:B4 SP:FB CYC:3531
C9F3 EA       NOP 			A:40 X:25 Y:00 P:B4 SP:FB CYC:3534
C9F4 A9 80    LDA #$80			A:40 X:25 Y:00 P:B4 SP:FB CYC:3536
C9F6 C9 00    CMP #$00			A:80 X:25 Y:00 P:B4 SP:FB CYC:3538
C9F8 F0 07    BEQ $CA01			A:80 X:25 Y:00 P:35 SP:FB CYC:3540
C9FA 10 05    BPL $CA01			A:80 X:25 Y:00 P:35 SP:FB CYC:3542
C903 A9 70    LDA #$70			A:80 X:25 Y:00 P:35 SP:FB CYC:3545
C905 49 70    EOR #$70			A:70 X:25 Y:00 P:35 SP:FB CYC:3547
C907 D0 09    BNE $C912			A:00 X:25 Y:00 P:37 SP:FB CYC:3549
C909 70 07    BVS $C912			A:00 X:25 Y:00 P:37 SP:FB CYC:3552
C90B 90 05    BCC $C912			A:00 X:25 Y:00 P:37 SP:FB CYC:3553
C90D 30 03    BMI $C912			A:00 X:25 Y:00 P:37 SP:FB CYC:3556
C90F 4C 16 C9 JMP $C916			A:00 X:25 Y:00 P:37 SP:FB CYC:3557
C916 EA       NOP 			A:00 X:25 Y:00 P:37 SP:FB CYC:3560
C917 18       CLC 			A:00 X:25 Y:00 P:37 SP:FB CYC:3562
C918 24 01    BIT $01			A:00 X:25 Y:00 P:36 SP:FB CYC:3564
C91A A9 00    LDA #$00			A:00 X:25 Y:00 P:F6 SP:FB CYC:3567
C91C 69 69    ADC #$69			A:00 X:25 Y:00 P:76 SP:FB CYC:3569
C91E 30 0B    BMI $C92B			A:69 X:25 Y:00 P:34 SP:FB CYC:3571
C920 B0 09    BCS $C92B			A:69 X:25 Y:00 P:34 SP:FB CYC:3574
C922 C9 69    CMP #$69			A:69 X:25 Y:00 P:34 SP:FB CYC:3575
C924 D0 05    BNE $C92B			A:69 X:25 Y:00 P:B4 SP:FB CYC:3577
C92B A2 1E    LDX #$1E			A:69 X:25 Y:00 P:B4 SP:FB CYC:3580
C92D 86 00    STX $00			A:69 X:1E Y:00 P:34 SP:FB CYC:3582
C92F EA       NOP 			A:69 X:1E Y:00 P:34 SP:FB CYC:3585
C930 38       SEC 			A:69 X:1E Y:00 P:34 SP:FB CYC:3587
C931 F8       SED 			A:69 X:1E Y:00 P:35 SP:FB CYC:3589
C932 24 01    BIT $01			A:69 X:1E Y:00 P:3D SP:FB CYC:3591
C934 A9 01    LDA #$01			A:69 X:1E Y:00 P:FD SP:FB CYC:3594
C936 69 69    ADC #$69			A:01 X:1E Y:00 P:7D SP:FB CYC:3596
C938 30 0B    BMI $C945			A:6B X:1E Y:00 P:3C SP:FB CYC:3598
C93A B0 09    BCS $C945			A:6B X:1E Y:00 P:3C SP:FB CYC:3601
C93C C9 6B    CMP #$6B			A:6B X:1E Y:00 P:3C SP:FB CYC:3602
C93E D0 05    BNE $C945			A:6B X:1E Y:00 P:BC SP:FB CYC:3604
C945 A2 1F    LDX #$1F			A:6B X:1E Y:00 P:BC SP:FB CYC:3607
C947 86 00    STX $00			A:6B X:1F Y:00 P:3C SP:FB CYC:3609
C949 EA       NOP 			A:6B X:1F Y:00 P:3C SP:FB CYC:3612
C94A D8       CLD 			A:6B X:1F Y:00 P:3C SP:FB CYC:3614
C94B 38       SEC 			A:6B X:1F Y:00 P:34 SP:FB CYC:3616
C94C B8       CLV 			A:6B X:1F Y:00 P:35 SP:FB CYC:3618
C94D A9 7F    LDA #$7F			A:6B X:1F Y:00 P:35 SP:FB CYC:3620
C94F 69 7F    ADC #$7F			A:7F X:1F Y:00 P:35 SP:FB CYC:3622
C951 10 0B    BPL $C95E			A:FF X:1F Y:00 P:F4 SP:FB CYC:3624
C953 B0 09    BCS $C95E			A:FF X:1F Y:00 P:F4 SP:FB CYC:3627
C955 C9 FF    CMP #$FF			A:FF X:1F Y:00 P:F4 SP:FB CYC:3628
C957 D0 05    BNE $C95E			A:FF X:1F Y:00 P:F4 SP:FB CYC:3630
C95E A2 20    LDX #$20			A:FF X:1F Y:00 P:F4 SP:FB CYC:3633
C960 86 00    STX $00			A:FF X:20 Y:00 P:74 SP:FB CYC:3635
C962 EA       NOP 			A:FF X:20 Y:00 P:74 SP:FB CYC:3638
C963 18       CLC 			A:FF X:20 Y:00 P:74 SP:FB CYC:3640
C964 24 01    BIT $01			A:FF X:20 Y:00 P:74 SP:FB CYC:3642
C966 A9 7F    LDA #$7F			A:FF X:20 Y:00 P:F4 SP:FB CYC:3645
C968 69 80    ADC #$80			A:7F X:20 Y:00 P:74 SP:FB CYC:3647
C96A 10 0B    BPL $C977			A:FF X:20 Y:00 P:B4 SP:FB CYC:3649
C96C B0 09    BCS $C977			A:FF X:20 Y:00 P:B4 SP:FB CYC:3652
C96E C9 FF    CMP #$FF			A:FF X:20 Y:00 P:B4 SP:FB CYC:3653
C970 D0 05    BNE $C977			A:FF X:20 Y:00 P:B4 SP:FB CYC:3655
C977 A2 21    LDX #$21			A:FF X:20 Y:00 P:B4 SP:FB CYC:3658
C979 86 00    STX $00			A:FF X:21 Y:00 P:34 SP:FB CYC:3660
C97B EA       NOP 			A:FF X:21 Y:00 P:34 SP:FB CYC:3663
C97C 38       SEC 			A:FF X:21 Y:00 P:34 SP:FB CYC:3665
C97D B8       CLV 			A:FF X:21 Y:00 P:35 SP:FB CYC:3667
C97E A9 7F    LDA #$7F			A:FF X:21 Y:00 P:35 SP:FB CYC:3669
C980 69 80    ADC #$80			A:7F X:21 Y:00 P:35 SP:FB CYC:3671
C982 D0 09    BNE $C98D			A:00 X:21 Y:00 P:37 SP:FB CYC:3673
C984 30 07    BMI $C98D			A:00 X:21 Y:00 P:37 SP:FB CYC:3676
C986 70 05    BVS $C98D			A:00 X:21 Y:00 P:37 SP:FB CYC:3677
C988 90 03    BCC $C98D			A:00 X:21 Y:00 P:37 SP:FB CYC:3680
C98A 4C 91 C9 JMP $C991			A:00 X:21 Y:00 P:37 SP:FB CYC:3681
C991 EA       NOP 			A:00 X:21 Y:00 P:37 SP:FB CYC:3684
C992 38       SEC 			A:00 X:21 Y:00 P:37 SP:FB CYC:3686
C993 B8       CLV 			A:00 X:21 Y:00 P:37 SP:FB CYC:3688
C994 A9 9F    LDA #$9F			A:00 X:21 Y:00 P:37 SP:FB CYC:3690
C996 F0 09    BEQ $C9A1			A:9F X:21 Y:00 P:B5 SP:FB CYC:3692
C998 10 07    BPL $C9A1			A:9F X:21 Y:00 P:B5 SP:FB CYC:3695
C99A 70 05    BVS $C9A1			A:9F X:21 Y:00 P:B5 SP:FB CYC:3696
C99C 90 03    BCC $C9A1			A:9F X:21 Y:00 P:B5 SP:FB CYC:3699
C99E 4C A5 C9 JMP $C9A5			A:9F X:21 Y:00 P:B5 SP:FB CYC:3700
C9A5 EA       NOP 			A:9F X:21 Y:00 P:B5 SP:FB CYC:3703
C9A6 18       CLC 			A:9F X:21 Y:00 P:B5 SP:FB CYC:3705
C9A7 24 01    BIT $01			A:9F X:21 Y:00 P:B4 SP:FB CYC:3707
C9A9 A9 00    LDA #$00			A:9F X:21 Y:00 P:F4 SP:FB CYC:3710
C9AB D0 09    BNE $C9B6			A:00 X:21 Y:00 P:76 SP:FB CYC:3712
C9AD 30 07    BMI $C9B6			A:00 X:21 Y:00 P:76 SP:FB CYC:3715
C9AF 50 05    BVC $C9B6			A:00 X:21 Y:00 P:76 SP:FB CYC:3716
C9B1 B0 03    BCS $C9B6			A:00 X:21 Y:00 P:76 SP:FB CYC:3719
C9B3 4C BA C9 JMP $C9BA			A:00 X:21 Y:00 P:76 SP:FB CYC:3720
C9BA EA       NOP 			A:00 X:21 Y:00 P:76 SP:FB CYC:3723
C9BB 24 01    BIT $01			A:00 X:21 Y:00 P:76 SP:FB CYC:3725
C9BD A9 40    LDA #$40			A:00 X:21 Y:00 P:F6 SP:FB CYC:3728
C9BF C9 40    CMP #$40			A:40 X:21 Y:00 P:74 SP:FB CYC:3730
C9C1 30 09    BMI $C9CC			A:40 X:21 Y:00 P:F4 SP:FB CYC:3732
C9CC A2 24    LDX #$24			A:40 X:21 Y:00 P:F4 SP:FB CYC:3735
C9CE 86 00    STX $00			A:40 X:24 Y:00 P:74 SP:FB CYC:3737
C9D0 EA       NOP 			A:40 X:24 Y:00 P:74 SP:FB CYC:3740
C9D1 B8       CLV 			A:40 X:24 Y:00 P:74 SP:FB CYC:3742
C9D2 C9 3F    CMP #$3F			A:40 X:24 Y:00 P:34 SP:FB CYC:3744
C9D4 F0 09    BEQ $C9DF			A:40 X:24 Y:00 P:37 SP:FB CYC:3746
C9DF A2 25    LDX #$25			A:40 X:24 Y:00 P:37 SP:FB CYC:3749
C9E1 86 00    STX $00			A:40 X:25 Y:00 P:35 SP:FB CYC:3751
C9E3 EA       NOP 			A:40 X:25 Y:00 P:35 SP:FB CYC:3754
C9E4 C9 41    CMP #$41			A:40 X:25 Y:00 P:35 SP:FB CYC:3756
C9E6 F0 07    BEQ $C9EF			A:40 X:25 Y:00 P:B4 SP:FB CYC:3758
C9E8 10 05    BPL $C9EF			A:40 X:25 Y:00 P:B4 SP:FB CYC:3761
C9EA 10 03    BPL $C9EF			A:40 X:25 Y:00 P:B4 SP:FB CYC:3762
C9EC 4C F3 C9 JMP $C9F3			A:40 X:25 Y:00 P:B4 SP:FB CYC:3764
C9F3 EA       NOP 			A:40 X:25 Y:00 P:B4 SP:FB CYC:3767
C9F4 A9 80    LDA #$80			A:40 X:25 Y:00 P:B4 SP:FB CYC:3769
C9F6 C9 00    CMP #$00			A:80 X:25 Y:00 P:B4 SP:FB CYC:3771
C9F8 F0 07    BEQ $CA01			A:80 X:25 Y:00 P:35 SP:FB CYC:3773
C9FA 10 05    BPL $CA01			A:80 X:25 Y:00 P:35 SP:FB CYC:3775
C903 A9 70    LDA #$70			A:80 X:25 Y:00 P:35 SP:FB CYC:3778
C905 49 70    EOR #$70			A:70 X:25 Y:00 P:35 SP:FB CYC:3780
C907 D0 09    BNE $C912			A:00 X:25 Y:00 P:37 SP:FB CYC:3782
C909 70 07    BVS $C912			A:00 X:25 Y:00 P:37 SP:FB CYC:3785
C90B 90 05    BCC $C912			A:00 X:25 Y:00 P:37 SP:FB CYC:3786
C90D 30 03    BMI $C912			A:00 X:25 Y:00 P:37 SP:FB CYC:3789
C90F 4C 16 C9 JMP $C916			A:00 X:25 Y:00 P:37 SP:FB CYC:3790
C916 EA       NOP 			A:00 X:25 Y:00 P:37 SP:FB CYC:3793
C917 18       CLC 			A:00 X:25 Y:00 P:37 SP:FB CYC:3795
C918 24 01    BIT $01			A:00 X:25 Y:00 P:36 SP:FB CYC:3797
C91A A9 00    LDA #$00			A:00 X:25 Y:00 P:F6 SP:FB CYC:3800
C91C 69 69    ADC #$69			A:00 X:25 Y:00 P:76 SP:FB CYC:3802
C91E 30 0B    BMI $C92B			A:69 X:25 Y:00 P:34 SP:FB CYC:3804
C920 B0 09    BCS $C92B			A:69 X:25 Y:00 P:34 SP:FB CYC:3807
C922 C9 69    CMP #$69			A:69 X:25 Y:00 P:34 SP:FB CYC:3808
C924 D0 05    BNE $C92B			A:69 X:25 Y:00 P:B4 SP:FB CYC:3810
C92B A2 1E    LDX #$1E			A:69 X:25 Y:00 P:B4 SP:FB CYC:3813
C92D 86 00    STX $00			A:69 X:1E Y:00 P:34 SP:FB CYC:3815
C92F EA       NOP 			A:69 X:1E Y:00 P:34 SP:FB CYC:3818
C930 38       SEC 			A:69 X:1E Y:00 P:34 SP:FB CYC:3820
C931 F8       SED 			A:69 X:1E Y:00 P:35 SP:FB CYC:3822
C932 24 01    BIT $01			A:69 X:1E Y:00 P:3D SP:FB CYC:3824
C934 A9 01    LDA #$01			A:69 X:1E Y:00 P:FD SP:FB CYC:3827
C936 69 69    ADC #$69			A:01 X:1E Y:00 P:7D SP:FB CYC:3829
C938 30 0B    BMI $C945			A:6B X:1E Y:00 P:3C SP:FB CYC:3831
C93A B0 09    BCS $C945			A:6B X:1E Y:00 P:3C SP:FB CYC:3834
C93C C9 6B    CMP #$6B			A:6B X:1E Y:00 P:3C SP:FB CYC:3835
C93E D0 05    BNE $C945			A:6B X:1E Y:00 P:BC SP:FB CYC:3837
C945 A2 1F    LDX #$1F			A:6B X:1E Y:00 P:BC SP:FB CYC:3840
C947 86 00    STX $00			A:6B X:1F Y:00 P:3C SP:FB CYC:3842
C949 EA       NOP 			A:6B X:1F Y:00 P:3C SP:FB CYC:3845
C94A D8       CLD 			A:6B X:1F Y:00 P:3C SP:FB CYC:3847
C94B 38       SEC 			A:6B X:1F Y:00 P:34 SP:FB CYC:3849
C94C B8       CLV 			A:6B X:1F Y:00 P:35 SP:FB CYC:3851
C94D A9 7F    LDA #$7F			A:6B X:1F Y:00 P:35 SP:FB CYC:3853
C94F 69 7F    ADC #$7F			A:7F X:1F Y:00 P:35 SP:FB CYC:3855
C951 10 0B    BPL $C95E			A:FF X:1F Y:00 P:F4 SP:FB CYC:3857
C953 B0 09    BCS $C95E			A:FF X:1F Y:00 P:F4 SP:FB CYC:3860
C955 C9 FF    CMP #$FF			A:FF X:1F Y:00 P:F4 SP:FB CYC:3861
C957 D0 05    BNE $C95E			A:FF X:1F Y:00 P:F4 SP:FB CYC:3863
C95E A2 20    LDX #$20			A:FF X:1F Y:00 P:F4 SP:FB CYC:3866
C960 86 00    STX $00			A:FF X:20 Y:00 P:74 SP:FB CYC:3868
C962 EA       NOP 			A:FF X:20 Y:00 P:74 SP:FB CYC:3871
C963 18       CLC 			A:FF X:20 Y:00 P:74 SP:FB CYC:3873
C964 24 01    BIT $01			A:FF X:20 Y:00 P:74 SP:FB CYC:3875
C966 A9 7F    LDA #$7F			A:FF X:20 Y:00 P:F4 SP:FB CYC:3878
C968 69 80    ADC #$80			A:7F X:20 Y:00 P:74 SP:FB CYC:3880
C96A 10 0B    BPL $C977			A:FF X:20 Y:00 P:B4 SP:FB CYC:3882
C96C B0 09    BCS $C977			A:FF X:20 Y:00 P:B4 SP:FB CYC:3885
C96E C9 FF    CMP #$FF			A:FF X:20 Y:00 P:B4 SP:FB CYC:3886
C970 D0 05    BNE $C977			A:FF X:20 Y:00 P:B4 SP:FB CYC:3888
C977 A2 21    LDX #$21			A:FF X:20 Y:00 P:B4 SP:FB CYC:3891
C979 86 00    STX $00			A:FF X:21 Y:00 P:34 SP:FB CYC:3893
C97B EA       NOP 			A:FF X:21 Y:00 P:34 SP:FB CYC:3896
C97C 38       SEC 			A:FF X:21 Y:00 P:34 SP:FB CYC:3898
C97D B8       CLV 			A:FF X:21 Y:00 P:35 SP:FB CYC:3900
C97E A9 7F    LDA #$7F			A:FF X:21 Y:00 P:35 SP:FB CYC:3902
C980 69 80    ADC #$80			A:7F X:21 Y:00 P:35 SP:FB CYC:3904
C982 D0 09    BNE $C98D			A:00 X:21 Y:00 P:37 SP:FB CYC:3906
C984 30 07    BMI $C98D			A:00 X:21 Y:00 P:37 SP:FB CYC:3909
C986 70 05    BVS $C98D			A:00 X:21 Y:00 P:37 SP:FB CYC:3910
C988 90 03    BCC $C98D			A:00 X:21 Y:00 P:37 SP:FB CYC:3913
C98A 4C 91 C9 JMP $C991			A:00 X:21 Y:00 P:37 SP:FB CYC:3914
C991 EA       NOP 			A:00 X:21 Y:00 P:37 SP:FB CYC:3917
C992 38       SEC 			A:00 X:21 Y:00 P:37 SP:FB CYC:3919
C993 B8       CLV 			A:00 X:21 Y:00 P:37 SP:FB CYC:3921
C994 A9 9F    LDA #$9F			A:00 X:21 Y:00 P:37 SP:FB CYC:3923
C996 F0 09    BEQ $C9A1			A:9F X:21 Y:00 P:B5 SP:FB CYC:3925
C998 10 07    BPL $C9A1			A:9F X:21 Y:00 P:B5 SP:FB CYC:3928
C99A 70 05    BVS $C9A1			A:9F X:21 Y:00 P:B5 SP:FB CYC:3929
C99C 90 03    BCC $C9A1			A:9F X:21 Y:00 P:B5 SP:FB CYC:3932
C99E 4C A5 C9 JMP $C9A5			A:9F X:21 Y:00 P:B5 SP:FB CYC:3933
C9A5 EA       NOP 			A:9F X:21 Y:00 P:B5 SP:FB CYC:3936
C9A6 18       CLC 			A:9F X:21 Y:00 P:B5 SP:FB CYC:3938
C9A7 24 01    BIT $01			A:9F X:21 Y:00 P:B4 SP:FB CYC:3940
C9A9 A9 00    LDA #$00			A:9F X:21 Y:00 P:F4 SP:FB CYC:3943
C9AB D0 09    BNE $C9B6			A:00 X:21 Y:00 P:76 SP:FB CYC:3945
C9AD 30 07    BMI $C9B6			A:00 X:21 Y:00 P:76 SP:FB CYC:3948
C9AF 50 05    BVC $C9B6			A:00 X:21 Y:00 P:76 SP:FB CYC:3949
C9B1 B0 03    BCS $C9B6			A:00 X:21 Y:00 P:76 SP:FB CYC:3952
C9B3 4C BA C9 JMP $C9BA			A:00 X:21 Y:00 P:76 SP:FB CYC:3953
C9BA EA       NOP 			A:00 X:21 Y:00 P:76 SP:FB CYC:3956
C9BB 24 01    BIT $01			A:00 X:21 Y:00 P:76 SP:FB CYC:3958
C9BD A9 40    LDA #$40			A:00 X:21 Y:00 P:F6 SP:FB CYC:3961
C9BF C9 40    CMP #$40			A:40 X:21 Y:00 P:74 SP:FB CYC:3963
C9C1 30 09    BMI $C9CC			A:40 X:21 Y:00 P:F4 SP:FB CYC:3965
C9CC A2 24    LDX #$24			A:40 X:21 Y:00 P:F4 SP:FB CYC:3968
C9CE 86 00    STX $00			A:40 X:24 Y:00 P:74 SP:FB CYC:3970
C9D0 EA       NOP 			A:40 X:24 Y:00 P:74 SP:FB CYC:3973
C9D1 B8       CLV 			A:40 X:24 Y:00 P:74 SP:FB CYC:3975
C9D2 C9 3F    CMP #$3F			A:40 X:24 Y:00 P:34 SP:FB CYC:3977
C9D4 F0 09    BEQ $C9DF			A:40 X:24 Y:00 P:37 SP:FB CYC:3979
C9DF A2 25    LDX #$25			A:40 X:24 Y:00 P:37 SP:FB CYC:3982
C9E1 86 00    STX $00			A:40 X:25 Y:00 P:35 SP:FB CYC:3984
C9E3 EA       NOP 			A:40 X:25 Y:00 P:35 SP:FB CYC:3987
C9E4 C9 41    CMP #$41			A:40 X:25 Y:00 P:35 SP:FB CYC:3989
C9E6 F0 07    BEQ $C9EF			A:40 X:25 Y:00 P:B4 SP:FB CYC:3991
C9E8 10 05    BPL $C9EF			A:40 X:25 Y:00 P:B4 SP:FB CYC:3994
C9EA 10 03    BPL $C9EF			A:40 X:25 Y:00 P:B4 SP:FB CYC:3995
C9EC 4C F3 C9 JMP $C9F3			A:40 X:25 Y:00 P:B4 SP:FB CYC:3997
C9F3 EA       NOP 			A:40 X:25 Y:00 P:B4 SP:FB CYC:4000
C9F4 A9 80    LDA #$80			A:40 X:25 Y:00 P:B4 SP:FB CYC:4002
C9F6 C9 00    CMP #$00			A:80 X:25 Y:00 P:B4 SP:FB CYC:4004
C9F8 F0 07    BEQ $CA01			A:80 X:25 Y:00 P:35 SP:FB CYC:4006
C9FA 10 05    BPL $CA01			A:80 X:25 Y:00 P:35 SP:FB CYC:4008
C903 A9 70    LDA #$70			A:80 X:25 Y:00 P:35 SP:FB CYC:4011
C905 49 70    EOR #$70			A:70 X:25 Y:00 P:35 SP:FB CYC:4013
C907 D0 09    BNE $C912			A:00 X:25 Y:00 P:37 SP:FB CYC:4015
C909 70 07    BVS $C912			A:00 X:25 Y:00 P:37 SP:FB CYC:4018
C90B 90 05    BCC $C912			A:00 X:25 Y:00 P:37 SP:FB CYC:4019
C90D 30 03    BMI $C912			A:00 X:25 Y:00 P:37 SP:FB CYC:4022
C90F 4C 16 C9 JMP $C916			A:00 X:25 Y:00 P:37 SP:FB CYC:4023
C916 EA       NOP 			A:00 X:25 Y:00 P:37 SP:FB CYC:4026
C917 18       CLC 			A:00 X:25 Y:00 P:37 SP:FB CYC:4028
C918 24 01    BIT $01			A:00 X:25 Y:00 P:36 SP:FB CYC:4030
C91A A9 00    LDA #$00			A:00 X:25 Y:00 P:F6 SP:FB CYC:4033
C91C 69 69    ADC #$69			A:00 X:25 Y:00 P:76 SP:FB CYC:4035
C91E 30 0B    BMI $C92B			A:69 X:25 Y:00 P:34 SP:FB CYC:4037
C920 B0 09    BCS $C92B			A:69 X:25 Y:00 P:34 SP:FB CYC:4040
C922 C9 69    CMP #$69			A:69 X:25 Y:00 P:34 SP:FB CYC:4041
C924 D0 05    BNE $C92B			A:69 X:25 Y:00 P:B4 SP:FB CYC:4043
C92B A2 1E    LDX #$1E			A:69 X:25 Y:00 P:B4 SP:FB CYC:4046
C92D 86 00    STX $00			A:69 X:1E Y:00 P:34 SP:FB CYC:4048
C92F EA       NOP 			A:69 X:1E Y:00 P:34 SP:FB CYC:4051
C930 38       SEC 			A:69 X:1E Y:00 P:34 SP:FB CYC:4053
C931 F8       SED 			A:69 X:1E Y:00 P:35 SP:FB CYC:4055
C932 24 01    BIT $01			A:69 X:1E Y:00 P:3D SP:FB CYC:4057
C934 A9 01    LDA #$01			A:69 X:1E Y:00 P:FD SP:FB CYC:4060
C936 69 69    ADC #$69			A:01 X:1E Y:00 P:7D SP:FB CYC:4062
C938 30 0B    BMI $C945			A:6B X:1E Y:00 P:3C SP:FB CYC:4064
C93A B0 09    BCS $C945			A:6B X:1E Y:00 P:3C SP:FB CYC:4067
C93C C9 6B    CMP #$6B			A:6B X:1E Y:00 P:3C SP:FB CYC:4068
C93E D0 05    BNE $C945			A:6B X:1E Y:00 P:BC SP:FB CYC:4070
C945 A2 1F    LDX #$1F			A:6B X:1E Y:00 P:BC SP:FB CYC:4073
C947 86 00    STX $00			A:6B X:1F Y:00 P:3C SP:FB CYC:4075
C949 EA       NOP 			A:6B X:1F Y:00 P:3C SP:FB CYC:4078
C94A D8       CLD 			A:6B X:1F Y:00 P:3C SP:FB CYC:4080
C94B 38       SEC 			A:6B X:1F Y:00 P:34 SP:FB CYC:4082
C94C B8       CLV 			A:6B X:1F Y:00 P:35 SP:FB CYC:4084
C94D A9 7F    LDA #$7F			A:6B X:1F Y:00 P:35 SP:FB CYC:4086
C94F 69 7F    ADC #$7F			A:7F X:1F Y:00 P:35 SP:FB CYC:4088
C951 10 0B    BPL $C95E			A:FF X:1F Y:00 P:F4 SP:FB CYC:4090
C953 B0 09    BCS $C95E			A:FF X:1F Y:00 P:F4 SP:FB CYC:4093
C955 C9 FF    CMP #$FF			A:FF X:1F Y:00 P:F4 SP:FB CYC:4094
C957 D0 05    BNE $C95E			A:FF X:1F Y:00 P:F4 SP:FB CYC:4096
C95E A2 20    LDX #$20			A:FF X:1F Y:00 P:F4 SP:FB CYC:4099
C960 86 00    STX $00			A:FF X:20 Y:00 P:74 SP:FB CYC:4101
C962 EA       NOP 			A:FF X:20 Y:00 P:74 SP:FB CYC:4104
C963 18       CLC 			A:FF X:20 Y:00 P:74 SP:FB CYC:4106
C964 24 01    BIT $01			A:FF X:20 Y:00 P:74 SP:FB CYC:4108
C966 A9 7F    LDA #$7F			A:FF X:20 Y:00 P:F4 SP:FB CYC:4111
C968 69 80    ADC #$80			A:7F X:20 Y:00 P:74 SP:FB CYC:4113
C96A 10 0B    BPL $C977			A:FF X:20 Y:00 P:B4 SP:FB CYC:4115
C96C B0 09    BCS $C977			A:FF X:20 Y:00 P:B4 SP:FB CYC:4118
C96E C9 FF    CMP #$FF			A:FF X:20 Y:00 P:B4 SP:FB CYC:4119
C970 D0 05    BNE $C977			A:FF X:20 Y:00 P:B4 SP:FB CYC:4121
C977 A2 21    LDX #$21			A:FF X:20 Y:00 P:B4 SP:FB CYC:4124
C979 86 00    STX $00			A:FF X:21 Y:00 P:34 SP:FB CYC:4126
C97B EA       NOP 			A:FF X:21 Y:00 P:34 SP:FB CYC:4129
C97C 38       SEC 			A:FF X:21 Y:00 P:34 SP:FB CYC:4131
C97D B8       CLV 			A:FF X:21 Y:00 P:35 SP:FB CYC:4133
C97E A9 7F    LDA #$7F			A:FF X:21 Y:00 P:35 SP:FB CYC:4135
C980 69 80    ADC #$80			A:7F X:21 Y:00 P:35 SP:FB CYC:4137
C982 D0 09    BNE $C98D			A:00 X:21 Y:00 P:37 SP:FB CYC:4139
C984 30 07    BMI $C98D			A:00 X:21 Y:00 P:37 SP:FB CYC:4142
C986 70 05    BVS $C98D			A:00 X:21 Y:00 P:37 SP:FB CYC:4143
C988 90 03    BCC $C98D			A:00 X:21 Y:00 P:37 SP:FB CYC:4146
C98A 4C 91 C9 JMP $C991			A:00 X:21 Y:00 P:37 SP:FB CYC:4147
C991 EA       NOP 			A:00 X:21 Y:00 P:37 SP:FB CYC:4150
C992 38       SEC 			A:00 X:21 Y:00 P:37 SP:FB CYC:4152
C993 B8       CLV 			A:00 X:21 Y:00 P:37 SP:FB CYC:4154
C994 A9 9F    LDA #$9F			A:00 X:21 Y:00 P:37 SP:FB CYC:4156
C996 F0 09    BEQ $C9A1			A:9F X:21 Y:00 P:B5 SP:FB CYC:4158
C998 10 07    BPL $C9A1			A:9F X:21 Y:00 P:B5 SP:FB CYC:4161
C99A 70 05    BVS $C9A1			A:9F X:21 Y:00 P:B5 SP:FB CYC:4162
C99C 90 03    BCC $C9A1			A:9F X:21 Y:00 P:B5 SP:FB CYC:4165
C99E 4C A5 C9 JMP $C9A5			A:9F X:21 Y:00 P:B5 SP:FB CYC:4166
C9A5 EA       NOP 			A:9F X:21 Y:00 P:B5 SP:FB CYC:4169
C9A6 18       CLC 			A:9F X:21 Y:00 P:B5 SP:FB CYC:4171
C9A7 24 01    BIT $01			A:9F X:21 Y:00 P:B4 SP:FB CYC:4173
C9A9 A9 00    LDA #$00			A:9F X:21 Y:00 P:F4 SP:FB CYC:4176
C9AB D0 09    BNE $C9B6			A:00 X:21 Y:00 P:76 SP:FB CYC:4178
C9AD 30 07    BMI $C9B6			A:00 X:21 Y:00 P:76 SP:FB CYC:4181
C9AF 50 05    BVC $C9B6			A:00 X:21 Y:00 P:76 SP:FB CYC:4182
C9B1 B0 03    BCS $C9B6			A:00 X:21 Y:00 P:76 SP:FB CYC:4185
C9B3 4C BA C9 JMP $C9BA			A:00 X:21 Y:00 P:76 SP:FB CYC:4186
C9BA EA       NOP 			A:00 X:21 Y:00 P:76 SP:FB CYC:4189
C9BB 24 01    BIT $01			A:00 X:21 Y:00 P:76 SP:FB CYC:4191
C9BD A9 40    LDA #$40			A:00 X:21 Y:00 P:F6 SP:FB CYC:4194
C9BF C9 40    CMP #$40			A:40 X:21 Y:00 P:74 SP:FB CYC:4196
C9C1 30 09    BMI $C9CC			A:40 X:21 Y:00 P:F4 SP:FB CYC:4198
C9CC A2 24    LDX #$24			A:40 X:21 Y:00 P:F4 SP:FB CYC:4201
C9CE 86 00    STX $00			A:40 X:24 Y:00 P:74 SP:FB CYC:4203
C9D0 EA       NOP 			A:40 X:24 Y:00 P:74 SP:FB CYC:4206
C9D1 B8       CLV 			A:40 X:24 Y:00 P:74 SP:FB CYC:4208
C9D2 C9 3F    CMP #$3F			A:40 X:24 Y:00 P:34 SP:FB CYC:4210
C9D4 F0 09    BEQ $C9DF			A:40 X:24 Y:00 P:37 SP:FB CYC:4212
C9DF A2 25    LDX #$25			A:40 X:24 Y:00 P:37 SP:FB CYC:4215
C9E1 86 00    STX $00			A:40 X:25 Y:00 P:35 SP:FB CYC:4217
C9E3 EA       NOP 			A:40 X:25 Y:00 P:35 SP:FB CYC:4220
C9E4 C9 41    CMP #$41			A:40 X:25 Y:00 P:35 SP:FB CYC:4222
C9E6 F0 07    BEQ $C9EF			A:40 X:25 Y:00 P:B4 SP:FB CYC:4224
C9E8 10 05    BPL $C9EF			A:40 X:25 Y:00 P:B4 SP:FB CYC:4227
C9EA 10 03    BPL $C9EF			A:40 X:25 Y:00 P:B4 SP:FB CYC:4228
C9EC 4C F3 C9 JMP $C9F3			A:40 X:25 Y:00 P:B4 SP:FB CYC:4230
C9F3 EA       NOP 			A:40 X:25 Y:00 P:B4 SP:FB CYC:4233
C9F4 A9 80    LDA #$80			A:40 X:25 Y:00 P:B4 SP:FB CYC:4235
C9F6 C9 00    CMP #$00			A:80 X:25 Y:00 P:B4 SP:FB CYC:4237
C9F8 F0 07    BEQ $CA01			A:80 X:25 Y:00 P:35 SP:FB CYC:4239
C9FA 10 05    BPL $CA01			A:80 X:25 Y:00 P:35 SP:FB CYC:4241
C903 A9 70    LDA #$70			A:80 X:25 Y:00 P:35 SP:FB CYC:4244
C905 49 70    EOR #$70			A:70 X:25 Y:00 P:35 SP:FB CYC:4246
C907 D0 09    BNE $C912			A:00 X:25 Y:00 P:37 SP:FB CYC:4248
C909 70 07    BVS $C912			A:00 X:25 Y:00 P:37 SP:FB CYC:4251
C90B 90 05    BCC $C912			A:00 X:25 Y:00 P:37 SP:FB CYC:4252
C90D 30 03    BMI $C912			A:00 X:25 Y:00 P:37 SP:FB CYC:4255
C90F 4C 16 C9 JMP $C916			A:00 X:25 Y:00 P:37 SP:FB CYC:4256
C916 EA       NOP 			A:00 X:25 Y:00 P:37 SP:FB CYC:4259
C917 18       CLC 			A:00 X:25 Y:00 P:37 SP:FB CYC:4261
C918 24 01    BIT $01			A:00 X:25 Y:00 P:36 SP:FB CYC:4263
C91A A9 00    LDA #$00			A:00 X:25 Y:00 P:F6 SP:FB CYC:4266
C91C 69 69    ADC #$69			A:00 X:25 Y:00 P:76 SP:FB CYC:4268
C91E 30 0B    BMI $C92B			A:69 X:25 Y:00 P:34 SP:FB CYC:4270
C920 B0 09    BCS $C92B			A:69 X:25 Y:00 P:34 SP:FB CYC:4273
C922 C9 69    CMP #$69			A:69 X:25 Y:00 P:34 SP:FB CYC:4274
C924 D0 05    BNE $C92B			A:69 X:25 Y:00 P:B4 SP:FB CYC:4276
C92B A2 1E    LDX #$1E			A:69 X:25 Y:00 P:B4 SP:FB CYC:4279
C92D 86 00    STX $00			A:69 X:1E Y:00 P:34 SP:FB CYC:4281
C92F EA       NOP 			A:69 X:1E Y:00 P:34 SP:FB CYC:4284
C930 38       SEC 			A:69 X:1E Y:00 P:34 SP:FB CYC:4286
C931 F8       SED 			A:69 X:1E Y:00 P:35 SP:FB CYC:4288
C932 24 01    BIT $01			A:69 X:1E Y:00 P:3D SP:FB CYC:4290
C934 A9 01    LDA #$01			A:69 X:1E Y:00 P:FD SP:FB CYC:4293
C936 69 69    ADC #$69			A:01 X:1E Y:00 P:7D SP:FB CYC:4295
C938 30 0B    BMI $C945			A:6B X:1E Y:00 P:3C SP:FB CYC:4297
C93A B0 09    BCS $C945			A:6B X:1E Y:00 P:3C SP:FB CYC:4300
C93C C9 6B    CMP #$6B			A:6B X:1E Y:00 P:3C SP:FB CYC:4301
C93E D0 05    BNE $C945			A:6B X:1E Y:00 P:BC SP:FB CYC:4303
C945 A2 1F    LDX #$1F			A:6B X:1E Y:00 P:BC SP:FB CYC:4306
C947 86 00    STX $00			A:6B X:1F Y:00 P:3C SP:FB CYC:4308
C949 EA       NOP 			A:6B X:1F Y:00 P:3C SP:FB CYC:4311
C94A D8       CLD 			A:6B X:1F Y:00 P:3C SP:FB CYC:4313
C94B 38       SEC 			A:6B X:1F Y:00 P:34 SP:FB CYC:4315
C94C B8       CLV 			A:6B X:1F Y:00 P:35 SP:FB CYC:4317
C94D A9 7F    LDA #$7F			A:6B X:1F Y:00 P:35 SP:FB CYC:4319
C94F 69 7F    ADC #$7F			A:7F X:1F Y:00 P:35 SP:FB CYC:4321
C951 10 0B    BPL $C95E			A:FF X:1F Y:00 P:F4 SP:FB CYC:4323
C953 B0 09    BCS $C95E			A:FF X:1F Y:00 P:F4 SP:FB CYC:4326
C955 C9 FF    CMP #$FF			A:FF X:1F Y:00 P:F4 SP:FB CYC:4327
C957 D0 05    BNE $C95E			A:FF X:1F Y:00 P:F4 SP:FB CYC:4329
C95E A2 20    LDX #$20			A:FF X:1F Y:00 P:F4 SP:FB CYC:4332
C960 86 00    STX $00			A:FF X:20 Y:00 P:74 SP:FB CYC:4334
C962 EA       NOP 			A:FF X:20 Y:00 P:74 SP:FB CYC:4337
C963 18       CLC 			A:FF X:20 Y:00 P:74 SP:FB CYC:4339
C964 24 01    BIT $01			A:FF X:20 Y:00 P:74 SP:FB CYC:4341
C966 A9 7F    LDA #$7F			A:FF X:20 Y:00 P:F4 SP:FB CYC:4344
C968 69 80    ADC #$80			A:7F X:20 Y:00 P:74 SP:FB CYC:4346
C96A 10 0B    BPL $C977			A:FF X:20 Y:00 P:B4 SP:FB CYC:4348
C96C B0 09    BCS $C977			A:FF X:20 Y:00 P:B4 SP:FB CYC:4351
C96E C9 FF    CMP #$FF			A:FF X:20 Y:00 P:B4 SP:FB CYC:4352
C970 D0 05    BNE $C977			A:FF X:20 Y:00 P:B4 SP:FB CYC:4354
C977 A2 21    LDX #$21			A:FF X:20 Y:00 P:B4 SP:FB CYC:4357
C979 86 00    STX $00			A:FF X:21 Y:00 P:34 SP:FB CYC:4359
C97B EA       NOP 			A:FF X:21 Y:00 P:34 SP:FB CYC:4362
C97C 38       SEC 			A:FF X:21 Y:00 P:34 SP:FB CYC:4364
C97D B8       CLV 			A:FF X:21 Y:00 P:35 SP:FB CYC:4366
C97E A9 7F    LDA #$7F			A:FF X:21 Y:00 P:35 SP:FB CYC:4368
C980 69 80    ADC #$80			A:7F X:21 Y:00 P:35 SP:FB CYC:4370
C982 D0 09    BNE $C98D			A:00 X:21 Y:00 P:37 SP:FB CYC:4372
C984 30 07    BMI $C98D			A:00 X:21 Y:00 P:37 SP:FB CYC:4375
C986 70 05    BVS $C98D			A:00 X:21 Y:00 P:37 SP:FB CYC:4376
C988 90 03    BCC $C98D			A:00 X:21 Y:00 P:37 SP:FB CYC:4379
C98A 4C 91 C9 JMP $C991			A:00 X:21 Y:00 P:37 SP:FB CYC:4380
C991 EA       NOP 			A:00 X:21 Y:00 P:37 SP:FB CYC:4383
C992 38       SEC 			A:00 X:21 Y:00 P:37 SP:FB CYC:4385
C993 B8       CLV 			A:00 X:21 Y:00 P:37 SP:FB CYC:4387
C994 A9 9F    LDA #$9F			A:00 X:21 Y:00 P:37 SP:FB CYC:4389
C996 F0 09    BEQ $C9A1			A:9F X:21 Y:00 P:B5 SP:FB CYC:4391
C998 10 07    BPL $C9A1			A:9F X:21 Y:00 P:B5 SP:FB CYC:4394
C99A 70 05    BVS $C9A1			A:9F X:21 Y:00 P:B5 SP:FB CYC:4395
C99C 90 03    BCC $C9A1			A:9F X:21 Y:00 P:B5 SP:FB CYC:4398
C99E 4C A5 C9 JMP $C9A5			A:9F X:21 Y:00 P:B5 SP:FB CYC:4399
C9A5 EA       NOP 			A:9F X:21 Y:00 P:B5 SP:FB CYC:4402
C9A6 18       CLC 			A:9F X:21 Y:00 P:B5 SP:FB CYC:4404
C9A7 24 01    BIT $01			A:9F X:21 Y:00 P:B4 SP:FB CYC:4406
C9A9 A9 00    LDA #$00			A:9F X:21 Y:00 P:F4 SP:FB CYC:4409
C9AB D0 09    BNE $C9B6			A:00 X:21 Y:00 P:76 SP:FB CYC:4411
C9AD 30 07    BMI $C9B6			A:00 X:21 Y:00 P:76 SP:FB CYC:4414
C9AF 50 05    BVC $C9B6			A:00 X:21 Y:00 P:76 SP:FB CYC:4415
C9B1 B0 03    BCS $C9B6			A:00 X:21 Y:00 P:76 SP:FB CYC:4418
C9B3 4C BA C9 JMP $C9BA			A:00 X:21 Y:00 P:76 SP:FB CYC:4419
C9BA EA       NOP 			A:00 X:21 Y:00 P:76 SP:FB CYC:4422
C9BB 24 01    BIT $01			A:00 X:21 Y:00 P:76 SP:FB CYC:4424
C9BD A9 40    LDA #$40			A:00 X:21 Y:00 P:F6 SP:FB CYC:4427
C9BF C9 40    CMP #$40			A:40 X:21 Y:00 P:74 SP:FB CYC:4429
C9C1 30 09    BMI $C9CC			A:40 X:21 Y:00 P:F4 SP:FB CYC:4431
C9CC A2 24    LDX #$24			A:40 X:21 Y:00 P:F4 SP:FB CYC:4434
C9CE 86 00    STX $00			A:40 X:24 Y:00 P:74 SP:FB CYC:4436
C9D0 EA       NOP 			A:40 X:24 Y:00 P:74 SP:FB CYC:4439
C9D1 B8       CLV 			A:40 X:24 Y:00 P:74 SP:FB CYC:4441
C9D2 C9 3F    CMP #$3F			A:40 X:24 Y:00 P:34 SP:FB CYC:4443
C9D4 F0 09    BEQ $C9DF			A:40 X:24 Y:00 P:37 SP:FB CYC:4445
C9DF A2 25    LDX #$25			A:40 X:24 Y:00 P:37 SP:FB CYC:4448
C9E1 86 00    STX $00			A:40 X:25 Y:00 P:35 SP:FB CYC:4450
C9E3 EA       NOP 			A:40 X:25 Y:00 P:35 SP:FB CYC:4453
C9E4 C9 41    CMP #$41			A:40 X:25 Y:00 P:35 SP:FB CYC:4455
C9E6 F0 07    BEQ $C9EF			A:40 X:25 Y:00 P:B4 SP:FB CYC:4457
C9E8 10 05    BPL $C9EF			A:40 X:25 Y:00 P:B4 SP:FB CYC:4460
C9EA 10 03    BPL $C9EF			A:40 X:25 Y:00 P:B4 SP:FB CYC:4461
C9EC 4C F3 C9 JMP $C9F3			A:40 X:25 Y:00 P:B4 SP:FB CYC:4463
C9F3 EA       NOP 			A:40 X:25 Y:00 P:B4 SP:FB CYC:4466
C9F4 A9 80    LDA #$80			A:40 X:25 Y:00 P:B4 SP:FB CYC:4468
C9F6 C9 00    CMP #$00			A:80 X:25 Y:00 P:B4 SP:FB CYC:4470
C9F8 F0 07    BEQ $CA01			A:80 X:25 Y:00 P:35 SP:FB CYC:4472
C9FA 10 05    BPL $CA01			A:80 X:25 Y:00 P:35 SP:FB CYC:4474
C903 A9 70    LDA #$70			A:80 X:25 Y:00 P:35 SP:FB CYC:4477
C905 49 70    EOR #$70			A:70 X:25 Y:00 P:35 SP:FB CYC:4479
C907 D0 09    BNE $C912			A:00 X:25 Y:00 P:37 SP:FB CYC:4481
C909 70 07    BVS $C912			A:00 X:25 Y:00 P:37 SP:FB CYC:4484
C90B 90 05    BCC $C912			A:00 X:25 Y:00 P:37 SP:FB CYC:4485
C90D 30 03    BMI $C912			A:00 X:25 Y:00 P:37 SP:FB CYC:4488
C90F 4C 16 C9 JMP $C916			A:00 X:25 Y:00 P:37 SP:FB CYC:4489
C916 EA       NOP 			A:00 X:25 Y:00 P:37 SP:FB CYC:4492
C917 18       CLC 			A:00 X:25 Y:00 P:37 SP:FB CYC:4494
C918 24 01    BIT $01			A:00 X:25 Y:00 P:36 SP:FB CYC:4496
C91A A9 00    LDA #$00			A:00 X:25 Y:00 P:F6 SP:FB CYC:4499
C91C 69 69    ADC #$69			A:00 X:25 Y:00 P:76 SP:FB CYC:4501
C91E 30 0B    BMI $C92B			A:69 X:25 Y:00 P:34 SP:FB CYC:4503
C920 B0 09    BCS $C92B			A:69 X:25 Y:00 P:34 SP:FB CYC:4506
C922 C9 69    CMP #$69			A:69 X:25 Y:00 P:34 SP:FB CYC:4507
C924 D0 05    BNE $C92B			A:69 X:25 Y:00 P:B4 SP:FB CYC:4509
C92B A2 1E    LDX #$1E			A:69 X:25 Y:00 P:B4 SP:FB CYC:4512
C92D 86 00    STX $00			A:69 X:1E Y:00 P:34 SP:FB CYC:4514
C92F EA       NOP 			A:69 X:1E Y:00 P:34 SP:FB CYC:4517
C930 38       SEC 			A:69 X:1E Y:00 P:34 SP:FB CYC:4519
C931 F8       SED 			A:69 X:1E Y:00 P:35 SP:FB CYC:4521
C932 24 01    BIT $01			A:69 X:1E Y:00 P:3D SP:FB CYC:4523
C934 A9 01    LDA #$01			A:69 X:1E Y:00 P:FD SP:FB CYC:4526
C936 69 69    ADC #$69			A:01 X:1E Y:00 P:7D SP:FB CYC:4528
C938 30 0B    BMI $C945			A:6B X:1E Y:00 P:3C SP:FB CYC:4530
C93A B0 09    BCS $C945			A:6B X:1E Y:00 P:3C SP:FB CYC:4533
C93C C9 6B    CMP #$6B			A:6B X:1E Y:00 P:3C SP:FB CYC:4534
C93E D0 05    BNE $C945			A:6B X:1E Y:00 P:BC SP:FB CYC:4536
C945 A2 1F    LDX #$1F			A:6B X:1E Y:00 P:BC SP:FB CYC:4539
C947 86 00    STX $00			A:6B X:1F Y:00 P:3C SP:FB CYC:4541
C949 EA       NOP 			A:6B X:1F Y:00 P:3C SP:FB CYC:4544
C94A D8       CLD 			A:6B X:1F Y:00 P:3C SP:FB CYC:4546
C94B 38       SEC 			A:6B X:1F Y:00 P:34 SP:FB CYC:4548
C94C B8       CLV 			A:6B X:1F Y:00 P:35 SP:FB CYC:4550
C94D A9 7F    LDA #$7F			A:6B X:1F Y:00 P:35 SP:FB CYC:4552
C94F 69 7F    ADC #$7F			A:7F X:1F Y:00 P:35 SP:FB CYC:4554
C951 10 0B    BPL $C95E			A:FF X:1F Y:00 P:F4 SP:FB CYC:4556
C953 B0 09    BCS $C95E			A:FF X:1F Y:00 P:F4 SP:FB CYC:4559
C955 C9 FF    CMP #$FF			A:FF X:1F Y:00 P:F4 SP:FB CYC:4560
C957 D0 05    BNE $C95E			A:FF X:1F Y:00 P:F4 SP:FB CYC:4562
C95E A2 20    LDX #$20			A:FF X:1F Y:00 P:F4 SP:FB CYC:4565
C960 86 00    STX $00			A:FF X:20 Y:00 P:74 SP:FB CYC:4567
C962 EA       NOP 			A:FF X:20 Y:00 P:74 SP:FB CYC:4570
C963 18       CLC 			A:FF X:20 Y:00 P:74 SP:FB CYC:4572
C964 24 01    BIT $01			A:FF X:20 Y:00 P:74 SP:FB CYC:4574
C966 A9 7F    LDA #$7F			A:FF X:20 Y:00 P:F4 SP:FB CYC:4577
C968 69 80    ADC #$80			A:7F X:20 Y:00 P:74 SP:FB CYC:4579
C96A 10 0B    BPL $C977			A:FF X:20 Y:00 P:B4 SP:FB CYC:4581
C96C B0 09    BCS $C977			A:FF X:20 Y:00 P:B4 SP:FB CYC:4584
C96E C9 FF    CMP #$FF			A:FF X:20 Y:00 P:B4 SP:FB CYC:4585
C970 D0 05    BNE $C977			A:FF X:20 Y:00 P:B4 SP:FB CYC:4587
C977 A2 21    LDX #$21			A:FF X:20 Y:00 P:B4 SP:FB CYC:4590
C979 86 00    STX $00			A:FF X:21 Y:00 P:34 SP:FB CYC:4592
C97B EA       NOP 			A:FF X:21 Y:00 P:34 SP:FB CYC:4595
C97C 38       SEC 			A:FF X:21 Y:00 P:34 SP:FB CYC:4597
C97D B8       CLV 			A:FF X:21 Y:00 P:35 SP:FB CYC:4599
C97E A9 7F    LDA #$7F			A:FF X:21 Y:00 P:35 SP:FB CYC:4601
C980 69 80    ADC #$80			A:7F X:21 Y:00 P:35 SP:FB CYC:4603
C982 D0 09    BNE $C98D			A:00 X:21 Y:00 P:37 SP:FB CYC:4605
C984 30 07    BMI $C98D			A:00 X:21 Y:00 P:37 SP:FB CYC:4608
C986 70 05    BVS $C98D			A:00 X:21 Y:00 P:37 SP:FB CYC:4609
C988 90 03    BCC $C98D			A:00 X:21 Y:00 P:37 SP:FB CYC:4612
C98A 4C 91 C9 JMP $C991			A:00 X:21 Y:00 P:37 SP:FB CYC:4613
C991 EA       NOP 			A:00 X:21 Y:00 P:37 SP:FB CYC:4616
C992 38       SEC 			A:00 X:21 Y:00 P:37 SP:FB CYC:4618
C993 B8       CLV 			A:00 X:21 Y:00 P:37 SP:FB CYC:4620
C994 A9 9F    LDA #$9F			A:00 X:21 Y:00 P:37 SP:FB CYC:4622
C996 F0 09    BEQ $C9A1			A:9F X:21 Y:00 P:B5 SP:FB CYC:4624
C998 10 07    BPL $C9A1			A:9F X:21 Y:00 P:B5 SP:FB CYC:4627
C99A 70 05    BVS $C9A1			A:9F X:21 Y:00 P:B5 SP:FB CYC:4628
C99C 90 03    BCC $C9A1			A:9F X:21 Y:00 P:B5 SP:FB CYC:4631
C99E 4C A5 C9 JMP $C9A5			A:9F X:21 Y:00 P:B5 SP:FB CYC:4632
C9A5 EA       NOP 			A:9F X:21 Y:00 P:B5 SP:FB CYC:4635
C9A6 18       CLC 			A:9F X:21 Y:00 P:B5 SP:FB CYC:4637
C9A7 24 01    BIT $01			A:9F X:21 Y:00 P:B4 SP:FB CYC:4639
C9A9 A9 00    LDA #$00			A:9F X:21 Y:00 P:F4 SP:FB CYC:4642
C9AB D0 09    BNE $C9B6			A:00 X:21 Y:00 P:76 SP:FB CYC:4644
C9AD 30 07    BMI $C9B6			A:00 X:21 Y:00 P:76 SP:FB CYC:4647
C9AF 50 05    BVC $C9B6			A:00 X:21 Y:00 P:76 SP:FB CYC:4648
C9B1 B0 03    BCS $C9B6			A:00 X:21 Y:00 P:76 SP:FB CYC:4651
C9B3 4C BA C9 JMP $C9BA			A:00 X:21 Y:00 P:76 SP:FB CYC:4652
C9BA EA       NOP 			A:00 X:21 Y:00 P:76 SP:FB CYC:4655
C9BB 24 01    BIT $01			A:00 X:21 Y:00 P:76 SP:FB CYC:4657
C9BD A9 40    LDA #$40			A:00 X:21 Y:00 P:F6 SP:FB CYC:4660
C9BF C9 40    CMP #$40			A:40 X:21 Y:00 P:74 SP:FB CYC:4662
C9C1 30 09    BMI $C9CC			A:40 X:21 Y:00 P:F4 SP:FB CYC:4664
C9CC A2 24    LDX #$24			A:40 X:21 Y:00 P:F4 SP:FB CYC:4667
C9CE 86 00    STX $00			A:40 X:24 Y:00 P:74 SP:FB CYC:4669
C9D0 EA       NOP 			A:40 X:24 Y:00 P:74 SP:FB CYC:4672
C9D1 B8       CLV 			A:40 X:24 Y:00 P:74 SP:FB CYC:4674
C9D2 C9 3F    CMP #$3F			A:40 X:24 Y:00 P:34 SP:FB CYC:4676
C9D4 F0 09    BEQ $C9DF			A:40 X:24 Y:00 P:37 SP:FB CYC:4678
C9DF A2 25    LDX #$25			A:40 X:24 Y:00 P:37 SP:FB CYC:4681
C9E1 86 00    STX $00			A:40 X:25 Y:00 P:35 SP:FB CYC:4683
C9E3 EA       NOP 			A:40 X:25 Y:00 P:35 SP:FB CYC:4686
C9E4 C9 41    CMP #$41			A:40 X:25 Y:00 P:35 SP:FB CYC:4688
C9E6 F0 07    BEQ $C9EF			A:40 X:25 Y:00 P:B4 SP:FB CYC:4690
C9E8 10 05    BPL $C9EF			A:40 X:25 Y:00 P:B4 SP:FB CYC:4693
C9EA 10 03    BPL $C9EF			A:40 X:25 Y:00 P:B4 SP:FB CYC:4694
C9EC 4C F3 C9 JMP $C9F3			A:40 X:25 Y:00 P:B4 SP:FB CYC:4696
C9F3 EA       NOP 			A:40 X:25 Y:00 P:B4 SP:FB CYC:4699
C9F4 A9 80    LDA #$80			A:40 X:25 Y:00 P:B4 SP:FB CYC:4701
C9F6 C9 00    CMP #$00			A:80 X:25 Y:00 P:B4 SP:FB CYC:4703
C9F8 F0 07    BEQ $CA01			A:80 X:25 Y:00 P:35 SP:FB CYC:4705
C9FA 10 05    BPL $CA01			A:80 X:25 Y:00 P:35 SP:FB CYC:4707
C903 A9 70    LDA #$70			A:80 X:25 Y:00 P:35 SP:FB CYC:4710
C905 49 70    EOR #$70			A:70 X:25 Y:00 P:35 SP:FB CYC:4712
C907 D0 09    BNE $C912			A:00 X:25 Y:00 P:37 SP:FB CYC:4714
C909 70 07    BVS $C912			A:00 X:25 Y:00 P:37 SP:FB CYC:4717
C90B 90 05    BCC $C912			A:00 X:25 Y:00 P:37 SP:FB CYC:4718
C90D 30 03    BMI $C912			A:00 X:25 Y:00 P:37 SP:FB CYC:4721
C90F 4C 16 C9 JMP $C916			A:00 X:25 Y:00 P:37 SP:FB CYC:4722
C916 EA       NOP 			A:00 X:25 Y:00 P:37 SP:FB CYC:4725
C917 18       CLC 			A:00 X:25 Y:00 P:37 SP:FB CYC:4727
C918 24 01    BIT $01			A:00 X:25 Y:00 P:36 SP:FB CYC:4729
C91A A9 00    LDA #$00			A:00 X:25 Y:00 P:F6 SP:FB CYC:4732
C91C 69 69    ADC #$69			A:00 X:25 Y:00 P:76 SP:FB CYC:4734
C91E 30 0B    BMI $C92B			A:69 X:25 Y:00 P:34 SP:FB CYC:4736
C920 B0 09    BCS $C92B			A:69 X:25 Y:00 P:34 SP:FB CYC:4739
C922 C9 69    CMP #$69			A:69 X:25 Y:00 P:34 SP:FB CYC:4740
C924 D0 05    BNE $C92B			A:69 X:25 Y:00 P:B4 SP:FB CYC:4742
C92B A2 1E    LDX #$1E			A:69 X:25 Y:00 P:B4 SP:FB CYC:4745
C92D 86 00    STX $00			A:69 X:1E Y:00 P:34 SP:FB CYC:4747
C92F EA       NOP 			A:69 X:1E Y:00 P:34 SP:FB CYC:4750
C930 38       SEC 			A:69 X:1E Y:00 P:34 SP:FB CYC:4752
C931 F8       SED 			A:69 X:1E Y:00 P:35 SP:FB CYC:4754
C932 24 01    BIT $01			A:69 X:1E Y:00 P:3D SP:FB CYC:4756
C934 A9 01    LDA #$01			A:69 X:1E Y:00 P:FD SP:FB CYC:4759
C936 69 69    ADC #$69			A:01 X:1E Y:00 P:7D SP:FB CYC:4761
C938 30 0B    BMI $C945			A:6B X:1E Y:00 P:3C SP:FB CYC:4763
C93A B0 09    BCS $C945			A:6B X:1E Y:00 P:3C SP:FB CYC:4766
C93C C9 6B    CMP #$6B			A:6B X:1E Y:00 P:3C SP:FB CYC:4767
C93E D0 05    BNE $C945			A:6B X:1E Y:00 P:BC SP:FB CYC:4769
C945 A2 1F    LDX #$1F			A:6B X:1E Y:00 P:BC SP:FB CYC:4772
C947 86 00    STX $00			A:6B X:1F Y:00 P:3C SP:FB CYC:4774
C949 EA       NOP 			A:6B X:1F Y:00 P:3C SP:FB CYC:4777
C94A D8       CLD 			A:6B X:1F Y:00 P:3C SP:FB CYC:4779
C94B 38       SEC 			A:6B X:1F Y:00 P:34 SP:FB CYC:4781
C94C B8       CLV 			A:6B X:1F Y:00 P:35 SP:FB CYC:4783
C94D A9 7F    LDA #$7F			A:6B X:1F Y:00 P:35 SP:FB CYC:4785
C94F 69 7F    ADC #$7F			A:7F X:1F Y:00 P:35 SP:FB CYC:4787
C951 10 0B    BPL $C95E			A:FF X:1F Y:00 P:F4 SP:FB CYC:4789
C953 B0 09    BCS $C95E			A:FF X:1F Y:00 P:F4 SP:FB CYC:4792
C955 C9 FF    CMP #$FF			A:FF X:1F Y:00 P:F4 SP:FB CYC:4793
C957 D0 05    BNE $C95E			A:FF X:1F Y:00 P:F4 SP:FB CYC:4795
C95E A2 20    LDX #$20			A:FF X:1F Y:00 P:F4 SP:FB CYC:4798
C960 86 00    STX $00			A:FF X:20 Y:00 P:74 SP:FB CYC:4800
C962 EA       NOP 			A:FF X:20 Y:00 P:74 SP:FB CYC:4803
C963 18       CLC 			A:FF X:20 Y:00 P:74 SP:FB CYC:4805
C964 24 01    BIT $01			A:FF X:20 Y:00 P:74 SP:FB CYC:4807
C966 A9 7F    LDA #$7F			A:FF X:20 Y:00 P:F4 SP:FB CYC:4810
C968 69 80    ADC #$80			A:7F X:20 Y:00 P:74 SP:FB CYC:4812
C96A 10 0B    BPL $C977			A:FF X:20 Y:00 P:B4 SP:FB CYC:4814
C96C B0 09    BCS $C977			A:FF X:20 Y:00 P:B4 SP:FB CYC:4817
C96E C9 FF    CMP #$FF			A:FF X:20 Y:00 P:B4 SP:FB CYC:4818
C970 D0 05    BNE $C977			A:FF X:20 Y:00 P:B4 SP:FB CYC:4820
C977 A2 21    LDX #$21			A:FF X:20 Y:00 P:B4 SP:FB CYC:4823
C979 86 00    STX $00			A:FF X:21 Y:00 P:34 SP:FB CYC:4825
C97B EA       NOP 			A:FF X:21 Y:00 P:34 SP:FB CYC:4828
C97C 38       SEC 			A:FF X:21 Y:00 P:34 SP:FB CYC:4830
C97D B8       CLV 			A:FF X:21 Y:00 P:35 SP:FB CYC:4832
C97E A9 7F    LDA #$7F			A:FF X:21 Y:00 P:35 SP:FB CYC:4834
C980 69 80    ADC #$80			A:7F X:21 Y:00 P:35 SP:FB CYC:4836
C982 D0 09    BNE $C98D			A:00 X:21 Y:00 P:37 SP:FB CYC:4838
C984 30 07    BMI $C98D			A:00 X:21 Y:00 P:37 SP:FB CYC:4841
C986 70 05    BVS $C98D			A:00 X:21 Y:00 P:37 SP:FB CYC:4842
C988 90 03    BCC $C98D			A:00 X:21 Y:00 P:37 SP:FB CYC:4845
C98A 4C 91 C9 JMP $C991			A:00 X:21 Y:00 P:37 SP:FB CYC:4846
C991 EA       NOP 			A:00 X:21 Y:00 P:37 SP:FB CYC:4849
C992 38       SEC 			A:00 X:21 Y:00 P:37 SP:FB CYC:4851
C993 B8       CLV 			A:00 X:21 Y:00 P:37 SP:FB CYC:4853
C994 A9 9F    LDA #$9F			A:00 X:21 Y:00 P:37 SP:FB CYC:4855
C996 F0 09    BEQ $C9A1			A:9F X:21 Y:00 P:B5 SP:FB CYC:4857
C998 10 07    BPL $C9A1			A:9F X:21 Y:00 P:B5 SP:FB CYC:4860
C99A 70 05    BVS $C9A1			A:9F X:21 Y:00 P:B5 SP:FB CYC:4861
C99C 90 03    BCC $C9A1			A:9F X:21 Y:00 P:B5 SP:FB CYC:4864
C99E 4C A5 C9 JMP $C9A5			A:9F X:21 Y:00 P:B5 SP:FB CYC:4865
C9A5 EA       NOP 			A:9F X:21 Y:00 P:B5 SP:FB CYC:4868
C9A6 18       CLC 			A:9F X:21 Y:00 P:B5 SP:FB CYC:4870
C9A7 24 01    BIT $01			A:9F X:21 Y:00 P:B4 SP:FB CYC:4872
C9A9 A9 00    LDA #$00			A:9F X:21 Y:00 P:F4 SP:FB CYC:4875
C9AB D0 09    BNE $C9B6			A:00 X:21 Y:00 P:76 SP:FB CYC:4877
C9AD 30 07    BMI $C9B6			A:00 X:21 Y:00 P:76 SP:FB CYC:4880
C9AF 50 05    BVC $C9B6			A:00 X:21 Y:00 P:76 SP:FB CYC:4881
C9B1 B0 03    BCS $C9B6			A:00 X:21 Y:00 P:76 SP:FB CYC:4884
C9B3 4C BA C9 JMP $C9BA			A:00 X:21 Y:00 P:76 SP:FB CYC:4885
C9BA EA       NOP 			A:00 X:21 Y:00 P:76 SP:FB CYC:4888
C9BB 24 01    BIT $01			A:00 X:21 Y:00 P:76 SP:FB CYC:4890
C9BD A9 40    LDA #$40			A:00 X:21 Y:00 P:F6 SP:FB CYC:4893
C9BF C9 40    CMP #$40			A:40 X:21 Y:00 P:74 SP:FB CYC:4895
C9C1 30 09    BMI $C9CC			A:40 X:21 Y:00 P:F4 SP:FB CYC:4897
C9CC A2 24    LDX #$24			A:40 X:21 Y:00 P:F4 SP:FB CYC:4900
C9CE 86 00    STX $00			A:40 X:24 Y:00 P:74 SP:FB CYC:4902
C9D0 EA       NOP 			A:40 X:24 Y:00 P:74 SP:FB CYC:4905
C9D1 B8       CLV 			A:40 X:24 Y:00 P:74 SP:FB CYC:4907
C9D2 C9 3F    CMP #$3F			A:40 X:24 Y:00 P:34 SP:FB CYC:4909
C9D4 F0 09    BEQ $C9DF			A:40 X:24 Y:00 P:37 SP:FB CYC:4911
C9DF A2 25    LDX #$25			A:40 X:24 Y:00 P:37 SP:FB CYC:4914
C9E1 86 00    STX $00			A:40 X:25 Y:00 P:35 SP:FB CYC:4916
C9E3 EA       NOP 			A:40 X:25 Y:00 P:35 SP:FB CYC:4919
C9E4 C9 41    CMP #$41			A:40 X:25 Y:00 P:35 SP:FB CYC:4921
C9E6 F0 07    BEQ $C9EF			A:40 X:25 Y:00 P:B4 SP:FB CYC:4923
C9E8 10 05    BPL $C9EF			A:40 X:25 Y:00 P:B4 SP:FB CYC:4926
C9EA 10 03    BPL $C9EF			A:40 X:25 Y:00 P:B4 SP:FB CYC:4927
C9EC 4C F3 C9 JMP $C9F3			A:40 X:25 Y:00 P:B4 SP:FB CYC:4929
C9F3 EA       NOP 			A:40 X:25 Y:00 P:B4 SP:FB CYC:4932
C9F4 A9 80    LDA #$80			A:40 X:25 Y:00 P:B4 SP:FB CYC:4934
C9F6 C9 00    CMP #$00			A:80 X:25 Y:00 P:B4 SP:FB CYC:4936
C9F8 F0 07    BEQ $CA01			A:80 X:25 Y:00 P:35 SP:FB CYC:4938
C9FA 10 05    BPL $CA01			A:80 X:25 Y:00 P:35 SP:FB CYC:4940
C903 A9 70    LDA #$70			A:80 X:25 Y:00 P:35 SP:FB CYC:4943
C905 49 70    EOR #$70			A:70 X:25 Y:00 P:35 SP:FB CYC:4945
C907 D0 09    BNE $C912			A:00 X:25 Y:00 P:37 SP:FB CYC:4947
C909 70 07    BVS $C912			A:00 X:25 Y:00 P:37 SP:FB CYC:4950
C90B 90 05    BCC $C912			A:00 X:25 Y:00 P:37 SP:FB CYC:4951
C90D 30 03    BMI $C912			A:00 X:25 Y:00 P:37 SP:FB CYC:4954
C90F 4C 16 C9 JMP $C916			A:00 X:25 Y:00 P:37 SP:FB CYC:4955
C916 EA       NOP 			A:00 X:25 Y:00 P:37 SP:FB CYC:4958
C917 18       CLC 			A:00 X:25 Y:00 P:37 SP:FB CYC:4960
C918 24 01    BIT $01			A:00 X:25 Y:00 P:36 SP:FB CYC:4962
C91A A9 00    LDA #$00			A:00 X:25 Y:00 P:F6 SP:FB CYC:4965
C91C 69 69    ADC #$69			A:00 X:25 Y:00 P:76 SP:FB CYC:4967
C91E 30 0B    BMI $C92B			A:69 X:25 Y:00 P:34 SP:FB CYC:4969
C920 B0 09    BCS $C92B			A:69 X:25 Y:00 P:34 SP:FB CYC:4972
C922 C9 69    CMP #$69			A:69 X:25 Y:00 P:34 SP:FB CYC:4973
C924 D0 05    BNE $C92B			A:69 X:25 Y:00 P:B4 SP:FB CYC:4975
C92B A2 1E    LDX #$1E			A:69 X:25 Y:00 P:B4 SP:FB CYC:4978
C92D 86 00    STX $00			A:69 X:1E Y:00 P:34 SP:FB CYC:4980
C92F EA       NOP 			A:69 X:1E Y:00 P:34 SP:FB CYC:4983
C930 38       SEC 			A:69 X:1E Y:00 P:34 SP:FB CYC:4985
C931 F8       SED 			A:69 X:1E Y:00 P:35 SP:FB CYC:4987
C932 24 01    BIT $01			A:69 X:1E Y:00 P:3D SP:FB CYC:4989
C934 A9 01    LDA #$01			A:69 X:1E Y:00 P:FD SP:FB CYC:4992
C936 69 69    ADC #$69			A:01 X:1E Y:00 P:7D SP:FB CYC:4994
C938 30 0B    BMI $C945			A:6B X:1E Y:00 P:3C SP:FB CYC:4996
C93A B0 09    BCS $C945			A:6B X:1E Y:00 P:3C SP:FB CYC:4999
C93C C9 6B    CMP #$6B			A:6B X:1E Y:00 P:3C SP:FB CYC:5000
C93E D0 05    BNE $C945			A:6B X:1E Y:00 P:BC SP:FB CYC:5002
C945 A2 1F    LDX #$1F			A:6B X:1E Y:00 P:BC SP:FB CYC:5005
C947 86 00    STX $00			A:6B X:1F Y:00 P:3C SP:FB CYC:5007
C949 EA       NOP 			A:6B X:1F Y:00 P:3C SP:FB CYC:5010
C94A D8       CLD 			A:6B X:1F Y:00 P:3C SP:FB CYC:5012
C94B 38       SEC 			A:6B X:1F Y:00 P:34 SP:FB CYC:5014
C94C B8       CLV 			A:6B X:1F Y:00 P:35 SP:FB CYC:5016
C94D A9 7F    LDA #$7F			A:6B X:1F Y:00 P:35 SP:FB CYC:5018
C94F 69 7F    ADC #$7F			A:7F X:1F Y:00 P:35 SP:FB CYC:5020
C951 10 0B    BPL $C95E			A:FF X:1F Y:00 P:F4 SP:FB CYC:5022
C953 B0 09    BCS $C95E			A:FF X:1F Y:00 P:F4 SP:FB CYC:5025
C955 C9 FF    CMP #$FF			A:FF X:1F Y:00 P:F4 SP:FB CYC:5026
C957 D0 05    BNE $C95E			A:FF X:1F Y:00 P:F4 SP:FB CYC:5028
C95E A2 20    LDX #$20			A:FF X:1F Y:00 P:F4 SP:FB CYC:5031
C960 86 00    STX $00			A:FF X:20 Y:00 P:74 SP:FB CYC:5033
C962 EA       NOP 			A:FF X:20 Y:00 P:74 SP:FB CYC:5036
C963 18       CLC 			A:FF X:20 Y:00 P:74 SP:FB CYC:5038
C964 24 01    BIT $01			A:FF X:20 Y:00 P:74 SP:FB CYC:5040
C966 A9 7F    LDA #$7F			A:FF X:20 Y:00 P:F4 SP:FB CYC:5043
C968 69 80    ADC #$80			A:7F X:20 Y:00 P:74 SP:FB CYC:5045
C96A 10 0B    BPL $C977			A:FF X:20 Y:00 P:B4 SP:FB CYC:5047
C96C B0 09    BCS $C977			A:FF X:20 Y:00 P:B4 SP:FB CYC:5050
C96E C9 FF    CMP #$FF			A:FF X:20 Y:00 P:B4 SP:FB CYC:5051
C970 D0 05    BNE $C977			A:FF X:20 Y:00 P:B4 SP:FB CYC:5053
C977 A2 21    LDX #$21			A:FF X:20 Y:00 P:B4 SP:FB CYC:5056
C979 86 00    STX $00			A:FF X:21 Y:00 P:34 SP:FB CYC:5058
C97B EA       NOP 			A:FF X:21 Y:00 P:34 SP:FB CYC:5061
C97C 38       SEC 			A:FF X:21 Y:00 P:34 SP:FB CYC:5063
C97D B8       CLV 			A:FF X:21 Y:00 P:35 SP:FB CYC:5065
C97E A9 7F    LDA #$7F			A:FF X:21 Y:00 P:35 SP:FB CYC:5067
C980 69 80    ADC #$80			A:7F X:21 Y:00 P:35 SP:FB CYC:5069
C982 D0 09    BNE $C98D			A:00 X:21 Y:00 P:37 SP:FB CYC:5071
C984 30 07    BMI $C98D			A:00 X:21 Y:00 P:37 SP:FB CYC:5074
C986 70 05    BVS $C98D			A:00 X:21 Y:00 P:37 SP:FB CYC:5075
C988 90 03    BCC $C98D			A:00 X:21 Y:00 P:37 SP:FB CYC:5078
C98A 4C 91 C9 JMP $C991			A:00 X:21 Y:00 P:37 SP:FB CYC:5079
C991 EA       NOP 			A:00 X:21 Y:00 P:37 SP:FB CYC:5082
C992 38       SEC 			A:00 X:21 Y:00 P:37 SP:FB CYC:5084
C993 B8       CLV 			A:00 X:21 Y:00 P:37 SP:FB CYC:5086
C994 A9 9F    LDA #$9F			A:00 X:21 Y:00 P:37 SP:FB CYC:5088
C996 F0 09    BEQ $C9A1			A:9F X:21 Y:00 P:B5 SP:FB CYC:5090
C998 10 07    BPL $C9A1			A:9F X:21 Y:00 P:B5 SP:FB CYC:5093
C99A 70 05    BVS $C9A1			A:9F X:21 Y:00 P:B5 SP:FB CYC:5094
C99C 90 03    BCC $C9A1			A:9F X:21 Y:00 P:B5 SP:FB CYC:5097
C99E 4C A5 C9 JMP $C9A5			A:9F X:21 Y:00 P:B5 SP:FB CYC:5098
C9A5 EA       NOP 			A:9F X:21 Y:00 P:B5 SP:FB CYC:5101
C9A6 18       CLC 			A:9F X:21 Y:00 P:B5 SP:FB CYC:5103
C9A7 24 01    BIT $01			A:9F X:21 Y:00 P:B4 SP:FB CYC:5105
C9A9 A9 00    LDA #$00			A:9F X:21 Y:00 P:F4 SP:FB CYC:5108
C9AB D0 09    BNE $C9B6			A:00 X:21 Y:00 P:76 SP:FB CYC:5110
C9AD 30 07    BMI $C9B6			A:00 X:21 Y:00 P:76 SP:FB CYC:5113
C9AF 50 05    BVC $C9B6			A:00 X:21 Y:00 P:76 SP:FB CYC:5114
C9B1 B0 03    BCS $C9B6			A:00 X:21 Y:00 P:76 SP:FB CYC:5117
C9B3 4C BA C9 JMP $C9BA			A:00 X:21 Y:00 P:76 SP:FB CYC:5118
C9BA EA       NOP 			A:00 X:21 Y:00 P:76 SP:FB CYC:5121
C9BB 24 01    BIT $01			A:00 X:21 Y:00 P:76 SP:FB CYC:5123
C9BD A9 40    LDA #$40			A:00 X:21 Y:00 P:F6 SP:FB CYC:5126
C9BF C9 40    CMP #$40			A:40 X:21 Y:00 P:74 SP:FB CYC:5128
C9C1 30 09    BMI $C9CC			A:40 X:21 Y:00 P:F4 SP:FB CYC:5130
C9CC A2 24    LDX #$24			A:40 X:21 Y:00 P:F4 SP:FB CYC:5133
C9CE 86 00    STX $00			A:40 X:24 Y:00 P:74 SP:FB CYC:5135
C9D0 EA       NOP 			A:40 X:24 Y:00 P:74 SP:FB CYC:5138
C9D1 B8       CLV 			A:40 X:24 Y:00 P:74 SP:FB CYC:5140
C9D2 C9 3F    CMP #$3F			A:40 X:24 Y:00 P:34 SP:FB CYC:5142
C9D4 F0 09    BEQ $C9DF			A:40 X:24 Y:00 P:37 SP:FB CYC:5144
C9DF A2 25    LDX #$25			A:40 X:24 Y:00 P:37 SP:FB CYC:5147
C9E1 86 00    STX $00			A:40 X:25 Y:00 P:35 SP:FB CYC:5149
C9E3 EA       NOP 			A:40 X:25 Y:00 P:35 SP:FB CYC:5152
C9E4 C9 41    CMP #$41			A:40 X:25 Y:00 P:35 SP:FB CYC:5154
C9E6 F0 07    BEQ $C9EF			A:40 X:25 Y:00 P:B4 SP:FB CYC:5156
C9E8 10 05    BPL $C9EF			A:40 X:25 Y:00 P:B4 SP:FB CYC:5159
C9EA 10 03    BPL $C9EF			A:40 X:25 Y:00 P:B4 SP:FB CYC:5160
C9EC 4C F3 C9 JMP $C9F3			A:40 X:25 Y:00 P:B4 SP:FB CYC:5162
C9F3 EA       NOP 			A:40 X:25 Y:00 P:B4 SP:FB CYC:5165
C9F4 A9 80    LDA #$80			A:40 X:25 Y:00 P:B4 SP:FB CYC:5167
C9F6 C9 00    CMP #$00			A:80 X:25 Y:00 P:B4 SP:FB CYC:5169
C9F8 F0 07    BEQ $CA01			A:80 X:25 Y:00 P:35 SP:FB CYC:5171
C9FA 10 05    BPL $CA01			A:80 X:25 Y:00 P:35 SP:FB CYC:5173
C903 A9 70    LDA #$70			A:80 X:25 Y:00 P:35 SP:FB CYC:5176
C905 49 70    EOR #$70			A:70 X:25 Y:00 P:35 SP:FB CYC:5178
C907 D0 09    BNE $C912			A:00 X:25 Y:00 P:37 SP:FB CYC:5180
C909 70 07    BVS $C912			A:00 X:25 Y:00 P:37 SP:FB CYC:5183
C90B 90 05    BCC $C912			A:00 X:25 Y:00 P:37 SP:FB CYC:5184
C90D 30 03    BMI $C912			A:00 X:25 Y:00 P:37 SP:FB CYC:5187
C90F 4C 16 C9 JMP $C916			A:00 X:25 Y:00 P:37 SP:FB CYC:5188
C916 EA       NOP 			A:00 X:25 Y:00 P:37 SP:FB CYC:5191
C917 18       CLC 			A:00 X:25 Y:00 P:37 SP:FB CYC:5193
C918 24 01    BIT $01			A:00 X:25 Y:00 P:36 SP:FB CYC:5195
C91A A9 00    LDA #$00			A:00 X:25 Y:00 P:F6 SP:FB CYC:5198
C91C 69 69    ADC #$69			A:00 X:25 Y:00 P:76 SP:FB CYC:5200
C91E 30 0B    BMI $C92B			A:69 X:25 Y:00 P:34 SP:FB CYC:5202
C920 B0 09    BCS $C92B			A:69 X:25 Y:00 P:34 SP:FB CYC:5205
C922 C9 69    CMP #$69			A:69 X:25 Y:00 P:34 SP:FB CYC:5206
C924 D0 05    BNE $C92B			A:69 X:25 Y:00 P:B4 SP:FB CYC:5208
C92B A2 1E    LDX #$1E			A:69 X:25 Y:00 P:B4 SP:FB CYC:5211
C92D 86 00    STX $00			A:69 X:1E Y:00 P:34 SP:FB CYC:5213
C92F EA       NOP 			A:69 X:1E Y:00 P:34 SP:FB CYC:5216
C930 38       SEC 			A:69 X:1E Y:00 P:34 SP:FB CYC:5218
C931 F8       SED 			A:69 X:1E Y:00 P:35 SP:FB CYC:5220
C932 24 01    BIT $01			A:69 X:1E Y:00 P:3D SP:FB CYC:5222
C934 A9 01    LDA #$01			A:69 X:1E Y:00 P:FD SP:FB CYC:5225
C936 69 69    ADC #$69			A:01 X:1E Y:00 P:7D SP:FB CYC:5227
C938 30 0B    BMI $C945			A:6B X:1E Y:00 P:3C SP:FB CYC:5229
C93A B0 09    BCS $C945			A:6B X:1E Y:00 P:3C SP:FB CYC:5232
C93C C9 6B    CMP #$6B			A:6B X:1E Y:00 P:3C SP:FB CYC:5233
C93E D0 05    BNE $C945			A:6B X:1E Y:00 P:BC SP:FB CYC:5235
C945 A2 1F    LDX #$1F			A:6B X:1E Y:00 P:BC SP:FB CYC:5238
C947 86 00    STX $00			A:6B X:1F Y:00 P:3C SP:FB CYC:5240
C949 EA       NOP 			A:6B X:1F Y:00 P:3C SP:FB CYC:5243
C94A D8       CLD 			A:6B X:1F Y:00 P:3C SP:FB CYC:5245
C94B 38       SEC 			A:6B X:1F Y:00 P:34 SP:FB CYC:5247
C94C B8       CLV 			A:6B X:1F Y:00 P:35 SP:FB CYC:5249
C94D A9 7F    LDA #$7F			A:6B X:1F Y:00 P:35 SP:FB CYC:5251
C94F 69 7F    ADC #$7F			A:7F X:1F Y:00 P:35 SP:FB CYC:5253
C951 10 0B    BPL $C95E			A:FF X:1F Y:00 P:F4 SP:FB CYC:5255
C953 B0 09    BCS $C95E			A:FF X:1F Y:00 P:F4 SP:FB CYC:5258
C955 C9 FF    CMP #$FF			A:FF X:1F Y:00 P:F4 SP:FB CYC:5259
C957 D0 05    BNE $C95E			A:FF X:1F Y:00 P:F4 SP:FB CYC:5261
C95E A2 20    LDX #$20			A:FF X:1F Y:00 P:F4 SP:FB CYC:5264
C960 86 00    STX $00			A:FF X:20 Y:00 P:74 SP:FB CYC:5266
C962 EA       NOP 			A:FF X:20 Y:00 P:74 SP:FB CYC:5269
C963 18       CLC 			A:FF X:20 Y:00 P:74 SP:FB CYC:5271
C964 24 01    BIT $01			A:FF X:20 Y:00 P:74 SP:FB CYC:5273
C966 A9 7F    LDA #$7F			A:FF X:20 Y:00 P:F4 SP:FB CYC:5276
C968 69 80    ADC #$80			A:7F X:20 Y:00 P:74 SP:FB CYC:5278
C96A 10 0B    BPL $C977			A:FF X:20 Y:00 P:B4 SP:FB CYC:5280
C96C B0 09    BCS $C977			A:FF X:20 Y:00 P:B4 SP:FB CYC:5283
C96E C9 FF    CMP #$FF			A:FF X:20 Y:00 P:B4 SP:FB CYC:5284
C970 D0 05    BNE $C977			A:FF X:20 Y:00 P:B4 SP:FB CYC:5286
C977 A2 21    LDX #$21			A:FF X:20 Y:00 P:B4 SP:FB CYC:5289
C979 86 00    STX $00			A:FF X:21 Y:00 P:34 SP:FB CYC:5291
C97B EA       NOP 			A:FF X:21 Y:00 P:34 SP:FB CYC:5294
C97C 38       SEC 			A:FF X:21 Y:00 P:34 SP:FB CYC:5296
C97D B8       CLV 			A:FF X:21 Y:00 P:35 SP:FB CYC:5298
C97E A9 7F    LDA #$7F			A:FF X:21 Y:00 P:35 SP:FB CYC:5300
C980 69 80    ADC #$80			A:7F X:21 Y:00 P:35 SP:FB CYC:5302
C982 D0 09    BNE $C98D			A:00 X:21 Y:00 P:37 SP:FB CYC:5304
C984 30 07    BMI $C98D			A:00 X:21 Y:00 P:37 SP:FB CYC:5307
C986 70 05    BVS $C98D			A:00 X:21 Y:00 P:37 SP:FB CYC:5308
C988 90 03    BCC $C98D			A:00 X:21 Y:00 P:37 SP:FB CYC:5311
C98A 4C 91 C9 JMP $C991			A:00 X:21 Y:00 P:37 SP:FB CYC:5312
C991 EA       NOP 			A:00 X:21 Y:00 P:37 SP:FB CYC:5315
C992 38       SEC 			A:00 X:21 Y:00 P:37 SP:FB CYC:5317
C993 B8       CLV 			A:00 X:21 Y:00 P:37 SP:FB CYC:5319
C994 A9 9F    LDA #$9F			A:00 X:21 Y:00 P:37 SP:FB CYC:5321
C996 F0 09    BEQ $C9A1			A:9F X:21 Y:00 P:B5 SP:FB CYC:5323
C998 10 07    BPL $C9A1			A:9F X:21 Y:00 P:B5 SP:FB CYC:5326
C99A 70 05    BVS $C9A1			A:9F X:21 Y:00 P:B5 SP:FB CYC:5327
C99C 90 03    BCC $C9A1			A:9F X:21 Y:00 P:B5 SP:FB CYC:5330
C99E 4C A5 C9 JMP $C9A5			A:9F X:21 Y:00 P:B5 SP:FB CYC:5331
C9A5 EA       NOP 			A:9F X:21 Y:00 P:B5 SP:FB CYC:5334
C9A6 18       CLC 			A:9F X:21 Y:00 P:B5 SP:FB CYC:5336
C9A7 24 01    BIT $01			A:9F X:21 Y:00 P:B4 SP:FB CYC:5338
C9A9 A9 00    LDA #$00			A:9F X:21 Y:00 P:F4 SP:FB CYC:5341
C9AB D0 09    BNE $C9B6			A:00 X:21 Y:00 P:76 SP:FB CYC:5343
C9AD 30 07    BMI $C9B6			A:00 X:21 Y:00 P:76 SP:FB CYC:5346
C9AF 50 05    BVC $C9B6			A:00 X:21 Y:00 P:76 SP:FB CYC:5347
C9B1 B0 03    BCS $C9B6			A:00 X:21 Y:00 P:76 SP:FB CYC:5350
C9B3 4C BA C9 JMP $C9BA			A:00 X:21 Y:00 P:76 SP:FB CYC:5351
C9BA EA       NOP 			A:00 X:21 Y:00 P:76 SP:FB CYC:5354
C9BB 24 01    BIT $01			A:00 X:21 Y:00 P:76 SP:FB CYC:5356
C9BD A9 40    LDA #$40			A:00 X:21 Y:00 P:F6 SP:FB CYC:5359
C9BF C9 40    CMP #$40			A:40 X:21 Y:00 P:74 SP:FB CYC:5361
C9C1 30 09    BMI $C9CC			A:40 X:21 Y:00 P:F4 SP:FB CYC:5363
C9CC A2 24    LDX #$24			A:40 X:21 Y:00 P:F4 SP:FB CYC:5366
C9CE 86 00    STX $00			A:40 X:24 Y:00 P:74 SP:FB CYC:5368
C9D0 EA       NOP 			A:40 X:24 Y:00 P:74 SP:FB CYC:5371
C9D1 B8       CLV 			A:40 X:24 Y:00 P:74 SP:FB CYC:5373
C9D2 C9 3F    CMP #$3F			A:40 X:24 Y:00 P:34 SP:FB CYC:5375
C9D4 F0 09    BEQ $C9DF			A:40 X:24 Y:00 P:37 SP:FB CYC:5377
C9DF A2 25    LDX #$25			A:40 X:24 Y:00 P:37 SP:FB CYC:5380
C9E1 86 00    STX $00			A:40 X:25 Y:00 P:35 SP:FB CYC:5382
C9E3 EA       NOP 			A:40 X:25 Y:00 P:35 SP:FB CYC:5385
C9E4 C9 41    CMP #$41			A:40 X:25 Y:00 P:35 SP:FB CYC:5387
C9E6 F0 07    BEQ $C9EF			A:40 X:25 Y:00 P:B4 SP:FB CYC:5389
C9E8 10 05    BPL $C9EF			A:40 X:25 Y:00 P:B4 SP:FB CYC:5392
C9EA 10 03    BPL $C9EF			A:40 X:25 Y:00 P:B4 SP:FB CYC:5393
C9EC 4C F3 C9 JMP $C9F3			A:40 X:25 Y:00 P:B4 SP:FB CYC:5395
C9F3 EA       NOP 			A:40 X:25 Y:00 P:B4 SP:FB CYC:5398
C9F4 A9 80    LDA #$80			A:40 X:25 Y:00 P:B4 SP:FB CYC:5400
C9F6 C9 00    CMP #$00			A:80 X:25 Y:00 P:B4 SP:FB CYC:5402
C9F8 F0 07    BEQ $CA01			A:80 X:25 Y:00 P:35 SP:FB CYC:5404
C9FA 10 05    BPL $CA01			A:80 X:25 Y:00 P:35 SP:FB CYC:5406
C903 A9 70    LDA #$70			A:80 X:25 Y:00 P:35 SP:FB CYC:5409
C905 49 70    EOR #$70			A:70 X:25 Y:00 P:35 SP:FB CYC:5411
C907 D0 09    BNE $C912			A:00 X:25 Y:00 P:37 SP:FB CYC:5413
C909 70 07    BVS $C912			A:00 X:25 Y:00 P:37 SP:FB CYC:5416
C90B 90 05    BCC $C912			A:00 X:25 Y:00 P:37 SP:FB CYC:5417
C90D 30 03    BMI $C912			A:00 X:25 Y:00 P:37 SP:FB CYC:5420
C90F 4C 16 C9 JMP $C916			A:00 X:25 Y:00 P:37 SP:FB CYC:5421
C916 EA       NOP 			A:00 X:25 Y:00 P:37 SP:FB CYC:5424
C917 18       CLC 			A:00 X:25 Y:00 P:37 SP:FB CYC:5426
C918 24 01    BIT $01			A:00 X:25 Y:00 P:36 SP:FB CYC:5428
C91A A9 00    LDA #$00			A:00 X:25 Y:00 P:F6 SP:FB CYC:5431
C91C 69 69    ADC #$69			A:00 X:25 Y:00 P:76 SP:FB CYC:5433
C91E 30 0B    BMI $C92B			A:69 X:25 Y:00 P:34 SP:FB CYC:5435
C920 B0 09    BCS $C92B			A:69 X:25 Y:00 P:34 SP:FB CYC:5438
C922 C9 69    CMP #$69			A:69 X:25 Y:00 P:34 SP:FB CYC:5439
C924 D0 05    BNE $C92B			A:69 X:25 Y:00 P:B4 SP:FB CYC:5441
C92B A2 1E    LDX #$1E			A:69 X:25 Y:00 P:B4 SP:FB CYC:5444
C92D 86 00    STX $00			A:69 X:1E Y:00 P:34 SP:FB CYC:5446
C92F EA       NOP 			A:69 X:1E Y:00 P:34 SP:FB CYC:5449
C930 38       SEC 			A:69 X:1E Y:00 P:34 SP:FB CYC:5451
C931 F8       SED 			A:69 X:1E Y:00 P:35 SP:FB CYC:5453
C932 24 01    BIT $01			A:69 X:1E Y:00 P:3D SP:FB CYC:5455
C934 A9 01    LDA #$01			A:69 X:1E Y:00 P:FD SP:FB CYC:5458
C936 69 69    ADC #$69			A:01 X:1E Y:00 P:7D SP:FB CYC:5460
C938 30 0B    BMI $C945			A:6B X:1E Y:00 P:3C SP:FB CYC:5462
C93A B0 09    BCS $C945			A:6B X:1E Y:00 P:3C SP:FB CYC:5465
C93C C9 6B    CMP #$6B			A:6B X:1E Y:00 P:3C SP:FB CYC:5466
C93E D0 05    BNE $C945			A:6B X:1E Y:00 P:BC SP:FB CYC:5468
C945 A2 1F    LDX #$1F			A:6B X:1E Y:00 P:BC SP:FB CYC:5471
C947 86 00    STX $00			A:6B X:1F Y:00 P:3C SP:FB CYC:5473
C949 EA       NOP 			A:6B X:1F Y:00 P:3C SP:FB CYC:5476
C94A D8       CLD 			A:6B X:1F Y:00 P:3C SP:FB CYC:5478
C94B 38       SEC 			A:6B X:1F Y:00 P:34 SP:FB CYC:5480
C94C B8       CLV 			A:6B X:1F Y:00 P:35 SP:FB CYC:5482
C94D A9 7F    LDA #$7F			A:6B X:1F Y:00 P:35 SP:FB CYC:5484
C94F 69 7F    ADC #$7F			A:7F X:1F Y:00 P:35 SP:FB CYC:5486
C951 10 0B    BPL $C95E			A:FF X:1F Y:00 P:F4 SP:FB CYC:5488
C953 B0 09    BCS $C95E			A:FF X:1F Y:00 P:F4 SP:FB CYC:5491
C955 C9 FF    CMP #$FF			A:FF X:1F Y:00 P:F4 SP:FB CYC:5492
C957 D0 05    BNE $C95E			A:FF X:1F Y:00 P:F4 SP:FB CYC:5494
C95E A2 20    LDX #$20			A:FF X:1F Y:00 P:F4 SP:FB CYC:5497
C960 86 00    STX $00			A:FF X:20 Y:00 P:74 SP:FB CYC:5499
C962 EA       NOP 			A:FF X:20 Y:00 P:74 SP:FB CYC:5502
C963 18       CLC 			A:FF X:20 Y:00 P:74 SP:FB CYC:5504
C964 24 01    BIT $01			A:FF X:20 Y:00 P:74 SP:FB CYC:5506
C966 A9 7F    LDA #$7F			A:FF X:20 Y:00 P:F4 SP:FB CYC:5509
C968 69 80    ADC #$80			A:7F X:20 Y:00 P:74 SP:FB CYC:5511
C96A 10 0B    BPL $C977			A:FF X:20 Y:00 P:B4 SP:FB CYC:5513
C96C B0 09    BCS $C977			A:FF X:20 Y:00 P:B4 SP:FB CYC:5516
C96E C9 FF    CMP #$FF			A:FF X:20 Y:00 P:B4 SP:FB CYC:5517
C970 D0 05    BNE $C977			A:FF X:20 Y:00 P:B4 SP:FB CYC:5519
C977 A2 21    LDX #$21			A:FF X:20 Y:00 P:B4 SP:FB CYC:5522
C979 86 00    STX $00			A:FF X:21 Y:00 P:34 SP:FB CYC:5524
C97B EA       NOP 			A:FF X:21 Y:00 P:34 SP:FB CYC:5527
C97C 38       SEC 			A:FF X:21 Y:00 P:34 SP:FB CYC:5529
C97D B8       CLV 			A:FF X:21 Y:00 P:35 SP:FB CYC:5531
C97E A9 7F    LDA #$7F			A:FF X:21 Y:00 P:35 SP:FB CYC:5533
C980 69 80    ADC #$80			A:7F X:21 Y:00 P:35 SP:FB CYC:5535
C982 D0 09    BNE $C98D			A:00 X:21 Y:00 P:37 SP:FB CYC:5537
C984 30 07    BMI $C98D			A:00 X:21 Y:00 P:37 SP:FB CYC:5540
C986 70 05    BVS $C98D			A:00 X:21 Y:00 P:37 SP:FB CYC:5541
C988 90 03    BCC $C98D			A:00 X:21 Y:00 P:37 SP:FB CYC:5544
C98A 4C 91 C9 JMP $C991			A:00 X:21 Y:00 P:37 SP:FB CYC:5545
C991 EA       NOP 			A:00 X:21 Y:00 P:37 SP:FB CYC:5548
C992 38       SEC 			A:00 X:21 Y:00 P:37 SP:FB CYC:5550
C993 B8       CLV 			A:00 X:21 Y:00 P:37 SP:FB CYC:5552
C994 A9 9F    LDA #$9F			A:00 X:21 Y:00 P:37 SP:FB CYC:5554
C996 F0 09    BEQ $C9A1			A:9F X:21 Y:00 P:B5 SP:FB CYC:5556
C998 10 07    BPL $C9A1			A:9F X:21 Y:00 P:B5 SP:FB CYC:5559
C99A 70 05    BVS $C9A1			A:9F X:21 Y:00 P:B5 SP:FB CYC:5560
C99C 90 03    BCC $C9A1			A:9F X:21 Y:00 P:B5 SP:FB CYC:5563
C99E 4C A5 C9 JMP $C9A5			A:9F X:21 Y:00 P:B5 SP:FB CYC:5564
C9A5 EA       NOP 			A:9F X:21 Y:00 P:B5 SP:FB CYC:5567
C9A6 18       CLC 			A:9F X:21 Y:00 P:B5 SP:FB CYC:5569
C9A7 24 01    BIT $01			A:9F X:21 Y:00 P:B4 SP:FB CYC:5571
C9A9 A9 00    LDA #$00			A:9F X:21 Y:00 P:F4 SP:FB CYC:5574
C9AB D0 09    BNE $C9B6			A:00 X:21 Y:00 P:76 SP:FB CYC:5576
C9AD 30 07    BMI $C9B6			A:00 X:21 Y:00 P:76 SP:FB CYC:5579
C9AF 50 05    BVC $C9B6			A:00 X:21 Y:00 P:76 SP:FB CYC:5580
C9B1 B0 03    BCS $C9B6			A:00 X:21 Y:00 P:76 SP:FB CYC:5583
C9B3 4C BA C9 JMP $C9BA			A:00 X:21 Y:00 P:76 SP:FB CYC:5584
C9BA EA       NOP 			A:00 X:21 Y:00 P:76 SP:FB CYC:5587
C9BB 24 01    BIT $01			A:00 X:21 Y:00 P:76 SP:FB CYC:5589
C9BD A9 40    LDA #$40			A:00 X:21 Y:00 P:F6 SP:FB CYC:5592
C9BF C9 40    CMP #$40			A:40 X:21 Y:00 P:74 SP:FB CYC:5594
C9C1 30 09    BMI $C9CC			A:40 X:21 Y:00 P:F4 SP:FB CYC:5596
C9CC A2 24    LDX #$24			A:40 X:21 Y:00 P:F4 SP:FB CYC:5599
C9CE 86 00    STX $00			A:40 X:24 Y:00 P:74 SP:FB CYC:5601
C9D0 EA       NOP 			A:40 X:24 Y:00 P:74 SP:FB CYC:5604
C9D1 B8       CLV 			A:40 X:24 Y:00 P:74 SP:FB CYC:5606
C9D2 C9 3F    CMP #$3F			A:40 X:24 Y:00 P:34 SP:FB CYC:5608
C9D4 F0 09    BEQ $C9DF			A:40 X:24 Y:00 P:37 SP:FB CYC:5610
C9DF A2 25    LDX #$25			A:40 X:24 Y:00 P:37 SP:FB CYC:5613
C9E1 86 00    STX $00			A:40 X:25 Y:00 P:35 SP:FB CYC:5615
C9E3 EA       NOP 			A:40 X:25 Y:00 P:35 SP:FB CYC:5618
C9E4 C9 41    CMP #$41			A:40 X:25 Y:00 P:35 SP:FB CYC:5620
C9E6 F0 07    BEQ $C9EF			A:40 X:25 Y:00 P:B4 SP:FB CYC:5622
C9E8 10 05    BPL $C9EF			A:40 X:25 Y:00 P:B4 SP:FB CYC:5625
C9EA 10 03    BPL $C9EF			A:40 X:25 Y:00 P:B4 SP:FB CYC:5626
C9EC 4C F3 C9 JMP $C9F3			A:40 X:25 Y:00 P:B4 SP:FB CYC:5628
C9F3 EA       NOP 			A:40 X:25 Y:00 P:B4 SP:FB CYC:5631
C9F4 A9 80    LDA #$80			A:40 X:25 Y:00 P:B4 SP:FB CYC:5633
C9F6 C9 00    CMP #$00			A:80 X:25 Y:00 P:B4 SP:FB CYC:5635
C9F8 F0 07    BEQ $CA01			A:80 X:25 Y:00 P:35 SP:FB CYC:5637
C9FA 10 05    BPL $CA01			A:80 X:25 Y:00 P:35 SP:FB CYC:5639
C903 A9 70    LDA #$70			A:80 X:25 Y:00 P:35 SP:FB CYC:5642
C905 49 70    EOR #$70			A:70 X:25 Y:00 P:35 SP:FB CYC:5644
C907 D0 09    BNE $C912			A:00 X:25 Y:00 P:37 SP:FB CYC:5646
C909 70 07    BVS $C912			A:00 X:25 Y:00 P:37 SP:FB CYC:5649
C90B 90 05    BCC $C912			A:00 X:25 Y:00 P:37 SP:FB CYC:5650
C90D 30 03    BMI $C912			A:00 X:25 Y:00 P:37 SP:FB CYC:5653
C90F 4C 16 C9 JMP $C916			A:00 X:25 Y:00 P:37 SP:FB CYC:5654
C916 EA       NOP 			A:00 X:25 Y:00 P:37 SP:FB CYC:5657
C917 18       CLC 			A:00 X:25 Y:00 P:37 SP:FB CYC:5659
C918 24 01    BIT $01			A:00 X:25 Y:00 P:36 SP:FB CYC:5661
C91A A9 00    LDA #$00			A:00 X:25 Y:00 P:F6 SP:FB CYC:5664
C91C 69 69    ADC #$69			A:00 X:25 Y:00 P:76 SP:FB CYC:5666
C91E 30 0B    BMI $C92B			A:69 X:25 Y:00 P:34 SP:FB CYC:5668
C920 B0 09    BCS $C92B			A:69 X:25 Y:00 P:34 SP:FB CYC:5671
C922 C9 69    CMP #$69			A:69 X:25 Y:00 P:34 SP:FB CYC:5672
C924 D0 05    BNE $C92B			A:69 X:25 Y:00 P:B4 SP:FB CYC:5674
C92B A2 1E    LDX #$1E			A:69 X:25 Y:00 P:B4 SP:FB CYC:5677
C92D 86 00    STX $00			A:69 X:1E Y:00 P:34 SP:FB CYC:5679
C92F EA       NOP 			A:69 X:1E Y:00 P:34 SP:FB CYC:5682
C930 38       SEC 			A:69 X:1E Y:00 P:34 SP:FB CYC:5684
C931 F8       SED 			A:69 X:1E Y:00 P:35 SP:FB CYC:5686
C932 24 01    BIT $01			A:69 X:1E Y:00 P:3D SP:FB CYC:5688
C934 A9 01    LDA #$01			A:69 X:1E Y:00 P:FD SP:FB CYC:5691
C936 69 69    ADC #$69			A:01 X:1E Y:00 P:7D SP:FB CYC:5693
C938 30 0B    BMI $C945			A:6B X:1E Y:00 P:3C SP:FB CYC:5695
C93A B0 09    BCS $C945			A:6B X:1E Y:00 P:3C SP:FB CYC:5698
C93C C9 6B    CMP #$6B			A:6B X:1E Y:00 P:3C SP:FB CYC:5699
C93E D0 05    BNE $C945			A:6B X:1E Y:00 P:BC SP:FB CYC:5701
C945 A2 1F    LDX #$1F			A:6B X:1E Y:00 P:BC SP:FB CYC:5704
C947 86 00    STX $00			A:6B X:1F Y:00 P:3C SP:FB CYC:5706
C949 EA       NOP 			A:6B X:1F Y:00 P:3C SP:FB CYC:5709
C94A D8       CLD 			A:6B X:1F Y:00 P:3C SP:FB CYC:5711
C94B 38       SEC 			A:6B X:1F Y:00 P:34 SP:FB CYC:5713
C94C B8       CLV 			A:6B X:1F Y:00 P:35 SP:FB CYC:5715
C94D A9 7F    LDA #$7F			A:6B X:1F Y:00 P:35 SP:FB CYC:5717
C94F 69 7F    ADC #$7F			A:7F X:1F Y:00 P:35 SP:FB CYC:5719
C951 10 0B    BPL $C95E			A:FF X:1F Y:00 P:F4 SP:FB CYC:5721
C953 B0 09    BCS $C95E			A:FF X:1F Y:00 P:F4 SP:FB CYC:5724
C955 C9 FF    CMP #$FF			A:FF X:1F Y:00 P:F4 SP:FB CYC:5725
C957 D0 05    BNE $C95E			A:FF X:1F Y:00 P:F4 SP:FB CYC:5727
C95E A2 20    LDX #$20			A:FF X:1F Y:00 P:F4 SP:FB CYC:5730
C960 86 00    STX $00			A:FF X:20 Y:00 P:74 SP:FB CYC:5732
C962 EA       NOP 			A:FF X:20 Y:00 P:74 SP:FB CYC:5735
C963 18       CLC 			A:FF X:20 Y:00 P:74 SP:FB CYC:5737
C964 24 01    BIT $01			A:FF X:20 Y:00 P:74 SP:FB CYC:5739
C966 A9 7F    LDA #$7F			A:FF X:20 Y:00 P:F4 SP:FB CYC:5742
C968 69 80    ADC #$80			A:7F X:20 Y:00 P:74 SP:FB CYC:5744
C96A 10 0B    BPL $C977			A:FF X:20 Y:00 P:B4 SP:FB CYC:5746
C96C B0 09    BCS $C977			A:FF X:20 Y:00 P:B4 SP:FB CYC:5749
C96E C9 FF    CMP #$FF			A:FF X:20 Y:00 P:B4 SP:FB CYC:5750
C970 D0 05    BNE $C977			A:FF X:20 Y:00 P:B4 SP:FB CYC:5752
C977 A2 21    LDX #$21			A:FF X:20 Y:00 P:B4 SP:FB CYC:5755
C979 86 00    STX $00			A:FF X:21 Y:00 P:34 SP:FB CYC:5757
C97B EA       NOP 			A:FF X:21 Y:00 P:34 SP:FB CYC:5760
C97C 38       SEC 			A:FF X:21 Y:00 P:34 SP:FB CYC:5762
C97D B8       CLV 			A:FF X:21 Y:00 P:35 SP:FB CYC:5764
C97E A9 7F    LDA #$7F			A:FF X:21 Y:00 P:35 SP:FB CYC:5766
C980 69 80    ADC #$80			A:7F X:21 Y:00 P:35 SP:FB CYC:5768
C982 D0 09    BNE $C98D			A:00 X:21 Y:00 P:37 SP:FB CYC:5770
C984 30 07    BMI $C98D			A:00 X:21 Y:00 P:37 SP:FB CYC:5773
C986 70 05    BVS $C98D			A:00 X:21 Y:00 P:37 SP:FB CYC:5774
C988 90 03    BCC $C98D			A:00 X:21 Y:00 P:37 SP:FB CYC:5777
C98A 4C 91 C9 JMP $C991			A:00 X:21 Y:00 P:37 SP:FB CYC:5778
C991 EA       NOP 			A:00 X:21 Y:00 P:37 SP:FB CYC:5781
C992 38       SEC 			A:00 X:21 Y:00 P:37 SP:FB CYC:5783
C993 B8       CLV 			A:00 X:21 Y:00 P:37 SP:FB CYC:5785
C994 A9 9F    LDA #$9F			A:00 X:21 Y:00 P:37 SP:FB CYC:5787
C996 F0 09    BEQ $C9A1			A:9F X:21 Y:00 P:B5 SP:FB CYC:5789
C998 10 07    BPL $C9A1			A:9F X:21 Y:00 P:B5 SP:FB CYC:5792
C99A 70 05    BVS $C9A1			A:9F X:21 Y:00 P:B5 SP:FB CYC:5793
C99C 90 03    BCC $C9A1			A:9F X:21 Y:00 P:B5 SP:FB CYC:5796
C99E 4C A5 C9 JMP $C9A5			A:9F X:21 Y:00 P:B5 SP:FB CYC:5797
C9A5 EA       NOP 			A:9F X:21 Y:00 P:B5 SP:FB CYC:5800
C9A6 18       CLC 			A:9F X:21 Y:00 P:B5 SP:FB CYC:5802
C9A7 24 01    BIT $01			A:9F X:21 Y:00 P:B4 SP:FB CYC:5804
C9A9 A9 00    LDA #$00			A:9F X:21 Y:00 P:F4 SP:FB CYC:5807
C9AB D0 09    BNE $C9B6			A:00 X:21 Y:00 P:76 SP:FB CYC:5809
C9AD 30 07    BMI $C9B6			A:00 X:21 Y:00 P:76 SP:FB CYC:5812
C9AF 50 05    BVC $C9B6			A:00 X:21 Y:00 P:76 SP:FB CYC:5813
C9B1 B0 03    BCS $C9B6			A:00 X:21 Y:00 P:76 SP:FB CYC:5816
C9B3 4C BA C9 JMP $C9BA			A:00 X:21 Y:00 P:76 SP:FB CYC:5817
C9BA EA       NOP 			A:00 X:21 Y:00 P:76 SP:FB CYC:5820
C9BB 24 01    BIT $01			A:00 X:21 Y:00 P:76 SP:FB CYC:5822
C9BD A9 40    LDA #$40			A:00 X:21 Y:00 P:F6 SP:FB CYC:5825
C9BF C9 40    CMP #$40			A:40 X:21 Y:00 P:74 SP:FB CYC:5827
C9C1 30 09    BMI $C9CC			A:40 X:21 Y:00 P:F4 SP:FB CYC:5829
C9CC A2 24    LDX #$24			A:40 X:21 Y:00 P:F4 SP:FB CYC:5832
C9CE 86 00    STX $00			A:40 X:24 Y:00 P:74 SP:FB CYC:5834
C9D0 EA       NOP 			A:40 X:24 Y:00 P:74 SP:FB CYC:5837
C9D1 B8       CLV 			A:40 X:24 Y:00 P:74 SP:FB CYC:5839
C9D2 C9 3F    CMP #$3F			A:40 X:24 Y:00 P:34 SP:FB CYC:5841
C9D4 F0 09    BEQ $C9DF			A:40 X:24 Y:00 P:37 SP:FB CYC:5843
C9DF A2 25    LDX #$25			A:40 X:24 Y:00 P:37 SP:FB CYC:5846
C9E1 86 00    STX $00			A:40 X:25 Y:00 P:35 SP:FB CYC:5848
C9E3 EA       NOP 			A:40 X:25 Y:00 P:35 SP:FB CYC:5851
C9E4 C9 41    CMP #$41			A:40 X:25 Y:00 P:35 SP:FB CYC:5853
C9E6 F0 07    BEQ $C9EF			A:40 X:25 Y:00 P:B4 SP:FB CYC:5855
C9E8 10 05    BPL $C9EF			A:40 X:25 Y:00 P:B4 SP:FB CYC:5858
C9EA 10 03    BPL $C9EF			A:40 X:25 Y:00 P:B4 SP:FB CYC:5859
C9EC 4C F3 C9 JMP $C9F3			A:40 X:25 Y:00 P:B4 SP:FB CYC:5861
C9F3 EA       NOP 			A:40 X:25 Y:00 P:B4 SP:FB CYC:5864
C9F4 A9 80    LDA #$80			A:40 X:25 Y:00 P:B4 SP:FB CYC:5866
C9F6 C9 00    CMP #$00			A:80 X:25 Y:00 P:B4 SP:FB CYC:5868
C9F8 F0 07    BEQ $CA01			A:80 X:25 Y:00 P:35 SP:FB CYC:5870
C9FA 10 05    BPL $CA01			A:80 X:25 Y:00 P:35 SP:FB CYC:5872
C903 A9 70    LDA #$70			A:80 X:25 Y:00 P:35 SP:FB CYC:5875
C905 49 70    EOR #$70			A:70 X:25 Y:00 P:35 SP:FB CYC:5877
C907 D0 09    BNE $C912			A:00 X:25 Y:00 P:37 SP:FB CYC:5879
C909 70 07    BVS $C912			A:00 X:25 Y:00 P:37 SP:FB CYC:5882
C90B 90 05    BCC $C912			A:00 X:25 Y:00 P:37 SP:FB CYC:5883
C90D 30 03    BMI $C912			A:00 X:25 Y:00 P:37 SP:FB CYC:5886
C90F 4C 16 C9 JMP $C916			A:00 X:25 Y:00 P:37 SP:FB CYC:5887
C916 EA       NOP 			A:00 X:25 Y:00 P:37 SP:FB CYC:5890
C917 18       CLC 			A:00 X:25 Y:00 P:37 SP:FB CYC:5892
C918 24 01    BIT $01			A:00 X:25 Y:00 P:36 SP:FB CYC:5894
C91A A9 00    LDA #$00			A:00 X:25 Y:00 P:F6 SP:FB CYC:5897
C91C 69 69    ADC #$69			A:00 X:25 Y:00 P:76 SP:FB CYC:5899
C91E 30 0B    BMI $C92B			A:69 X:25 Y:00 P:34 SP:FB CYC:5901
C920 B0 09    BCS $C92B			A:69 X:25 Y:00 P:34 SP:FB CYC:5904
C922 C9 69    CMP #$69			A:69 X:25 Y:00 P:34 SP:FB CYC:5905
C924 D0 05    BNE $C92B			A:69 X:25 Y:00 P:B4 SP:FB CYC:5907
C92B A2 1E    LDX #$1E			A:69 X:25 Y:00 P:B4 SP:FB CYC:5910
C92D 86 00    STX $00			A:69 X:1E Y:00 P:34 SP:FB CYC:5912
C92F EA       NOP 			A:69 X:1E Y:00 P:34 SP:FB CYC:5915
C930 38       SEC 			A:69 X:1E Y:00 P:34 SP:FB CYC:5917
C931 F8       SED 			A:69 X:1E Y:00 P:35 SP:FB CYC:5919
C932 24 01    BIT $01			A:69 X:1E Y:00 P:3D SP:FB CYC:5921
C934 A9 01    LDA #$01			A:69 X:1E Y:00 P:FD SP:FB CYC:5924
C936 69 69    ADC #$69			A:01 X:1E Y:00 P:7D SP:FB CYC:5926
C938 30 0B    BMI $C945			A:6B X:1E Y:00 P:3C SP:FB CYC:5928
C93A B0 09    BCS $C945			A:6B X:1E Y:00 P:3C SP:FB CYC:5931
C93C C9 6B    CMP #$6B			A:6B X:1E Y:00 P:3C SP:FB CYC:5932
C93E D0 05    BNE $C945			A:6B X:1E Y:00 P:BC SP:FB CYC:5934
C945 A2 1F    LDX #$1F			A:6B X:1E Y:00 P:BC SP:FB CYC:5937
C947 86 00    STX $00			A:6B X:1F Y:00 P:3C SP:FB CYC:5939
C949 EA       NOP 			A:6B X:1F Y:00 P:3C SP:FB CYC:5942
C94A D8       CLD 			A:6B X:1F Y:00 P:3C SP:FB CYC:5944
C94B 38       SEC 			A:6B X:1F Y:00 P:34 SP:FB CYC:5946
C94C B8       CLV 			A:6B X:1F Y:00 P:35 SP:FB CYC:5948
C94D A9 7F    LDA #$7F			A:6B X:1F Y:00 P:35 SP:FB CYC:5950
C94F 69 7F    ADC #$7F			A:7F X:1F Y:00 P:35 SP:FB CYC:5952
C951 10 0B    BPL $C95E			A:FF X:1F Y:00 P:F4 SP:FB CYC:5954
C953 B0 09    BCS $C95E			A:FF X:1F Y:00 P:F4 SP:FB CYC:5957
C955 C9 FF    CMP #$FF			A:FF X:1F Y:00 P:F4 SP:FB CYC:5958
C957 D0 05    BNE $C95E			A:FF X:1F Y:00 P:F4 SP:FB CYC:5960
C95E A2 20    LDX #$20			A:FF X:1F Y:00 P:F4 SP:FB CYC:5963
C960 86 00    STX $00			A:FF X:20 Y:00 P:74 SP:FB CYC:5965
C962 EA       NOP 			A:FF X:20 Y:00 P:74 SP:FB CYC:5968
C963 18       CLC 			A:FF X:20 Y:00 P:74 SP:FB CYC:5970
C964 24 01    BIT $01			A:FF X:20 Y:00 P:74 SP:FB CYC:5972
C966 A9 7F    LDA #$7F			A:FF X:20 Y:00 P:F4 SP:FB CYC:5975
C968 69 80    ADC #$80			A:7F X:20 Y:00 P:74 SP:FB CYC:5977
C96A 10 0B    BPL $C977			A:FF X:20 Y:00 P:B4 SP:FB CYC:5979
C96C B0 09    BCS $C977			A:FF X:20 Y:00 P:B4 SP:FB CYC:5982
C96E C9 FF    CMP #$FF			A:FF X:20 Y:00 P:B4 SP:FB CYC:5983
C970 D0 05    BNE $C977			A:FF X:20 Y:00 P:B4 SP:FB CYC:5985
C977 A2 21    LDX #$21			A:FF X:20 Y:00 P:B4 SP:FB CYC:5988
C979 86 00    STX $00			A:FF X:21 Y:00 P:34 SP:FB CYC:5990
C97B EA       NOP 			A:FF X:21 Y:00 P:34 SP:FB CYC:5993
C97C 38       SEC 			A:FF X:21 Y:00 P:34 SP:FB CYC:5995
C97D B8       CLV 			A:FF X:21 Y:00 P:35 SP:FB CYC:5997
C97E A9 7F    LDA #$7F			A:FF X:21 Y:00 P:35 SP:FB CYC:5999
C980 69 80    ADC #$80			A:7F X:21 Y:00 P:35 SP:FB CYC:6001
C982 D0 09    BNE $C98D			A:00 X:21 Y:00 P:37 SP:FB CYC:6003
C984 30 07    BMI $C98D			A:00 X:21 Y:00 P:37 SP:FB CYC:6006
C986 70 05    BVS $C98D			A:00 X:21 Y:00 P:37 SP:FB CYC:6007
C988 90 03    BCC $C98D			A:00 X:21 Y:00 P:37 SP:FB CYC:6010
C98A 4C 91 C9 JMP $C991			A:00 X:21 Y:00 P:37 SP:FB CYC:6011
C991 EA       NOP 			A:00 X:21 Y:00 P:37 SP:FB CYC:6014
C992 38       SEC 			A:00 X:21 Y:00 P:37 SP:FB CYC:6016
C993 B8       CLV 			A:00 X:21 Y:00 P:37 SP:FB CYC:6018
C994 A9 9F    LDA #$9F			A:00 X:21 Y:00 P:37 SP:FB CYC:6020
C996 F0 09    BEQ $C9A1			A:9F X:21 Y:00 P:B5 SP:FB CYC:6022
C998 10 07    BPL $C9A1			A:9F X:21 Y:00 P:B5 SP:FB CYC:6025
C99A 70 05    BVS $C9A1			A:9F X:21 Y:00 P:B5 SP:FB CYC:6026
C99C 90 03    BCC $C9A1			A:9F X:21 Y:00 P:B5 SP:FB CYC:6029
C99E 4C A5 C9 JMP $C9A5			A:9F X:21 Y:00 P:B5 SP:FB CYC:6030
C9A5 EA       NOP 			A:9F X:21 Y:00 P:B5 SP:FB CYC:6033
C9A6 18       CLC 			A:9F X:21 Y:00 P:B5 SP:FB CYC:6035
C9A7 24 01    BIT $01			A:9F X:21 Y:00 P:B4 SP:FB CYC:6037
C9A9 A9 00    LDA #$00			A:9F X:21 Y:00 P:F4 SP:FB CYC:6040
C9AB D0 09    BNE $C9B6			A:00 X:21 Y:00 P:76 SP:FB CYC:6042
C9AD 30 07    BMI $C9B6			A:00 X:21 Y:00 P:76 SP:FB CYC:6045
C9AF 50 05    BVC $C9B6			A:00 X:21 Y:00 P:76 SP:FB CYC:6046
C9B1 B0 03    BCS $C9B6			A:00 X:21 Y:00 P:76 SP:FB CYC:6049
C9B3 4C BA C9 JMP $C9BA			A:00 X:21 Y:00 P:76 SP:FB CYC:6050
C9BA EA       NOP 			A:00 X:21 Y:00 P:76 SP:FB CYC:6053
C9BB 24 01    BIT $01			A:00 X:21 Y:00 P:76 SP:FB CYC:6055
C9BD A9 40    LDA #$40			A:00 X:21 Y:00 P:F6 SP:FB CYC:6058
C9BF C9 40    CMP #$40			A:40 X:21 Y:00 P:74 SP:FB CYC:6060
C9C1 30 09    BMI $C9CC			A:40 X:21 Y:00 P:F4 SP:FB CYC:6062
C9CC A2 24    LDX #$24			A:40 X:21 Y:00 P:F4 SP:FB CYC:6065
C9CE 86 00    STX $00			A:40 X:24 Y:00 P:74 SP:FB CYC:6067
C9D0 EA       NOP 			A:40 X:24 Y:00 P:74 SP:FB CYC:6070
C9D1 B8       CLV 			A:40 X:24 Y:00 P:74 SP:FB CYC:6072
C9D2 C9 3F    CMP #$3F			A:40 X:24 Y:00 P:34 SP:FB CYC:6074
C9D4 F0 09    BEQ $C9DF			A:40 X:24 Y:00 P:37 SP:FB CYC:6076
C9DF A2 25    LDX #$25			A:40 X:24 Y:00 P:37 SP:FB CYC:6079
C9E1 86 00    STX $00			A:40 X:25 Y:00 P:35 SP:FB CYC:6081
C9E3 EA       NOP 			A:40 X:25 Y:00 P:35 SP:FB CYC:6084
C9E4 C9 41    CMP #$41			A:40 X:25 Y:00 P:35 SP:FB CYC:6086
C9E6 F0 07    BEQ $C9EF			A:40 X:25 Y:00 P:B4 SP:FB CYC:6088
C9E8 10 05    BPL $C9EF			A:40 X:25 Y:00 P:B4 SP:FB CYC:6091
C9EA 10 03    BPL $C9EF			A:40 X:25 Y:00 P:B4 SP:FB CYC:6092
C9EC 4C F3 C9 JMP $C9F3			A:40 X:25 Y:00 P:B4 SP:FB CYC:6094
C9F3 EA       NOP 			A:40 X:25 Y:00 P:B4 SP:FB CYC:6097
C9F4 A9 80    LDA #$80			A:40 X:25 Y:00 P:B4 SP:FB CYC:6099
C9F6 C9 00    CMP #$00			A:80 X:25 Y:00 P:B4 SP:FB CYC:6101
C9F8 F0 07    BEQ $CA01			A:80 X:25 Y:00 P:35 SP:FB CYC:6103
C9FA 10 05    BPL $CA01			A:80 X:25 Y:00 P:35 SP:FB CYC:6105
C903 A9 70    LDA #$70			A:80 X:25 Y:00 P:35 SP:FB CYC:6108
C905 49 70    EOR #$70			A:70 X:25 Y:00 P:35 SP:FB CYC:6110
C907 D0 09    BNE $C912			A:00 X:25 Y:00 P:37 SP:FB CYC:6112
C909 70 07    BVS $C912			A:00 X:25 Y:00 P:37 SP:FB CYC:6115
C90B 90 05    BCC $C912			A:00 X:25 Y:00 P:37 SP:FB CYC:6116
C90D 30 03    BMI $C912			A:00 X:25 Y:00 P:37 SP:FB CYC:6119
C90F 4C 16 C9 JMP $C916			A:00 X:25 Y:00 P:37 SP:FB CYC:6120
C916 EA       NOP 			A:00 X:25 Y:00 P:37 SP:FB CYC:6123
C917 18       CLC 			A:00 X:25 Y:00 P:37 SP:FB CYC:6125
C918 24 01    BIT $01			A:00 X:25 Y:00 P:36 SP:FB CYC:6127
C91A A9 00    LDA #$00			A:00 X:25 Y:00 P:F6 SP:FB CYC:6130
C91C 69 69    ADC #$69			A:00 X:25 Y:00 P:76 SP:FB CYC:6132
C91E 30 0B    BMI $C92B			A:69 X:25 Y:00 P:34 SP:FB CYC:6134
C920 B0 09    BCS $C92B			A:69 X:25 Y:00 P:34 SP:FB CYC:6137
C922 C9 69    CMP #$69			A:69 X:25 Y:00 P:34 SP:FB CYC:6138
C924 D0 05    BNE $C92B			A:69 X:25 Y:00 P:B4 SP:FB CYC:6140
C92B A2 1E    LDX #$1E			A:69 X:25 Y:00 P:B4 SP:FB CYC:6143
C92D 86 00    STX $00			A:69 X:1E Y:00 P:34 SP:FB CYC:6145
C92F EA       NOP 			A:69 X:1E Y:00 P:34 SP:FB CYC:6148
C930 38       SEC 			A:69 X:1E Y:00 P:34 SP:FB CYC:6150
C931 F8       SED 			A:69 X:1E Y:00 P:35 SP:FB CYC:6152
C932 24 01    BIT $01			A:69 X:1E Y:00 P:3D SP:FB CYC:6154
C934 A9 01    LDA #$01			A:69 X:1E Y:00 P:FD SP:FB CYC:6157
C936 69 69    ADC #$69			A:01 X:1E Y:00 P:7D SP:FB CYC:6159
C938 30 0B    BMI $C945			A:6B X:1E Y:00 P:3C SP:FB CYC:6161
C93A B0 09    BCS $C945			A:6B X:1E Y:00 P:3C SP:FB CYC:6164
C93C C9 6B    CMP #$6B			A:6B X:1E Y:00 P:3C SP:FB CYC:6165
C93E D0 05    BNE $C945			A:6B X:1E Y:00 P:BC SP:FB CYC:6167
C945 A2 1F    LDX #$1F			A:6B X:1E Y:00 P:BC SP:FB CYC:6170
C947 86 00    STX $00			A:6B X:1F Y:00 P:3C SP:FB CYC:6172
C949 EA       NOP 			A:6B X:1F Y:00 P:3C SP:FB CYC:6175
C94A D8       CLD 			A:6B X:1F Y:00 P:3C SP:FB CYC:6177
C94B 38       SEC 			A:6B X:1F Y:00 P:34 SP:FB CYC:6179
C94C B8       CLV 			A:6B X:1F Y:00 P:35 SP:FB CYC:6181
C94D A9 7F    LDA #$7F			A:6B X:1F Y:00 P:35 SP:FB CYC:6183
C94F 69 7F    ADC #$7F			A:7F X:1F Y:00 P:35 SP:FB CYC:6185
C951 10 0B    BPL $C95E			A:FF X:1F Y:00 P:F4 SP:FB CYC:6187
C953 B0 09    BCS $C95E			A:FF X:1F Y:00 P:F4 SP:FB CYC:6190
C955 C9 FF    CMP #$FF			A:FF X:1F Y:00 P:F4 SP:FB CYC:6191
C957 D0 05    BNE $C95E			A:FF X:1F Y:00 P:F4 SP:FB CYC:6193
C95E A2 20    LDX #$20			A:FF X:1F Y:00 P:F4 SP:FB CYC:6196
C960 86 00    STX $00			A:FF X:20 Y:00 P:74 SP:FB CYC:6198
C962 EA       NOP 			A:FF X:20 Y:00 P:74 SP:FB CYC:6201
C963 18       CLC 			A:FF X:20 Y:00 P:74 SP:FB CYC:6203
C964 24 01    BIT $01			A:FF X:20 Y:00 P:74 SP:FB CYC:6205
C966 A9 7F    LDA #$7F			A:FF X:20 Y:00 P:F4 SP:FB CYC:6208
C968 69 80    ADC #$80			A:7F X:20 Y:00 P:74 SP:FB CYC:6210
C96A 10 0B    BPL $C977			A:FF X:20 Y:00 P:B4 SP:FB CYC:6212
C96C B0 09    BCS $C977			A:FF X:20 Y:00 P:B4 SP:FB CYC:6215
C96E C9 FF    CMP #$FF			A:FF X:20 Y:00 P:B4 SP:FB CYC:6216
C970 D0 05    BNE $C977			A:FF X:20 Y:00 P:B4 SP:FB CYC:6218
C977 A2 21    LDX #$21			A:FF X:20 Y:00 P:B4 SP:FB CYC:6221
C979 86 00    STX $00			A:FF X:21 Y:00 P:34 SP:FB CYC:6223
C97B EA       NOP 			A:FF X:21 Y:00 P:34 SP:FB CYC:6226
C97C 38       SEC 			A:FF X:21 Y:00 P:34 SP:FB CYC:6228
C97D B8       CLV 			A:FF X:21 Y:00 P:35 SP:FB CYC:6230
C97E A9 7F    LDA #$7F			A:FF X:21 Y:00 P:35 SP:FB CYC:6232
C980 69 80    ADC #$80			A:7F X:21 Y:00 P:35 SP:FB CYC:6234
C982 D0 09    BNE $C98D			A:00 X:21 Y:00 P:37 SP:FB CYC:6236
C984 30 07    BMI $C98D			A:00 X:21 Y:00 P:37 SP:FB CYC:6239
C986 70 05    BVS $C98D			A:00 X:21 Y:00 P:37 SP:FB CYC:6240
C988 90 03    BCC $C98D			A:00 X:21 Y:00 P:37 SP:FB CYC:6243
C98A 4C 91 C9 JMP $C991			A:00 X:21 Y:00 P:37 SP:FB CYC:6244
C991 EA       NOP 			A:00 X:21 Y:00 P:37 SP:FB CYC:6247
C992 38       SEC 			A:00 X:21 Y:00 P:37 SP:FB CYC:6249
C993 B8       CLV 			A:00 X:21 Y:00 P:37 SP:FB CYC:6251
C994 A9 9F    LDA #$9F			A:00 X:21 Y:00 P:37 SP:FB CYC:6253
C996 F0 09    BEQ $C9A1			A:9F X:21 Y:00 P:B5 SP:FB CYC:6255
C998 10 07    BPL $C9A1			A:9F X:21 Y:00 P:B5 SP:FB CYC:6258
C99A 70 05    BVS $C9A1			A:9F X:21 Y:00 P:B5 SP:FB CYC:6259
C99C 90 03    BCC $C9A1			A:9F X:21 Y:00 P:B5 SP:FB CYC:6262
C99E 4C A5 C9 JMP $C9A5			A:9F X:21 Y:00 P:B5 SP:FB CYC:6263
C9A5 EA       NOP 			A:9F X:21 Y:00 P:B5 SP:FB CYC:6266
C9A6 18       CLC 			A:9F X:21 Y:00 P:B5 SP:FB CYC:6268
C9A7 24 01    BIT $01			A:9F X:21 Y:00 P:B4 SP:FB CYC:6270
C9A9 A9 00    LDA #$00			A:9F X:21 Y:00 P:F4 SP:FB CYC:6273
C9AB D0 09    BNE $C9B6			A:00 X:21 Y:00 P:76 SP:FB CYC:6275
C9AD 30 07    BMI $C9B6			A:00 X:21 Y:00 P:76 SP:FB CYC:6278
C9AF 50 05    BVC $C9B6			A:00 X:21 Y:00 P:76 SP:FB CYC:6279
C9B1 B0 03    BCS $C9B6			A:00 X:21 Y:00 P:76 SP:FB CYC:6282
C9B3 4C BA C9 JMP $C9BA			A:00 X:21 Y:00 P:76 SP:FB CYC:6283
C9BA EA       NOP 			A:00 X:21 Y:00 P:76 SP:FB CYC:6286
C9BB 24 01    BIT $01			A:00 X:21 Y:00 P:76 SP:FB CYC:6288
C9BD A9 40    LDA #$40			A:00 X:21 Y:00 P:F6 SP:FB CYC:6291
C9BF C9 40    CMP #$40			A:40 X:21 Y:00 P:74 SP:FB CYC:6293
C9C1 30 09    BMI $C9CC			A:40 X:21 Y:00 P:F4 SP:FB CYC:6295
C9CC A2 24    LDX #$24			A:40 X:21 Y:00 P:F4 SP:FB CYC:6298
C9CE 86 00    STX $00			A:40 X:24 Y:00 P:74 SP:FB CYC:6300
C9D0 EA       NOP 			A:40 X:24 Y:00 P:74 SP:FB CYC:6303
C9D1 B8       CLV 			A:40 X:24 Y:00 P:74 SP:FB CYC:6305
C9D2 C9 3F    CMP #$3F			A:40 X:24 Y:00 P:34 SP:FB CYC:6307
C9D4 F0 09    BEQ $C9DF			A:40 X:24 Y:00 P:37 SP:FB CYC:6309
C9DF A2 25    LDX #$25			A:40 X:24 Y:00 P:37 SP:FB CYC:6312
C9E1 86 00    STX $00			A:40 X:25 Y:00 P:35 SP:FB CYC:6314
C9E3 EA       NOP 			A:40 X:25 Y:00 P:35 SP:FB CYC:6317
C9E4 C9 41    CMP #$41			A:40 X:25 Y:00 P:35 SP:FB CYC:6319
C9E6 F0 07    BEQ $C9EF			A:40 X:25 Y:00 P:B4 SP:FB CYC:6321
C9E8 10 05    BPL $C9EF			A:40 X:25 Y:00 P:B4 SP:FB CYC:6324
C9EA 10 03    BPL $C9EF			A:40 X:25 Y:00 P:B4 SP:FB CYC:6325
C9EC 4C F3 C9 JMP $C9F3			A:40 X:25 Y:00 P:B4 SP:FB CYC:6327
C9F3 EA       NOP 			A:40 X:25 Y:00 P:B4 SP:FB CYC:6330
C9F4 A9 80    LDA #$80			A:40 X:25 Y:00 P:B4 SP:FB CYC:6332
C9F6 C9 00    CMP #$00			A:80 X:25 Y:00 P:B4 SP:FB CYC:6334
C9F8 F0 07    BEQ $CA01			A:80 X:25 Y:00 P:35 SP:FB CYC:6336
C9FA 10 05    BPL $CA01			A:80 X:25 Y:00 P:35 SP:FB CYC:6338
C903 A9 70    LDA #$70			A:80 X:25 Y:00 P:35 SP:FB CYC:6341
C905 49 70    EOR #$70			A:70 X:25 Y:00 P:35 SP:FB CYC:6343
C907 D0 09    BNE $C912			A:00 X:25 Y:00 P:37 SP:FB CYC:6345
C909 70 07    BVS $C912			A:00 X:25 Y:00 P:37 SP:FB CYC:6348
C90B 90 05    BCC $C912			A:00 X:25 Y:00 P:37 SP:FB CYC:6349
C90D 30 03    BMI $C912			A:00 X:25 Y:00 P:37 SP:FB CYC:6352
C90F 4C 16 C9 JMP $C916			A:00 X:25 Y:00 P:37 SP:FB CYC:6353
C916 EA       NOP 			A:00 X:25 Y:00 P:37 SP:FB CYC:6356
C917 18       CLC 			A:00 X:25 Y:00 P:37 SP:FB CYC:6358
C918 24 01    BIT $01			A:00 X:25 Y:00 P:36 SP:FB CYC:6360
C91A A9 00    LDA #$00			A:00 X:25 Y:00 P:F6 SP:FB CYC:6363
C91C 69 69    ADC #$69			A:00 X:25 Y:00 P:76 SP:FB CYC:6365
C91E 30 0B    BMI $C92B			A:69 X:25 Y:00 P:34 SP:FB CYC:6367
C920 B0 09    BCS $C92B			A:69 X:25 Y:00 P:34 SP:FB CYC:6370
C922 C9 69    CMP #$69			A:69 X:25 Y:00 P:34 SP:FB CYC:6371
C924 D0 05    BNE $C92B			A:69 X:25 Y:00 P:B4 SP:FB CYC:6373
C92B A2 1E    LDX #$1E			A:69 X:25 Y:00 P:B4 SP:FB CYC:6376
C92D 86 00    STX $00			A:69 X:1E Y:00 P:34 SP:FB CYC:6378
C92F EA       NOP 			A:69 X:1E Y:00 P:34 SP:FB CYC:6381
C930 38       SEC 			A:69 X:1E Y:00 P:34 SP:FB CYC:6383
C931 F8       SED 			A:69 X:1E Y:00 P:35 SP:FB CYC:6385
C932 24 01    BIT $01			A:69 X:1E Y:00 P:3D SP:FB CYC:6387
C934 A9 01    LDA #$01			A:69 X:1E Y:00 P:FD SP:FB CYC:6390
C936 69 69    ADC #$69			A:01 X:1E Y:00 P:7D SP:FB CYC:6392
C938 30 0B    BMI $C945			A:6B X:1E Y:00 P:3C SP:FB CYC:6394
C93A B0 09    BCS $C945			A:6B X:1E Y:00 P:3C SP:FB CYC:6397
C93C C9 6B    CMP #$6B			A:6B X:1E Y:00 P:3C SP:FB CYC:6398
C93E D0 05    BNE $C945			A:6B X:1E Y:00 P:BC SP:FB CYC:6400
C945 A2 1F    LDX #$1F			A:6B X:1E Y:00 P:BC SP:FB CYC:6403
C947 86 00    STX $00			A:6B X:1F Y:00 P:3C SP:FB CYC:6405
C949 EA       NOP 			A:6B X:1F Y:00 P:3C SP:FB CYC:6408
C94A D8       CLD 			A:6B X:1F Y:00 P:3C SP:FB CYC:6410
C94B 38       SEC 			A:6B X:1F Y:00 P:34 SP:FB CYC:6412
C94C B8       CLV 			A:6B X:1F Y:00 P:35 SP:FB CYC:6414
C94D A9 7F    LDA #$7F			A:6B X:1F Y:00 P:35 SP:FB CYC:6416
C94F 69 7F    ADC #$7F			A:7F X:1F Y:00 P:35 SP:FB CYC:6418
C951 10 0B    BPL $C95E			A:FF X:1F Y:00 P:F4 SP:FB CYC:6420
C953 B0 09    BCS $C95E			A:FF X:1F Y:00 P:F4 SP:FB CYC:6423
C955 C9 FF    CMP #$FF			A:FF X:1F Y:00 P:F4 SP:FB CYC:6424
C957 D0 05    BNE $C95E			A:FF X:1F Y:00 P:F4 SP:FB CYC:6426
C95E A2 20    LDX #$20			A:FF X:1F Y:00 P:F4 SP:FB CYC:6429
C960 86 00    STX $00			A:FF X:20 Y:00 P:74 SP:FB CYC:6431
C962 EA       NOP 			A:FF X:20 Y:00 P:74 SP:FB CYC:6434
C963 18       CLC 			A:FF X:20 Y:00 P:74 SP:FB CYC:6436
C964 24 01    BIT $01			A:FF X:20 Y:00 P:74 SP:FB CYC:6438
C966 A9 7F    LDA #$7F			A:FF X:20 Y:00 P:F4 SP:FB CYC:6441
C968 69 80    ADC #$80			A:7F X:20 Y:00 P:74 SP:FB CYC:6443
C96A 10 0B    BPL $C977			A:FF X:20 Y:00 P:B4 SP:FB CYC:6445
C96C B0 09    BCS $C977			A:FF X:20 Y:00 P:B4 SP:FB CYC:6448
C96E C9 FF    CMP #$FF			A:FF X:20 Y:00 P:B4 SP:FB CYC:6449
C970 D0 05    BNE $C977			A:FF X:20 Y:00 P:B4 SP:FB CYC:6451
C977 A2 21    LDX #$21			A:FF X:20 Y:00 P:B4 SP:FB CYC:6454
C979 86 00    STX $00			A:FF X:21 Y:00 P:34 SP:FB CYC:6456
C97B EA       NOP 			A:FF X:21 Y:00 P:34 SP:FB CYC:6459
C97C 38       SEC 			A:FF X:21 Y:00 P:34 SP:FB CYC:6461
C97D B8       CLV 			A:FF X:21 Y:00 P:35 SP:FB CYC:6463
C97E A9 7F    LDA #$7F			A:FF X:21 Y:00 P:35 SP:FB CYC:6465
C980 69 80    ADC #$80			A:7F X:21 Y:00 P:35 SP:FB CYC:6467
C982 D0 09    BNE $C98D			A:00 X:21 Y:00 P:37 SP:FB CYC:6469
C984 30 07    BMI $C98D			A:00 X:21 Y:00 P:37 SP:FB CYC:6472
C986 70 05    BVS $C98D			A:00 X:21 Y:00 P:37 SP:FB CYC:6473
C988 90 03    BCC $C98D			A:00 X:21 Y:00 P:37 SP:FB CYC:6476
C98A 4C 91 C9 JMP $C991			A:00 X:21 Y:00 P:37 SP:FB CYC:6477
C991 EA       NOP 			A:00 X:21 Y:00 P:37 SP:FB CYC:6480
C992 38       SEC 			A:00 X:21 Y:00 P:37 SP:FB CYC:6482
C993 B8       CLV 			A:00 X:21 Y:00 P:37 SP:FB CYC:6484
C994 A9 9F    LDA #$9F			A:00 X:21 Y:00 P:37 SP:FB CYC:6486
C996 F0 09    BEQ $C9A1			A:9F X:21 Y:00 P:B5 SP:FB CYC:6488
C998 10 07    BPL $C9A1			A:9F X:21 Y:00 P:B5 SP:FB CYC:6491
C99A 70 05    BVS $C9A1			A:9F X:21 Y:00 P:B5 SP:FB CYC:6492
C99C 90 03    BCC $C9A1			A:9F X:21 Y:00 P:B5 SP:FB CYC:6495
C99E 4C A5 C9 JMP $C9A5			A:9F X:21 Y:00 P:B5 SP:FB CYC:6496
C9A5 EA       NOP 			A:9F X:21 Y:00 P:B5 SP:FB CYC:6499
C9A6 18       CLC 			A:9F X:21 Y:00 P:B5 SP:FB CYC:6501
C9A7 24 01    BIT $01			A:9F X:21 Y:00 P:B4 SP:FB CYC:6503
C9A9 A9 00    LDA #$00			A:9F X:21 Y:00 P:F4 SP:FB CYC:6506
C9AB D0 09    BNE $C9B6			A:00 X:21 Y:00 P:76 SP:FB CYC:6508
C9AD 30 07    BMI $C9B6			A:00 X:21 Y:00 P:76 SP:FB CYC:6511
C9AF 50 05    BVC $C9B6			A:00 X:21 Y:00 P:76 SP:FB CYC:6512
C9B1 B0 03    BCS $C9B6			A:00 X:21 Y:00 P:76 SP:FB CYC:6515
C9B3 4C BA C9 JMP $C9BA			A:00 X:21 Y:00 P:76 SP:FB CYC:6516
C9BA EA       NOP 			A:00 X:21 Y:00 P:76 SP:FB CYC:6519
C9BB 24 01    BIT $01			A:00 X:21 Y:00 P:76 SP:FB CYC:6521
C9BD A9 40    LDA #$40			A:00 X:21 Y:00 P:F6 SP:FB CYC:6524
C9BF C9 40    CMP #$40			A:40 X:21 Y:00 P:74 SP:FB CYC:6526
C9C1 30 09    BMI $C9CC			A:40 X:21 Y:00 P:F4 SP:FB CYC:6528
C9CC A2 24    LDX #$24			A:40 X:21 Y:00 P:F4 SP:FB CYC:6531
C9CE 86 00    STX $00			A:40 X:24 Y:00 P:74 SP:FB CYC:6533
C9D0 EA       NOP 			A:40 X:24 Y:00 P:74 SP:FB CYC:6536
C9D1 B8       CLV 			A:40 X:24 Y:00 P:74 SP:FB CYC:6538
C9D2 C9 3F    CMP #$3F			A:40 X:24 Y:00 P:34 SP:FB CYC:6540
C9D4 F0 09    BEQ $C9DF			A:40 X:24 Y:00 P:37 SP:FB CYC:6542
C9DF A2 25    LDX #$25			A:40 X:24 Y:00 P:37 SP:FB CYC:6545
C9E1 86 00    STX $00			A:40 X:25 Y:00 P:35 SP:FB CYC:6547
C9E3 EA       NOP 			A:40 X:25 Y:00 P:35 SP:FB CYC:6550
C9E4 C9 41    CMP #$41			A:40 X:25 Y:00 P:35 SP:FB CYC:6552
C9E6 F0 07    BEQ $C9EF			A:40 X:25 Y:00 P:B4 SP:FB CYC:6554
C9E8 10 05    BPL $C9EF			A:40 X:25 Y:00 P:B4 SP:FB CYC:6557
C9EA 10 03    BPL $C9EF			A:40 X:25 Y:00 P:B4 SP:FB CYC:6558
C9EC 4C F3 C9 JMP $C9F3			A:40 X:25 Y:00 P:B4 SP:FB CYC:6560
C9F3 EA       NOP 			A:40 X:25 Y:00 P:B4 SP:FB CYC:6563
C9F4 A9 80    LDA #$80			A:40 X:25 Y:00 P:B4 SP:FB CYC:6565
C9F6 C9 00    CMP #$00			A:80 X:25 Y:00 P:B4 SP:FB CYC:6567
C9F8 F0 07    BEQ $CA01			A:80 X:25 Y:00 P:35 SP:FB CYC:6569
C9FA 10 05    BPL $CA01			A:80 X:25 Y:00 P:35 SP:FB CYC:6571
C903 A9 70    LDA #$70			A:80 X:25 Y:00 P:35 SP:FB CYC:6574
C905 49 70    EOR #$70			A:70 X:25 Y:00 P:35 SP:FB CYC:6576
C907 D0 09    BNE $C912			A:00 X:25 Y:00 P:37 SP:FB CYC:6578
C909 70 07    BVS $C912			A:00 X:25 Y:00 P:37 SP:FB CYC:6581
C90B 90 05    BCC $C912			A:00 X:25 Y:00 P:37 SP:FB CYC:6582
C90D 30 03    BMI $C912			A:00 X:25 Y:00 P:37 SP:FB CYC:6585
C90F 4C 16 C9 JMP $C916			A:00 X:25 Y:00 P:37 SP:FB CYC:6586
C916 EA       NOP 			A:00 X:25 Y:00 P:37 SP:FB CYC:6589
C917 18       CLC 			A:00 X:25 Y:00 P:37 SP:FB CYC:6591
C918 24 01    BIT $01			A:00 X:25 Y:00 P:36 SP:FB CYC:6593
C91A A9 00    LDA #$00			A:00 X:25 Y:00 P:F6 SP:FB CYC:6596
C91C 69 69    ADC #$69			A:00 X:25 Y:00 P:76 SP:FB CYC:6598
C91E 30 0B    BMI $C92B			A:69 X:25 Y:00 P:34 SP:FB CYC:6600
C920 B0 09    BCS $C92B			A:69 X:25 Y:00 P:34 SP:FB CYC:6603
C922 C9 69    CMP #$69			A:69 X:25 Y:00 P:34 SP:FB CYC:6604
C924 D0 05    BNE $C92B			A:69 X:25 Y:00 P:B4 SP:FB CYC:6606
C92B A2 1E    LDX #$1E			A:69 X:25 Y:00 P:B4 SP:FB CYC:6609
C92D 86 00    STX $00			A:69 X:1E Y:00 P:34 SP:FB CYC:6611
C92F EA       NOP 			A:69 X:1E Y:00 P:34 SP:FB CYC:6614
C930 38       SEC 			A:69 X:1E Y:00 P:34 SP:FB CYC:6616
C931 F8       SED 			A:69 X:1E Y:00 P:35 SP:FB CYC:6618
C932 24 01    BIT $01			A:69 X:1E Y:00 P:3D SP:FB CYC:6620
C934 A9 01    LDA #$01			A:69 X:1E Y:00 P:FD SP:FB CYC:6623
C936 69 69    ADC #$69			A:01 X:1E Y:00 P:7D SP:FB CYC:6625
C938 30 0B    BMI $C945			A:6B X:1E Y:00 P:3C SP:FB CYC:6627
C93A B0 09    BCS $C945			A:6B X:1E Y:00 P:3C SP:FB CYC:6630
C93C C9 6B    CMP #$6B			A:6B X:1E Y:00 P:3C SP:FB CYC:6631
C93E D0 05    BNE $C945			A:6B X:1E Y:00 P:BC SP:FB CYC:6633
C945 A2 1F    LDX #$1F			A:6B X:1E Y:00 P:BC SP:FB CYC:6636
C947 86 00    STX $00			A:6B X:1F Y:00 P:3C SP:FB CYC:6638
C949 EA       NOP 			A:6B X:1F Y:00 P:3C SP:FB CYC:6641
C94A D8       CLD 			A:6B X:1F Y:00 P:3C SP:FB CYC:6643
C94B 38       SEC 			A:6B X:1F Y:00 P:34 SP:FB CYC:6645
C94C B8       CLV 			A:6B X:1F Y:00 P:35 SP:FB CYC:6647
C94D A9 7F    LDA #$7F			A:6B X:1F Y:00 P:35 SP:FB CYC:6649
C94F 69 7F    ADC #$7F			A:7F X:1F Y:00 P:35 SP:FB CYC:6651
C951 10 0B    BPL $C95E			A:FF X:1F Y:00 P:F4 SP:FB CYC:6653
C953 B0 09    BCS $C95E			A:FF X:1F Y:00 P:F4 SP:FB CYC:6656
C955 C9 FF    CMP #$FF			A:FF X:1F Y:00 P:F4 SP:FB CYC:6657
C957 D0 05    BNE $C95E			A:FF X:1F Y:00 P:F4 SP:FB CYC:6659
C95E A2 20    LDX #$20			A:FF X:1F Y:00 P:F4 SP:FB CYC:6662
C960 86 00    STX $00			A:FF X:20 Y:00 P:74 SP:FB CYC:6664
C962 EA       NOP 			A:FF X:20 Y:00 P:74 SP:FB CYC:6667
C963 18       CLC 			A:FF X:20 Y:00 P:74 SP:FB CYC:6669
C964 24 01    BIT $01			A:FF X:20 Y:00 P:74 SP:FB CYC:6671
C966 A9 7F    LDA #$7F			A:FF X:20 Y:00 P:F4 SP:FB CYC:6674
C968 69 80    ADC #$80			A:7F X:20 Y:00 P:74 SP:FB CYC:6676
C96A 10 0B    BPL $C977			A:FF X:20 Y:00 P:B4 SP:FB CYC:6678
C96C B0 09    BCS $C977			A:FF X:20 Y:00 P:B4 SP:FB CYC:6681
C96E C9 FF    CMP #$FF			A:FF X:20 Y:00 P:B4 SP:FB CYC:6682
C970 D0 05    BNE $C977			A:FF X:20 Y:00 P:B4 SP:FB CYC:6684
C977 A2 21    LDX #$21			A:FF X:20 Y:00 P:B4 SP:FB CYC:6687
C979 86 00    STX $00			A:FF X:21 Y:00 P:34 SP:FB CYC:6689
C97B EA       NOP 			A:FF X:21 Y:00 P:34 SP:FB CYC:6692
C97C 38       SEC 			A:FF X:21 Y:00 P:34 SP:FB CYC:6694
C97D B8       CLV 			A:FF X:21 Y:00 P:35 SP:FB CYC:6696
C97E A9 7F    LDA #$7F			A:FF X:21 Y:00 P:35 SP:FB CYC:6698
C980 69 80    ADC #$80			A:7F X:21 Y:00 P:35 SP:FB CYC:6700
C982 D0 09    BNE $C98D			A:00 X:21 Y:00 P:37 SP:FB CYC:6702
C984 30 07    BMI $C98D			A:00 X:21 Y:00 P:37 SP:FB CYC:6705
C986 70 05    BVS $C98D			A:00 X:21 Y:00 P:37 SP:FB CYC:6706
C988 90 03    BCC $C98D			A:00 X:21 Y:00 P:37 SP:FB CYC:6709
C98A 4C 91 C9 JMP $C991			A:00 X:21 Y:00 P:37 SP:FB CYC:6710
C991 EA       NOP 			A:00 X:21 Y:00 P:37 SP:FB CYC:6713
C992 38       SEC 			A:00 X:21 Y:00 P:37 SP:FB CYC:6715
C993 B8       CLV 			A:00 X:21 Y:00 P:37 SP:FB CYC:6717
C994 A9 9F    LDA #$9F			A:00 X:21 Y:00 P:37 SP:FB CYC:6719
C996 F0 09    BEQ $C9A1			A:9F X:21 Y:00 P:B5 SP:FB CYC:6721
C998 10 07    BPL $C9A1			A:9F X:21 Y:00 P:B5 SP:FB CYC:6724
C99A 70 05    BVS $C9A1			A:9F X:21 Y:00 P:B5 SP:FB CYC:6725
C99C 90 03    BCC $C9A1			A:9F X:21 Y:00 P:B5 SP:FB CYC:6728
C99E 4C A5 C9 JMP $C9A5			A:9F X:21 Y:00 P:B5 SP:FB CYC:6729
C9A5 EA       NOP 			A:9F X:21 Y:00 P:B5 SP:FB CYC:6732
C9A6 18       CLC 			A:9F X:21 Y:00 P:B5 SP:FB CYC:6734
C9A7 24 01    BIT $01			A:9F X:21 Y:00 P:B4 SP:FB CYC:6736
C9A9 A9 00    LDA #$00			A:9F X:21 Y:00 P:F4 SP:FB CYC:6739
C9AB D0 09    BNE $C9B6			A:00 X:21 Y:00 P:76 SP:FB CYC:6741
C9AD 30 07    BMI $C9B6			A:00 X:21 Y:00 P:76 SP:FB CYC:6744
C9AF 50 05    BVC $C9B6			A:00 X:21 Y:00 P:76 SP:FB CYC:6745
C9B1 B0 03    BCS $C9B6			A:00 X:21 Y:00 P:76 SP:FB CYC:6748
C9B3 4C BA C9 JMP $C9BA			A:00 X:21 Y:00 P:76 SP:FB CYC:6749
C9BA EA       NOP 			A:00 X:21 Y:00 P:76 SP:FB CYC:6752
C9BB 24 01    BIT $01			A:00 X:21 Y:00 P:76 SP:FB CYC:6754
C9BD A9 40    LDA #$40			A:00 X:21 Y:00 P:F6 SP:FB CYC:6757
C9BF C9 40    CMP #$40			A:40 X:21 Y:00 P:74 SP:FB CYC:6759
C9C1 30 09    BMI $C9CC			A:40 X:21 Y:00 P:F4 SP:FB CYC:6761
C9CC A2 24    LDX #$24			A:40 X:21 Y:00 P:F4 SP:FB CYC:6764
C9CE 86 00    STX $00			A:40 X:24 Y:00 P:74 SP:FB CYC:6766
C9D0 EA       NOP 			A:40 X:24 Y:00 P:74 SP:FB CYC:6769
C9D1 B8       CLV 			A:40 X:24 Y:00 P:74 SP:FB CYC:6771
C9D2 C9 3F    CMP #$3F			A:40 X:24 Y:00 P:34 SP:FB CYC:6773
C9D4 F0 09    BEQ $C9DF			A:40 X:24 Y:00 P:37 SP:FB CYC:6775
C9DF A2 25    LDX #$25			A:40 X:24 Y:00 P:37 SP:FB CYC:6778
C9E1 86 00    STX $00			A:40 X:25 Y:00 P:35 SP:FB CYC:6780
C9E3 EA       NOP 			A:40 X:25 Y:00 P:35 SP:FB CYC:6783
C9E4 C9 41    CMP #$41			A:40 X:25 Y:00 P:35 SP:FB CYC:6785
C9E6 F0 07    BEQ $C9EF			A:40 X:25 Y:00 P:B4 SP:FB CYC:6787
C9E8 10 05    BPL $C9EF			A:40 X:25 Y:00 P:B4 SP:FB CYC:6790
C9EA 10 03    BPL $C9EF			A:40 X:25 Y:00 P:B4 SP:FB CYC:6791
C9EC 4C F3 C9 JMP $C9F3			A:40 X:25 Y:00 P:B4 SP:FB CYC:6793
C9F3 EA       NOP 			A:40 X:25 Y:00 P:B4 SP:FB CYC:6796
C9F4 A9 80    LDA #$80			A:40 X:25 Y:00 P:B4 SP:FB CYC:6798
C9F6 C9 00    CMP #$00			A:80 X:25 Y:00 P:B4 SP:FB CYC:6800
C9F8 F0 07    BEQ $CA01			A:80 X:25 Y:00 P:35 SP:FB CYC:6802
C9FA 10 05    BPL $CA01			A:80 X:25 Y:00 P:35 SP:FB CYC:6804
C903 A9 70    LDA #$70			A:80 X:25 Y:00 P:35 SP:FB CYC:6807
C905 49 70    EOR #$70			A:70 X:25 Y:00 P:35 SP:FB CYC:6809
C907 D0 09    BNE $C912			A:00 X:25 Y:00 P:37 SP:FB CYC:6811
C909 70 07    BVS $C912			A:00 X:25 Y:00 P:37 SP:FB CYC:6814
C90B 90 05    BCC $C912			A:00 X:25 Y:00 P:37 SP:FB CYC:6815
C90D 30 03    BMI $C912			A:00 X:25 Y:00 P:37 SP:FB CYC:6818
C90F 4C 16 C9 JMP $C916			A:00 X:25 Y:00 P:37 SP:FB CYC:6819
C916 EA       NOP 			A:00 X:25 Y:00 P:37 SP:FB CYC:6822
C917 18       CLC 			A:00 X:25 Y:00 P:37 SP:FB CYC:6824
C918 24 01    BIT $01			A:00 X:25 Y:00 P:36 SP:FB CYC:6826
C91A A9 00    LDA #$00			A:00 X:25 Y:00 P:F6 SP:FB CYC:6829
C91C 69 69    ADC #$69			A:00 X:25 Y:00 P:76 SP:FB CYC:6831
C91E 30 0B    BMI $C92B			A:69 X:25 Y:00 P:34 SP:FB CYC:6833
C920 B0 09    BCS $C92B			A:69 X:25 Y:00 P:34 SP:FB CYC:6836
C922 C9 69    CMP #$69			A:69 X:25 Y:00 P:34 SP:FB CYC:6837
C924 D0 05    BNE $C92B			A:69 X:25 Y:00 P:B4 SP:FB CYC:6839
C92B A2 1E    LDX #$1E			A:69 X:25 Y:00 P:B4 SP:FB CYC:6842
C92D 86 00    STX $00			A:69 X:1E Y:00 P:34 SP:FB CYC:6844
C92F EA       NOP 			A:69 X:1E Y:00 P:34 SP:FB CYC:6847
C930 38       SEC 			A:69 X:1E Y:00 P:34 SP:FB CYC:6849
C931 F8       SED 			A:69 X:1E Y:00 P:35 SP:FB CYC:6851
C932 24 01    BIT $01			A:69 X:1E Y:00 P:3D SP:FB CYC:6853
C934 A9 01    LDA #$01			A:69 X:1E Y:00 P:FD SP:FB CYC:6856
C936 69 69    ADC #$69			A:01 X:1E Y:00 P:7D SP:FB CYC:6858
C938 30 0B    BMI $C945			A:6B X:1E Y:00 P:3C SP:FB CYC:6860
C93A B0 09    BCS $C945			A:6B X:1E Y:00 P:3C SP:FB CYC:6863
C93C C9 6B    CMP #$6B			A:6B X:1E Y:00 P:3C SP:FB CYC:6864
C93E D0 05    BNE $C945			A:6B X:1E Y:00 P:BC SP:FB CYC:6866
C945 A2 1F    LDX #$1F			A:6B X:1E Y:00 P:BC SP:FB CYC:6869
C947 86 00    STX $00			A:6B X:1F Y:00 P:3C SP:FB CYC:6871
C949 EA       NOP 			A:6B X:1F Y:00 P:3C SP:FB CYC:6874
C94A D8       CLD 			A:6B X:1F Y:00 P:3C SP:FB CYC:6876
C94B 38       SEC 			A:6B X:1F Y:00 P:34 SP:FB CYC:6878
C94C B8       CLV 			A:6B X:1F Y:00 P:35 SP:FB CYC:6880
C94D A9 7F    LDA #$7F			A:6B X:1F Y:00 P:35 SP:FB CYC:6882
C94F 69 7F    ADC #$7F			A:7F X:1F Y:00 P:35 SP:FB CYC:6884
C951 10 0B    BPL $C95E			A:FF X:1F Y:00 P:F4 SP:FB CYC:6886
C953 B0 09    BCS $C95E			A:FF X:1F Y:00 P:F4 SP:FB CYC:6889
C955 C9 FF    CMP #$FF			A:FF X:1F Y:00 P:F4 SP:FB CYC:6890
C957 D0 05    BNE $C95E			A:FF X:1F Y:00 P:F4 SP:FB CYC:6892
C95E A2 20    LDX #$20			A:FF X:1F Y:00 P:F4 SP:FB CYC:6895
C960 86 00    STX $00			A:FF X:20 Y:00 P:74 SP:FB CYC:6897
C962 EA       NOP 			A:FF X:20 Y:00 P:74 SP:FB CYC:6900
C963 18       CLC 			A:FF X:20 Y:00 P:74 SP:FB CYC:6902
C964 24 01    BIT $01			A:FF X:20 Y:00 P:74 SP:FB CYC:6904
C966 A9 7F    LDA #$7F			A:FF X:20 Y:00 P:F4 SP:FB CYC:6907
C968 69 80    ADC #$80			A:7F X:20 Y:00 P:74 SP:FB CYC:6909
C96A 10 0B    BPL $C977			A:FF X:20 Y:00 P:B4 SP:FB CYC:6911
C96C B0 09    BCS $C977			A:FF X:20 Y:00 P:B4 SP:FB CYC:6914
C96E C9 FF    CMP #$FF			A:FF X:20 Y:00 P:B4 SP:FB CYC:6915
C970 D0 05    BNE $C977			A:FF X:20 Y:00 P:B4 SP:FB CYC:6917
C977 A2 21    LDX #$21			A:FF X:20 Y:00 P:B4 SP:FB CYC:6920
C979 86 00    STX $00			A:FF X:21 Y:00 P:34 SP:FB CYC:6922
C97B EA       NOP 			A:FF X:21 Y:00 P:34 SP:FB CYC:6925
C97C 38       SEC 			A:FF X:21 Y:00 P:34 SP:FB CYC:6927
C97D B8       CLV 			A:FF X:21 Y:00 P:35 SP:FB CYC:6929
C97E A9 7F    LDA #$7F			A:FF X:21 Y:00 P:35 SP:FB CYC:6931
C980 69 80    ADC #$80			A:7F X:21 Y:00 P:35 SP:FB CYC:6933
C982 D0 09    BNE $C98D			A:00 X:21 Y:00 P:37 SP:FB CYC:6935
C984 30 07    BMI $C98D			A:00 X:21 Y:00 P:37 SP:FB CYC:6938
C986 70 05    BVS $C98D			A:00 X:21 Y:00 P:37 SP:FB CYC:6939
C988 90 03    BCC $C98D			A:00 X:21 Y:00 P:37 SP:FB CYC:6942
C98A 4C 91 C9 JMP $C991			A:00 X:21 Y:00 P:37 SP:FB CYC:6943
C991 EA       NOP 			A:00 X:21 Y:00 P:37 SP:FB CYC:6946
C992 38       SEC 			A:00 X:21 Y:00 P:37 SP:FB CYC:6948
C993 B8       CLV 			A:00 X:21 Y:00 P:37 SP:FB CYC:6950
C994 A9 9F    LDA #$9F			A:00 X:21 Y:00 P:37 SP:FB CYC:6952
C996 F0 09    BEQ $C9A1			A:9F X:21 Y:00 P:B5 SP:FB CYC:6954
C998 10 07    BPL $C9A1			A:9F X:21 Y:00 P:B5 SP:FB CYC:6957
C99A 70 05    BVS $C9A1			A:9F X:21 Y:00 P:B5 SP:FB CYC:6958
C99C 90 03    BCC $C9A1			A:9F X:21 Y:00 P:B5 SP:FB CYC:6961
C99E 4C A5 C9 JMP $C9A5			A:9F X:21 Y:00 P:B5 SP:FB CYC:6962
C9A5 EA       NOP 			A:9F X:21 Y:00 P:B5 SP:FB CYC:6965
C9A6 18       CLC 			A:9F X:21 Y:00 P:B5 SP:FB CYC:6967
C9A7 24 01    BIT $01			A:9F X:21 Y:00 P:B4 SP:FB CYC:6969
C9A9 A9 00    LDA #$00			A:9F X:21 Y:00 P:F4 SP:FB CYC:6972
C9AB D0 09    BNE $C9B6			A:00 X:21 Y:00 P:76 SP:FB CYC:6974
C9AD 30 07    BMI $C9B6			A:00 X:21 Y:00 P:76 SP:FB CYC:6977
C9AF 50 05    BVC $C9B6			A:00 X:21 Y:00 P:76 SP:FB CYC:6978
C9B1 B0 03    BCS $C9B6			A:00 X:21 Y:00 P:76 SP:FB CYC:6981
C9B3 4C BA C9 JMP $C9BA			A:00 X:21 Y:00 P:76 SP:FB CYC:6982
C9BA EA       NOP 			A:00 X:21 Y:00 P:76 SP:FB CYC:6985
C9BB 24 01    BIT $01			A:00 X:21 Y:00 P:76 SP:FB CYC:6987
C9BD A9 40    LDA #$40			A:00 X:21 Y:00 P:F6 SP:FB CYC:6990
C9BF C9 40    CMP #$40			A:40 X:21 Y:00 P:74 SP:FB CYC:6992
C9C1 30 09    BMI $C9CC			A:40 X:21 Y:00 P:F4 SP:FB CYC:6994
C9CC A2 24    LDX #$24			A:40 X:21 Y:00 P:F4 SP:FB CYC:6997
C9CE 86 00    STX $00			A:40 X:24 Y:00 P:74 SP:FB CYC:6999
C9D0 EA       NOP 			A:40 X:24 Y:00 P:74 SP:FB CYC:7002
C9D1 B8       CLV 			A:40 X:24 Y:00 P:74 SP:FB CYC:7004
C9D2 C9 3F    CMP #$3F			A:40 X:24 Y:00 P:34 SP:FB CYC:7006
C9D4 F0 09    BEQ $C9DF			A:40 X:24 Y:00 P:37 SP:FB CYC:7008
C9DF A2 25    LDX #$25			A:40 X:24 Y:00 P:37 SP:FB CYC:7011
C9E1 86 00    STX $00			A:40 X:25 Y:00 P:35 SP:FB CYC:7013
C9E3 EA       NOP 			A:40 X:25 Y:00 P:35 SP:FB CYC:7016
C9E4 C9 41    CMP #$41			A:40 X:25 Y:00 P:35 SP:FB CYC:7018
C9E6 F0 07    BEQ $C9EF			A:40 X:25 Y:00 P:B4 SP:FB CYC:7020
C9E8 10 05    BPL $C9EF			A:40 X:25 Y:00 P:B4 SP:FB CYC:7023
C9EA 10 03    BPL $C9EF			A:40 X:25 Y:00 P:B4 SP:FB CYC:7024
C9EC 4C F3 C9 JMP $C9F3			A:40 X:25 Y:00 P:B4 SP:FB CYC:7026
C9F3 EA       NOP 			A:40 X:25 Y:00 P:B4 SP:FB CYC:7029
C9F4 A9 80    LDA #$80			A:40 X:25 Y:00 P:B4 SP:FB CYC:7031
C9F6 C9 00    CMP #$00			A:80 X:25 Y:00 P:B4 SP:FB CYC:7033
C9F8 F0 07    BEQ $CA01			A:80 X:25 Y:00 P:35 SP:FB CYC:7035
C9FA 10 05    BPL $CA01			A:80 X:25 Y:00 P:35 SP:FB CYC:7037
C903 A9 70    LDA #$70			A:80 X:25 Y:00 P:35 SP:FB CYC:7040
C905 49 70    EOR #$70			A:70 X:25 Y:00 P:35 SP:FB CYC:7042
C907 D0 09    BNE $C912			A:00 X:25 Y:00 P:37 SP:FB CYC:7044
C909 70 07    BVS $C912			A:00 X:25 Y:00 P:37 SP:FB CYC:7047
C90B 90 05    BCC $C912			A:00 X:25 Y:00 P:37 SP:FB CYC:7048
C90D 30 03    BMI $C912			A:00 X:25 Y:00 P:37 SP:FB CYC:7051
C90F 4C 16 C9 JMP $C916			A:00 X:25 Y:00 P:37 SP:FB CYC:7052
C916 EA       NOP 			A:00 X:25 Y:00 P:37 SP:FB CYC:7055
C917 18       CLC 			A:00 X:25 Y:00 P:37 SP:FB CYC:7057
C918 24 01    BIT $01			A:00 X:25 Y:00 P:36 SP:FB CYC:7059
C91A A9 00    LDA #$00			A:00 X:25 Y:00 P:F6 SP:FB CYC:7062
C91C 69 69    ADC #$69			A:00 X:25 Y:00 P:76 SP:FB CYC:7064
C91E 30 0B    BMI $C92B			A:69 X:25 Y:00 P:34 SP:FB CYC:7066
C920 B0 09    BCS $C92B			A:69 X:25 Y:00 P:34 SP:FB CYC:7069
C922 C9 69    CMP #$69			A:69 X:25 Y:00 P:34 SP:FB CYC:7070
C924 D0 05    BNE $C92B			A:69 X:25 Y:00 P:B4 SP:FB CYC:7072
C92B A2 1E    LDX #$1E			A:69 X:25 Y:00 P:B4 SP:FB CYC:7075
C92D 86 00    STX $00			A:69 X:1E Y:00 P:34 SP:FB CYC:7077
C92F EA       NOP 			A:69 X:1E Y:00 P:34 SP:FB CYC:7080
C930 38       SEC 			A:69 X:1E Y:00 P:34 SP:FB CYC:7082
C931 F8       SED 			A:69 X:1E Y:00 P:35 SP:FB CYC:7084
C932 24 01    BIT $01			A:69 X:1E Y:00 P:3D SP:FB CYC:7086
C934 A9 01    LDA #$01			A:69 X:1E Y:00 P:FD SP:FB CYC:7089
C936 69 69    ADC #$69			A:01 X:1E Y:00 P:7D SP:FB CYC:7091
C938 30 0B    BMI $C945			A:6B X:1E Y:00 P:3C SP:FB CYC:7093
C93A B0 09    BCS $C945			A:6B X:1E Y:00 P:3C SP:FB CYC:7096
C93C C9 6B    CMP #$6B			A:6B X:1E Y:00 P:3C SP:FB CYC:7097
C93E D0 05    BNE $C945			A:6B X:1E Y:00 P:BC SP:FB CYC:7099
C945 A2 1F    LDX #$1F			A:6B X:1E Y:00 P:BC SP:FB CYC:7102
C947 86 00    STX $00			A:6B X:1F Y:00 P:3C SP:FB CYC:7104
C949 EA       NOP 			A:6B X:1F Y:00 P:3C SP:FB CYC:7107
C94A D8       CLD 			A:6B X:1F Y:00 P:3C SP:FB CYC:7109
C94B 38       SEC 			A:6B X:1F Y:00 P:34 SP:FB CYC:7111
C94C B8       CLV 			A:6B X:1F Y:00 P:35 SP:FB CYC:7113
C94D A9 7F    LDA #$7F			A:6B X:1F Y:00 P:35 SP:FB CYC:7115
C94F 69 7F    ADC #$7F			A:7F X:1F Y:00 P:35 SP:FB CYC:7117
C951 10 0B    BPL $C95E			A:FF X:1F Y:00 P:F4 SP:FB CYC:7119
C953 B0 09    BCS $C95E			A:FF X:1F Y:00 P:F4 SP:FB CYC:7122
C955 C9 FF    CMP #$FF			A:FF X:1F Y:00 P:F4 SP:FB CYC:7123
C957 D0 05    BNE $C95E			A:FF X:1F Y:00 P:F4 SP:FB CYC:7125
C95E A2 20    LDX #$20			A:FF X:1F Y:00 P:F4 SP:FB CYC:7128
C960 86 00    STX $00			A:FF X:20 Y:00 P:74 SP:FB CYC:7130
C962 EA       NOP 			A:FF X:20 Y:00 P:74 SP:FB CYC:7133
C963 18       CLC 			A:FF X:20 Y:00 P:74 SP:FB CYC:7135
C964 24 01    BIT $01			A:FF X:20 Y:00 P:74 SP:FB CYC:7137
C966 A9 7F    LDA #$7F			A:FF X:20 Y:00 P:F4 SP:FB CYC:7140
C968 69 80    ADC #$80			A:7F X:20 Y:00 P:74 SP:FB CYC:7142
C96A 10 0B    BPL $C977			A:FF X:20 Y:00 P:B4 SP:FB CYC:7144
C96C B0 09    BCS $C977			A:FF X:20 Y:00 P:B4 SP:FB CYC:7147
C96E C9 FF    CMP #$FF			A:FF X:20 Y:00 P:B4 SP:FB CYC:7148
C970 D0 05    BNE $C977			A:FF X:20 Y:00 P:B4 SP:FB CYC:7150
C977 A2 21    LDX #$21			A:FF X:20 Y:00 P:B4 SP:FB CYC:7153
C979 86 00    STX $00			A:FF X:21 Y:00 P:34 SP:FB CYC:7155
C97B EA       NOP 			A:FF X:21 Y:00 P:34 SP:FB CYC:7158
C97C 38       SEC 			A:FF X:21 Y:00 P:34 SP:FB CYC:7160
C97D B8       CLV 			A:FF X:21 Y:00 P:35 SP:FB CYC:7162
C97E A9 7F    LDA #$7F			A:FF X:21 Y:00 P:35 SP:FB CYC:7164
C980 69 80    ADC #$80			A:7F X:21 Y:00 P:35 SP:FB CYC:7166
C982 D0 09    BNE $C98D			A:00 X:21 Y:00 P:37 SP:FB CYC:7168
C984 30 07    BMI $C98D			A:00 X:21 Y:00 P:37 SP:FB CYC:7171
C986 70 05    BVS $C98D			A:00 X:21 Y:00 P:37 SP:FB CYC:7172
C988 90 03    BCC $C98D			A:00 X:21 Y:00 P:37 SP:FB CYC:7175
C98A 4C 91 C9 JMP $C991			A:00 X:21 Y:00 P:37 SP:FB CYC:7176
C991 EA       NOP 			A:00 X:21 Y:00 P:37 SP:FB CYC:7179
C992 38       SEC 			A:00 X:21 Y:00 P:37 SP:FB CYC:7181
C993 B8       CLV 			A:00 X:21 Y:00 P:37 SP:FB CYC:7183
C994 A9 9F    LDA #$9F			A:00 X:21 Y:00 P:37 SP:FB CYC:7185
C996 F0 09    BEQ $C9A1			A:9F X:21 Y:00 P:B5 SP:FB CYC:7187
C998 10 07    BPL $C9A1			A:9F X:21 Y:00 P:B5 SP:FB CYC:7190
C99A 70 05    BVS $C9A1			A:9F X:21 Y:00 P:B5 SP:FB CYC:7191
C99C 90 03    BCC $C9A1			A:9F X:21 Y:00 P:B5 SP:FB CYC:7194
C99E 4C A5 C9 JMP $C9A5			A:9F X:21 Y:00 P:B5 SP:FB CYC:7195
C9A5 EA       NOP 			A:9F X:21 Y:00 P:B5 SP:FB CYC:7198
C9A6 18       CLC 			A:9F X:21 Y:00 P:B5 SP:FB CYC:7200
C9A7 24 01    BIT $01			A:9F X:21 Y:00 P:B4 SP:FB CYC:7202
C9A9 A9 00    LDA #$00			A:9F X:21 Y:00 P:F4 SP:FB CYC:7205
C9AB D0 09    BNE $C9B6			A:00 X:21 Y:00 P:76 SP:FB CYC:7207
C9AD 30 07    BMI $C9B6			A:00 X:21 Y:00 P:76 SP:FB CYC:7210
C9AF 50 05    BVC $C9B6			A:00 X:21 Y:00 P:76 SP:FB CYC:7211
C9B1 B0 03    BCS $C9B6			A:00 X:21 Y:00 P:76 SP:FB CYC:7214
C9B3 4C BA C9 JMP $C9BA			A:00 X:21 Y:00 P:76 SP:FB CYC:7215
C9BA EA       NOP 			A:00 X:21 Y:00 P:76 SP:FB CYC:7218
C9BB 24 01    BIT $01			A:00 X:21 Y:00 P:76 SP:FB CYC:7220
C9BD A9 40    LDA #$40			A:00 X:21 Y:00 P:F6 SP:FB CYC:7223
C9BF C9 40    CMP #$40			A:40 X:21 Y:00 P:74 SP:FB CYC:7225
C9C1 30 09    BMI $C9CC			A:40 X:21 Y:00 P:F4 SP:FB CYC:7227
C9CC A2 24    LDX #$24			A:40 X:21 Y:00 P:F4 SP:FB CYC:7230
C9CE 86 00    STX $00			A:40 X:24 Y:00 P:74 SP:FB CYC:7232
C9D0 EA       NOP 			A:40 X:24 Y:00 P:74 SP:FB CYC:7235
C9D1 B8       CLV 			A:40 X:24 Y:00 P:74 SP:FB CYC:7237
C9D2 C9 3F    CMP #$3F			A:40 X:24 Y:00 P:34 SP:FB CYC:7239
C9D4 F0 09    BEQ $C9DF			A:40 X:24 Y:00 P:37 SP:FB CYC:7241
C9DF A2 25    LDX #$25			A:40 X:24 Y:00 P:37 SP:FB CYC:7244
C9E1 86 00    STX $00			A:40 X:25 Y:00 P:35 SP:FB CYC:7246
C9E3 EA       NOP 			A:40 X:25 Y:00 P:35 SP:FB CYC:7249
C9E4 C9 41    CMP #$41			A:40 X:25 Y:00 P:35 SP:FB CYC:7251
C9E6 F0 07    BEQ $C9EF			A:40 X:25 Y:00 P:B4 SP:FB CYC:7253
C9E8 10 05    BPL $C9EF			A:40 X:25 Y:00 P:B4 SP:FB CYC:7256
C9EA 10 03    BPL $C9EF			A:40 X:25 Y:00 P:B4 SP:FB CYC:7257
C9EC 4C F3 C9 JMP $C9F3			A:40 X:25 Y:00 P:B4 SP:FB CYC:7259
C9F3 EA       NOP 			A:40 X:25 Y:00 P:B4 SP:FB CYC:7262
C9F4 A9 80    LDA #$80			A:40 X:25 Y:00 P:B4 SP:FB CYC:7264
C9F6 C9 00    CMP #$00			A:80 X:25 Y:00 P:B4 SP:FB CYC:7266
C9F8 F0 07    BEQ $CA01			A:80 X:25 Y:00 P:35 SP:FB CYC:7268
C9FA 10 05    BPL $CA01			A:80 X:25 Y:00 P:35 SP:FB CYC:7270
C903 A9 70    LDA #$70			A:80 X:25 Y:00 P:35 SP:FB CYC:7273
C905 49 70    EOR #$70			A:70 X:25 Y:00 P:35 SP:FB CYC:7275
C907 D0 09    BNE $C912			A:00 X:25 Y:00 P:37 SP:FB CYC:7277
C909 70 07    BVS $C912			A:00 X:25 Y:00 P:37 SP:FB CYC:7280
C90B 90 05    BCC $C912			A:00 X:25 Y:00 P:37 SP:FB CYC:7281
C90D 30 03    BMI $C912			A:00 X:25 Y:00 P:37 SP:FB CYC:7284
C90F 4C 16 C9 JMP $C916			A:00 X:25 Y:00 P:37 SP:FB CYC:7285
C916 EA       NOP 			A:00 X:25 Y:00 P:37 SP:FB CYC:7288
C917 18       CLC 			A:00 X:25 Y:00 P:37 SP:FB CYC:7290
C918 24 01    BIT $01			A:00 X:25 Y:00 P:36 SP:FB CYC:7292
C91A A9 00    LDA #$00			A:00 X:25 Y:00 P:F6 SP:FB CYC:7295
C91C 69 69    ADC #$69			A:00 X:25 Y:00 P:76 SP:FB CYC:7297
C91E 30 0B    BMI $C92B			A:69 X:25 Y:00 P:34 SP:FB CYC:7299
C920 B0 09    BCS $C92B			A:69 X:25 Y:00 P:34 SP:FB CYC:7302
C922 C9 69    CMP #$69			A:69 X:25 Y:00 P:34 SP:FB CYC:7303
C924 D0 05    BNE $C92B			A:69 X:25 Y:00 P:B4 SP:FB CYC:7305
C92B A2 1E    LDX #$1E			A:69 X:25 Y:00 P:B4 SP:FB CYC:7308
C92D 86 00    STX $00			A:69 X:1E Y:00 P:34 SP:FB CYC:7310
C92F EA       NOP 			A:69 X:1E Y:00 P:34 SP:FB CYC:7313
C930 38       SEC 			A:69 X:1E Y:00 P:34 SP:FB CYC:7315
C931 F8       SED 			A:69 X:1E Y:00 P:35 SP:FB CYC:7317
C932 24 01    BIT $01			A:69 X:1E Y:00 P:3D SP:FB CYC:7319
C934 A9 01    LDA #$01			A:69 X:1E Y:00 P:FD SP:FB CYC:7322
C936 69 69    ADC #$69			A:01 X:1E Y:00 P:7D SP:FB CYC:7324
C938 30 0B    BMI $C945			A:6B X:1E Y:00 P:3C SP:FB CYC:7326
C93A B0 09    BCS $C945			A:6B X:1E Y:00 P:3C SP:FB CYC:7329
C93C C9 6B    CMP #$6B			A:6B X:1E Y:00 P:3C SP:FB CYC:7330
C93E D0 05    BNE $C945			A:6B X:1E Y:00 P:BC SP:FB CYC:7332
C945 A2 1F    LDX #$1F			A:6B X:1E Y:00 P:BC SP:FB CYC:7335
C947 86 00    STX $00			A:6B X:1F Y:00 P:3C SP:FB CYC:7337
C949 EA       NOP 			A:6B X:1F Y:00 P:3C SP:FB CYC:7340
C94A D8       CLD 			A:6B X:1F Y:00 P:3C SP:FB CYC:7342
C94B 38       SEC 			A:6B X:1F Y:00 P:34 SP:FB CYC:7344
C94C B8       CLV 			A:6B X:1F Y:00 P:35 SP:FB CYC:7346
C94D A9 7F    LDA #$7F			A:6B X:1F Y:00 P:35 SP:FB CYC:7348
C94F 69 7F    ADC #$7F			A:7F X:1F Y:00 P:35 SP:FB CYC:7350
C951 10 0B    BPL $C95E			A:FF X:1F Y:00 P:F4 SP:FB CYC:7352
C953 B0 09    BCS $C95E			A:FF X:1F Y:00 P:F4 SP:FB CYC:7355
C955 C9 FF    CMP #$FF			A:FF X:1F Y:00 P:F4 SP:FB CYC:7356
C957 D0 05    BNE $C95E			A:FF X:1F Y:00 P:F4 SP:FB CYC:7358
C95E A2 20    LDX #$20			A:FF X:1F Y:00 P:F4 SP:FB CYC:7361
C960 86 00    STX $00			A:FF X:20 Y:00 P:74 SP:FB CYC:7363
C962 EA       NOP 			A:FF X:20 Y:00 P:74 SP:FB CYC:7366
C963 18       CLC 			A:FF X:20 Y:00 P:74 SP:FB CYC:7368
C964 24 01    BIT $01			A:FF X:20 Y:00 P:74 SP:FB CYC:7370
C966 A9 7F    LDA #$7F			A:FF X:20 Y:00 P:F4 SP:FB CYC:7373
C968 69 80    ADC #$80			A:7F X:20 Y:00 P:74 SP:FB CYC:7375
C96A 10 0B    BPL $C977			A:FF X:20 Y:00 P:B4 SP:FB CYC:7377
C96C B0 09    BCS $C977			A:FF X:20 Y:00 P:B4 SP:FB CYC:7380
C96E C9 FF    CMP #$FF			A:FF X:20 Y:00 P:B4 SP:FB CYC:7381
C970 D0 05    BNE $C977			A:FF X:20 Y:00 P:B4 SP:FB CYC:7383
C977 A2 21    LDX #$21			A:FF X:20 Y:00 P:B4 SP:FB CYC:7386
C979 86 00    STX $00			A:FF X:21 Y:00 P:34 SP:FB CYC:7388
C97B EA       NOP 			A:FF X:21 Y:00 P:34 SP:FB CYC:7391
C97C 38       SEC 			A:FF X:21 Y:00 P:34 SP:FB CYC:7393
C97D B8       CLV 			A:FF X:21 Y:00 P:35 SP:FB CYC:7395
C97E A9 7F    LDA #$7F			A:FF X:21 Y:00 P:35 SP:FB CYC:7397
C980 69 80    ADC #$80			A:7F X:21 Y:00 P:35 SP:FB CYC:7399
C982 D0 09    BNE $C98D			A:00 X:21 Y:00 P:37 SP:FB CYC:7401
C984 30 07    BMI $C98D			A:00 X:21 Y:00 P:37 SP:FB CYC:7404
C986 70 05    BVS $C98D			A:00 X:21 Y:00 P:37 SP:FB CYC:7405
C988 90 03    BCC $C98D			A:00 X:21 Y:00 P:37 SP:FB CYC:7408
C98A 4C 91 C9 JMP $C991			A:00 X:21 Y:00 P:37 SP:FB CYC:7409
C991 EA       NOP 			A:00 X:21 Y:00 P:37 SP:FB CYC:7412
C992 38       SEC 			A:00 X:21 Y:00 P:37 SP:FB CYC:7414
C993 B8       CLV 			A:00 X:21 Y:00 P:37 SP:FB CYC:7416
C994 A9 9F    LDA #$9F			A:00 X:21 Y:00 P:37 SP:FB CYC:7418
C996 F0 09    BEQ $C9A1			A:9F X:21 Y:00 P:B5 SP:FB CYC:7420
C998 10 07    BPL $C9A1			A:9F X:21 Y:00 P:B5 SP:FB CYC:7423
C99A 70 05    BVS $C9A1			A:9F X:21 Y:00 P:B5 SP:FB CYC:7424
C99C 90 03    BCC $C9A1			A:9F X:21 Y:00 P:B5 SP:FB CYC:7427
C99E 4C A5 C9 JMP $C9A5			A:9F X:21 Y:00 P:B5 SP:FB CYC:7428
C9A5 EA       NOP 			A:9F X:21 Y:00 P:B5 SP:FB CYC:7431
C9A6 18       CLC 			A:9F X:21 Y:00 P:B5 SP:FB CYC:7433
C9A7 24 01    BIT $01			A:9F X:21 Y:00 P:B4 SP:FB CYC:7435
C9A9 A9 00    LDA #$00			A:9F X:21 Y:00 P:F4 SP:FB CYC:7438
C9AB D0 09    BNE $C9B6			A:00 X:21 Y:00 P:76 SP:FB CYC:7440
C9AD 30 07    BMI $C9B6			A:00 X:21 Y:00 P:76 SP:FB CYC:7443
C9AF 50 05    BVC $C9B6			A:00 X:21 Y:00 P:76 SP:FB CYC:7444
C9B1 B0 03    BCS $C9B6			A:00 X:21 Y:00 P:76 SP:FB CYC:7447
C9B3 4C BA C9 JMP $C9BA			A:00 X:21 Y:00 P:76 SP:FB CYC:7448
C9BA EA       NOP 			A:00 X:21 Y:00 P:76 SP:FB CYC:7451
C9BB 24 01    BIT $01			A:00 X:21 Y:00 P:76 SP:FB CYC:7453
C9BD A9 40    LDA #$40			A:00 X:21 Y:00 P:F6 SP:FB CYC:7456
C9BF C9 40    CMP #$40			A:40 X:21 Y:00 P:74 SP:FB CYC:7458
C9C1 30 09    BMI $C9CC			A:40 X:21 Y:00 P:F4 SP:FB CYC:7460
C9CC A2 24    LDX #$24			A:40 X:21 Y:00 P:F4 SP:FB CYC:7463
C9CE 86 00    STX $00			A:40 X:24 Y:00 P:74 SP:FB CYC:7465
C9D0 EA       NOP 			A:40 X:24 Y:00 P:74 SP:FB CYC:7468
C9D1 B8       CLV 			A:40 X:24 Y:00 P:74 SP:FB CYC:7470
C9D2 C9 3F    CMP #$3F			A:40 X:24 Y:00 P:34 SP:FB CYC:7472
C9D4 F0 09    BEQ $C9DF			A:40 X:24 Y:00 P:37 SP:FB CYC:7474
C9DF A2 25    LDX #$25			A:40 X:24 Y:00 P:37 SP:FB CYC:7477
C9E1 86 00    STX $00			A:40 X:25 Y:00 P:35 SP:FB CYC:7479
C9E3 EA       NOP 			A:40 X:25 Y:00 P:35 SP:FB CYC:7482
C9E4 C9 41    CMP #$41			A:40 X:25 Y:00 P:35 SP:FB CYC:7484
C9E6 F0 07    BEQ $C9EF			A:40 X:25 Y:00 P:B4 SP:FB CYC:7486
C9E8 10 05    BPL $C9EF			A:40 X:25 Y:00 P:B4 SP:FB CYC:7489
C9EA 10 03    BPL $C9EF			A:40 X:25 Y:00 P:B4 SP:FB CYC:7490
C9EC 4C F3 C9 JMP $C9F3			A:40 X:25 Y:00 P:B4 SP:FB CYC:7492
C9F3 EA       NOP 			A:40 X:25 Y:00 P:B4 SP:FB CYC:7495
C9F4 A9 80    LDA #$80			A:40 X:25 Y:00 P:B4 SP:FB CYC:7497
C9F6 C9 00    CMP #$00			A:80 X:25 Y:00 P:B4 SP:FB CYC:7499
C9F8 F0 07    BEQ $CA01			A:80 X:25 Y:00 P:35 SP:FB CYC:7501
C9FA 10 05    BPL $CA01			A:80 X:25 Y:00 P:35 SP:FB CYC:7503
C903 A9 70    LDA #$70			A:80 X:25 Y:00 P:35 SP:FB CYC:7506
C905 49 70    EOR #$70			A:70 X:25 Y:00 P:35 SP:FB CYC:7508
C907 D0 09    BNE $C912			A:00 X:25 Y:00 P:37 SP:FB CYC:7510
C909 70 07    BVS $C912			A:00 X:25 Y:00 P:37 SP:FB CYC:7513
C90B 90 05    BCC $C912			A:00 X:25 Y:00 P:37 SP:FB CYC:7514
C90D 30 03    BMI $C912			A:00 X:25 Y:00 P:37 SP:FB CYC:7517
C90F 4C 16 C9 JMP $C916			A:00 X:25 Y:00 P:37 SP:FB CYC:7518
C916 EA       NOP 			A:00 X:25 Y:00 P:37 SP:FB CYC:7521
C917 18       CLC 			A:00 X:25 Y:00 P:37 SP:FB CYC:7523
C918 24 01    BIT $01			A:00 X:25 Y:00 P:36 SP:FB CYC:7525
C91A A9 00    LDA #$00			A:00 X:25 Y:00 P:F6 SP:FB CYC:7528
C91C 69 69    ADC #$69			A:00 X:25 Y:00 P:76 SP:FB CYC:7530
C91E 30 0B    BMI $C92B			A:69 X:25 Y:00 P:34 SP:FB CYC:7532
C920 B0 09    BCS $C92B			A:69 X:25 Y:00 P:34 SP:FB CYC:7535
C922 C9 69    CMP #$69			A:69 X:25 Y:00 P:34 SP:FB CYC:7536
C924 D0 05    BNE $C92B			A:69 X:25 Y:00 P:B4 SP:FB CYC:7538
C92B A2 1E    LDX #$1E			A:69 X:25 Y:00 P:B4 SP:FB CYC:7541
C92D 86 00    STX $00			A:69 X:1E Y:00 P:34 SP:FB CYC:7543
C92F EA       NOP 			A:69 X:1E Y:00 P:34 SP:FB CYC:7546
C930 38       SEC 			A:69 X:1E Y:00 P:34 SP:FB CYC:7548
C931 F8       SED 			A:69 X:1E Y:00 P:35 SP:FB CYC:7550
C932 24 01    BIT $01			A:69 X:1E Y:00 P:3D SP:FB CYC:7552
C934 A9 01    LDA #$01			A:69 X:1E Y:00 P:FD SP:FB CYC:7555
C936 69 69    ADC #$69			A:01 X:1E Y:00 P:7D SP:FB CYC:7557
C938 30 0B    BMI $C945			A:6B X:1E Y:00 P:3C SP:FB CYC:7559
C93A B0 09    BCS $C945			A:6B X:1E Y:00 P:3C SP:FB CYC:7562
C93C C9 6B    CMP #$6B			A:6B X:1E Y:00 P:3C SP:FB CYC:7563
C93E D0 05    BNE $C945			A:6B X:1E Y:00 P:BC SP:FB CYC:7565
C945 A2 1F    LDX #$1F			A:6B X:1E Y:00 P:BC SP:FB CYC:7568
C947 86 00    STX $00			A:6B X:1F Y:00 P:3C SP:FB CYC:7570
C949 EA       NOP 			A:6B X:1F Y:00 P:3C SP:FB CYC:7573
C94A D8       CLD 			A:6B X:1F Y:00 P:3C SP:FB CYC:7575
C94B 38       SEC 			A:6B X:1F Y:00 P:34 SP:FB CYC:7577
C94C B8       CLV 			A:6B X:1F Y:00 P:35 SP:FB CYC:7579
C94D A9 7F    LDA #$7F			A:6B X:1F Y:00 P:35 SP:FB CYC:7581
C94F 69 7F    ADC #$7F			A:7F X:1F Y:00 P:35 SP:FB CYC:7583
C951 10 0B    BPL $C95E			A:FF X:1F Y:00 P:F4 SP:FB CYC:7585
C953 B0 09    BCS $C95E			A:FF X:1F Y:00 P:F4 SP:FB CYC:7588
C955 C9 FF    CMP #$FF			A:FF X:1F Y:00 P:F4 SP:FB CYC:7589
C957 D0 05    BNE $C95E			A:FF X:1F Y:00 P:F4 SP:FB CYC:7591
C95E A2 20    LDX #$20			A:FF X:1F Y:00 P:F4 SP:FB CYC:7594
C960 86 00    STX $00			A:FF X:20 Y:00 P:74 SP:FB CYC:7596
C962 EA       NOP 			A:FF X:20 Y:00 P:74 SP:FB CYC:7599
C963 18       CLC 			A:FF X:20 Y:00 P:74 SP:FB CYC:7601
C964 24 01    BIT $01			A:FF X:20 Y:00 P:74 SP:FB CYC:7603
C966 A9 7F    LDA #$7F			A:FF X:20 Y:00 P:F4 SP:FB CYC:7606
C968 69 80    ADC #$80			A:7F X:20 Y:00 P:74 SP:FB CYC:7608
C96A 10 0B    BPL $C977			A:FF X:20 Y:00 P:B4 SP:FB CYC:7610
C96C B0 09    BCS $C977			A:FF X:20 Y:00 P:B4 SP:FB CYC:7613
C96E C9 FF    CMP #$FF			A:FF X:20 Y:00 P:B4 SP:FB CYC:7614
C970 D0 05    BNE $C977			A:FF X:20 Y:00 P:B4 SP:FB CYC:7616
C977 A2 21    LDX #$21			A:FF X:20 Y:00 P:B4 SP:FB CYC:7619
C979 86 00    STX $00			A:FF X:21 Y:00 P:34 SP:FB CYC:7621
C97B EA       NOP 			A:FF X:21 Y:00 P:34 SP:FB CYC:7624
C97C 38       SEC 			A:FF X:21 Y:00 P:34 SP:FB CYC:7626
C97D B8       CLV 			A:FF X:21 Y:00 P:35 SP:FB CYC:7628
C97E A9 7F    LDA #$7F			A:FF X:21 Y:00 P:35 SP:FB CYC:7630
C980 69 80    ADC #$80			A:7F X:21 Y:00 P:35 SP:FB CYC:7632
C982 D0 09    BNE $C98D			A:00 X:21 Y:00 P:37 SP:FB CYC:7634
C984 30 07    BMI $C98D			A:00 X:21 Y:00 P:37 SP:FB CYC:7637
C986 70 05    BVS $C98D			A:00 X:21 Y:00 P:37 SP:FB CYC:7638
C988 90 03    BCC $C98D			A:00 X:21 Y:00 P:37 SP:FB CYC:7641
C98A 4C 91 C9 JMP $C991			A:00 X:21 Y:00 P:37 SP:FB CYC:7642
C991 EA       NOP 			A:00 X:21 Y:00 P:37 SP:FB CYC:7645
C992 38       SEC 			A:00 X:21 Y:00 P:37 SP:FB CYC:7647
C993 B8       CLV 			A:00 X:21 Y:00 P:37 SP:FB CYC:7649
C994 A9 9F    LDA #$9F			A:00 X:21 Y:00 P:37 SP:FB CYC:7651
C996 F0 09    BEQ $C9A1			A:9F X:21 Y:00 P:B5 SP:FB CYC:7653
C998 10 07    BPL $C9A1			A:9F X:21 Y:00 P:B5 SP:FB CYC:7656
C99A 70 05    BVS $C9A1			A:9F X:21 Y:00 P:B5 SP:FB CYC:7657
C99C 90 03    BCC $C9A1			A:9F X:21 Y:00 P:B5 SP:FB CYC:7660
C99E 4C A5 C9 JMP $C9A5			A:9F X:21 Y:00 P:B5 SP:FB CYC:7661
C9A5 EA       NOP 			A:9F X:21 Y:00 P:B5 SP:FB CYC:7664
C9A6 18       CLC 			A:9F X:21 Y:00 P:B5 SP:FB CYC:7666
C9A7 24 01    BIT $01			A:9F X:21 Y:00 P:B4 SP:FB CYC:7668
C9A9 A9 00    LDA #$00			A:9F X:21 Y:00 P:F4 SP:FB CYC:7671
C9AB D0 09    BNE $C9B6			A:00 X:21 Y:00 P:76 SP:FB CYC:7673
C9AD 30 07    BMI $C9B6			A:00 X:21 Y:00 P:76 SP:FB CYC:7676
C9AF 50 05    BVC $C9B6			A:00 X:21 Y:00 P:76 SP:FB CYC:7677
C9B1 B0 03    BCS $C9B6			A:00 X:21 Y:00 P:76 SP:FB CYC:7680
C9B3 4C BA C9 JMP $C9BA			A:00 X:21 Y:00 P:76 SP:FB CYC:7681
C9BA EA       NOP 			A:00 X:21 Y:00 P:76 SP:FB CYC:7684
C9BB 24 01    BIT $01			A:00 X:21 Y:00 P:76 SP:FB CYC:7686
C9BD A9 40    LDA #$40			A:00 X:21 Y:00 P:F6 SP:FB CYC:7689
C9BF C9 40    CMP #$40			A:40 X:21 Y:00 P:74 SP:FB CYC:7691
C9C1 30 09    BMI $C9CC			A:40 X:21 Y:00 P:F4 SP:FB CYC:7693
C9CC A2 24    LDX #$24			A:40 X:21 Y:00 P:F4 SP:FB CYC:7696
C9CE 86 00    STX $00			A:40 X:24 Y:00 P:74 SP:FB CYC:7698
C9D0 EA       NOP 			A:40 X:24 Y:00 P:74 SP:FB CYC:7701
C9D1 B8       CLV 			A:40 X:24 Y:00 P:74 SP:FB CYC:7703
C9D2 C9 3F    CMP #$3F			A:40 X:24 Y:00 P:34 SP:FB CYC:7705
C9D4 F0 09    BEQ $C9DF			A:40 X:24 Y:00 P:37 SP:FB CYC:7707
C9DF A2 25    LDX #$25			A:40 X:24 Y:00 P:37 SP:FB CYC:7710
C9E1 86 00    STX $00			A:40 X:25 Y:00 P:35 SP:FB CYC:7712
C9E3 EA       NOP 			A:40 X:25 Y:00 P:35 SP:FB CYC:7715
C9E4 C9 41    CMP #$41			A:40 X:25 Y:00 P:35 SP:FB CYC:7717
C9E6 F0 07    BEQ $C9EF			A:40 X:25 Y:00 P:B4 SP:FB CYC:7719
C9E8 10 05    BPL $C9EF			A:40 X:25 Y:00 P:B4 SP:FB CYC:7722
C9EA 10 03    BPL $C9EF			A:40 X:25 Y:00 P:B4 SP:FB CYC:7723
C9EC 4C F3 C9 JMP $C9F3			A:40 X:25 Y:00 P:B4 SP:FB CYC:7725
C9F3 EA       NOP 			A:40 X:25 Y:00 P:B4 SP:FB CYC:7728
C9F4 A9 80    LDA #$80			A:40 X:25 Y:00 P:B4 SP:FB CYC:7730
C9F6 C9 00    CMP #$00			A:80 X:25 Y:00 P:B4 SP:FB CYC:7732
C9F8 F0 07    BEQ $CA01			A:80 X:25 Y:00 P:35 SP:FB CYC:7734
C9FA 10 05    BPL $CA01			A:80 X:25 Y:00 P:35 SP:FB CYC:7736
C903 A9 70    LDA #$70			A:80 X:25 Y:00 P:35 SP:FB CYC:7739
C905 49 70    EOR #$70			A:70 X:25 Y:00 P:35 SP:FB CYC:7741
C907 D0 09    BNE $C912			A:00 X:25 Y:00 P:37 SP:FB CYC:7743
C909 70 07    BVS $C912			A:00 X:25 Y:00 P:37 SP:FB CYC:7746
C90B 90 05    BCC $C912			A:00 X:25 Y:00 P:37 SP:FB CYC:7747
C90D 30 03    BMI $C912			A:00 X:25 Y:00 P:37 SP:FB CYC:7750
C90F 4C 16 C9 JMP $C916			A:00 X:25 Y:00 P:37 SP:FB CYC:7751
C916 EA       NOP 			A:00 X:25 Y:00 P:37 SP:FB CYC:7754
C917 18       CLC 			A:00 X:25 Y:00 P:37 SP:FB CYC:7756
C918 24 01    BIT $01			A:00 X:25 Y:00 P:36 SP:FB CYC:7758
C91A A9 00    LDA #$00			A:00 X:25 Y:00 P:F6 SP:FB CYC:7761
C91C 69 69    ADC #$69			A:00 X:25 Y:00 P:76 SP:FB CYC:7763
C91E 30 0B    BMI $C92B			A:69 X:25 Y:00 P:34 SP:FB CYC:7765
C920 B0 09    BCS $C92B			A:69 X:25 Y:00 P:34 SP:FB CYC:7768
C922 C9 69    CMP #$69			A:69 X:25 Y:00 P:34 SP:FB CYC:7769
C924 D0 05    BNE $C92B			A:69 X:25 Y:00 P:B4 SP:FB CYC:7771
C92B A2 1E    LDX #$1E			A:69 X:25 Y:00 P:B4 SP:FB CYC:7774
C92D 86 00    STX $00			A:69 X:1E Y:00 P:34 SP:FB CYC:7776
C92F EA       NOP 			A:69 X:1E Y:00 P:34 SP:FB CYC:7779
C930 38       SEC 			A:69 X:1E Y:00 P:34 SP:FB CYC:7781
C931 F8       SED 			A:69 X:1E Y:00 P:35 SP:FB CYC:7783
C932 24 01    BIT $01			A:69 X:1E Y:00 P:3D SP:FB CYC:7785
C934 A9 01    LDA #$01			A:69 X:1E Y:00 P:FD SP:FB CYC:7788
C936 69 69    ADC #$69			A:01 X:1E Y:00 P:7D SP:FB CYC:7790
C938 30 0B    BMI $C945			A:6B X:1E Y:00 P:3C SP:FB CYC:7792
C93A B0 09    BCS $C945			A:6B X:1E Y:00 P:3C SP:FB CYC:7795
C93C C9 6B    CMP #$6B			A:6B X:1E Y:00 P:3C SP:FB CYC:7796
C93E D0 05    BNE $C945			A:6B X:1E Y:00 P:BC SP:FB CYC:7798
C945 A2 1F    LDX #$1F			A:6B X:1E Y:00 P:BC SP:FB CYC:7801
C947 86 00    STX $00			A:6B X:1F Y:00 P:3C SP:FB CYC:7803
C949 EA       NOP 			A:6B X:1F Y:00 P:3C SP:FB CYC:7806
C94A D8       CLD 			A:6B X:1F Y:00 P:3C SP:FB CYC:7808
C94B 38       SEC 			A:6B X:1F Y:00 P:34 SP:FB CYC:7810
C94C B8       CLV 			A:6B X:1F Y:00 P:35 SP:FB CYC:7812
C94D A9 7F    LDA #$7F			A:6B X:1F Y:00 P:35 SP:FB CYC:7814
C94F 69 7F    ADC #$7F			A:7F X:1F Y:00 P:35 SP:FB CYC:7816
C951 10 0B    BPL $C95E			A:FF X:1F Y:00 P:F4 SP:FB CYC:7818
C953 B0 09    BCS $C95E			A:FF X:1F Y:00 P:F4 SP:FB CYC:7821
C955 C9 FF    CMP #$FF			A:FF X:1F Y:00 P:F4 SP:FB CYC:7822
C957 D0 05    BNE $C95E			A:FF X:1F Y:00 P:F4 SP:FB CYC:7824
C95E A2 20    LDX #$20			A:FF X:1F Y:00 P:F4 SP:FB CYC:7827
C960 86 00    STX $00			A:FF X:20 Y:00 P:74 SP:FB CYC:7829
C962 EA       NOP 			A:FF X:20 Y:00 P:74 SP:FB CYC:7832
C963 18       CLC 			A:FF X:20 Y:00 P:74 SP:FB CYC:7834
C964 24 01    BIT $01			A:FF X:20 Y:00 P:74 SP:FB CYC:7836
C966 A9 7F    LDA #$7F			A:FF X:20 Y:00 P:F4 SP:FB CYC:7839
C968 69 80    ADC #$80			A:7F X:20 Y:00 P:74 SP:FB CYC:7841
C96A 10 0B    BPL $C977			A:FF X:20 Y:00 P:B4 SP:FB CYC:7843
C96C B0 09    BCS $C977			A:FF X:20 Y:00 P:B4 SP:FB CYC:7846
C96E C9 FF    CMP #$FF			A:FF X:20 Y:00 P:B4 SP:FB CYC:7847
C970 D0 05    BNE $C977			A:FF X:20 Y:00 P:B4 SP:FB CYC:7849
C977 A2 21    LDX #$21			A:FF X:20 Y:00 P:B4 SP:FB CYC:7852
C979 86 00    STX $00			A:FF X:21 Y:00 P:34 SP:FB CYC:7854
C97B EA       NOP 			A:FF X:21 Y:00 P:34 SP:FB CYC:7857
C97C 38       SEC 			A:FF X:21 Y:00 P:34 SP:FB CYC:7859
C97D B8       CLV 			A:FF X:21 Y:00 P:35 SP:FB CYC:7861
C97E A9 7F    LDA #$7F			A:FF X:21 Y:00 P:35 SP:FB CYC:7863
C980 69 80    ADC #$80			A:7F X:21 Y:00 P:35 SP:FB CYC:7865
C982 D0 09    BNE $C98D			A:00 X:21 Y:00 P:37 SP:FB CYC:7867
C984 30 07    BMI $C98D			A:00 X:21 Y:00 P:37 SP:FB CYC:7870
C986 70 05    BVS $C98D			A:00 X:21 Y:00 P:37 SP:FB CYC:7871
C988 90 03    BCC $C98D			A:00 X:21 Y:00 P:37 SP:FB CYC:7874
C98A 4C 91 C9 JMP $C991			A:00 X:21 Y:00 P:37 SP:FB CYC:7875
C991 EA       NOP 			A:00 X:21 Y:00 P:37 SP:FB CYC:7878
C992 38       SEC 			A:00 X:21 Y:00 P:37 SP:FB CYC:7880
C993 B8       CLV 			A:00 X:21 Y:00 P:37 SP:FB CYC:7882
C994 A9 9F    LDA #$9F			A:00 X:21 Y:00 P:37 SP:FB CYC:7884
C996 F0 09    BEQ $C9A1			A:9F X:21 Y:00 P:B5 SP:FB CYC:7886
C998 10 07    BPL $C9A1			A:9F X:21 Y:00 P:B5 SP:FB CYC:7889
C99A 70 05    BVS $C9A1			A:9F X:21 Y:00 P:B5 SP:FB CYC:7890
C99C 90 03    BCC $C9A1			A:9F X:21 Y:00 P:B5 SP:FB CYC:7893
C99E 4C A5 C9 JMP $C9A5			A:9F X:21 Y:00 P:B5 SP:FB CYC:7894
C9A5 EA       NOP 			A:9F X:21 Y:00 P:B5 SP:FB CYC:7897
C9A6 18       CLC 			A:9F X:21 Y:00 P:B5 SP:FB CYC:7899
C9A7 24 01    BIT $01			A:9F X:21 Y:00 P:B4 SP:FB CYC:7901
C9A9 A9 00    LDA #$00			A:9F X:21 Y:00 P:F4 SP:FB CYC:7904
C9AB D0 09    BNE $C9B6			A:00 X:21 Y:00 P:76 SP:FB CYC:7906
C9AD 30 07    BMI $C9B6			A:00 X:21 Y:00 P:76 SP:FB CYC:7909
C9AF 50 05    BVC $C9B6			A:00 X:21 Y:00 P:76 SP:FB CYC:7910
C9B1 B0 03    BCS $C9B6			A:00 X:21 Y:00 P:76 SP:FB CYC:7913
C9B3 4C BA C9 JMP $C9BA			A:00 X:21 Y:00 P:76 SP:FB CYC:7914
C9BA EA       NOP 			A:00 X:21 Y:00 P:76 SP:FB CYC:7917
C9BB 24 01    BIT $01			A:00 X:21 Y:00 P:76 SP:FB CYC:7919
C9BD A9 40    LDA #$40			A:00 X:21 Y:00 P:F6 SP:FB CYC:7922
C9BF C9 40    CMP #$40			A:40 X:21 Y:00 P:74 SP:FB CYC:7924
C9C1 30 09    BMI $C9CC			A:40 X:21 Y:00 P:F4 SP:FB CYC:7926
C9CC A2 24    LDX #$24			A:40 X:21 Y:00 P:F4 SP:FB CYC:7929
C9CE 86 00    STX $00			A:40 X:24 Y:00 P:74 SP:FB CYC:7931
C9D0 EA       NOP 			A:40 X:24 Y:00 P:74 SP:FB CYC:7934
C9D1 B8       CLV 			A:40 X:24 Y:00 P:74 SP:FB CYC:7936
C9D2 C9 3F    CMP #$3F			A:40 X:24 Y:00 P:34 SP:FB CYC:7938
C9D4 F0 09    BEQ $C9DF			A:40 X:24 Y:00 P:37 SP:FB CYC:7940
C9DF A2 25    LDX #$25			A:40 X:24 Y:00 P:37 SP:FB CYC:7943
C9E1 86 00    STX $00			A:40 X:25 Y:00 P:35 SP:FB CYC:7945
C9E3 EA       NOP 			A:40 X:25 Y:00 P:35 SP:FB CYC:7948
C9E4 C9 41    CMP #$41			A:40 X:25 Y:00 P:35 SP:FB CYC:7950
C9E6 F0 07    BEQ $C9EF			A:40 X:25 Y:00 P:B4 SP:FB CYC:7952
C9E8 10 05    BPL $C9EF			A:40 X:25 Y:00 P:B4 SP:FB CYC:7955
C9EA 10 03    BPL $C9EF			A:40 X:25 Y:00 P:B4 SP:FB CYC:7956
C9EC 4C F3 C9 JMP $C9F3			A:40 X:25 Y:00 P:B4 SP:FB CYC:7958
C9F3 EA       NOP 			A:40 X:25 Y:00 P:B4 SP:FB CYC:7961
C9F4 A9 80    LDA #$80			A:40 X:25 Y:00 P:B4 SP:FB CYC:7963
C9F6 C9 00    CMP #$00			A:80 X:25 Y:00 P:B4 SP:FB CYC:7965
C9F8 F0 07    BEQ $CA01			A:80 X:25 Y:00 P:35 SP:FB CYC:7967
C9FA 10 05    BPL $CA01			A:80 X:25 Y:00 P:35 SP:FB CYC:7969
C903 A9 70    LDA #$70			A:80 X:25 Y:00 P:35 SP:FB CYC:7972
C905 49 70    EOR #$70			A:70 X:25 Y:00 P:35 SP:FB CYC:7974
C907 D0 09    BNE $C912			A:00 X:25 Y:00 P:37 SP:FB CYC:7976
C909 70 07    BVS $C912			A:00 X:25 Y:00 P:37 SP:FB CYC:7979
C90B 90 05    BCC $C912			A:00 X:25 Y:00 P:37 SP:FB CYC:7980
C90D 30 03    BMI $C912			A:00 X:25 Y:00 P:37 SP:FB CYC:7983
C90F 4C 16 C9 JMP $C916			A:00 X:25 Y:00 P:37 SP:FB CYC:7984
C916 EA       NOP 			A:00 X:25 Y:00 P:37 SP:FB CYC:7987
C917 18       CLC 			A:00 X:25 Y:00 P:37 SP:FB CYC:7989
C918 24 01    BIT $01			A:00 X:25 Y:00 P:36 SP:FB CYC:7991
C91A A9 00    LDA #$00			A:00 X:25 Y:00 P:F6 SP:FB CYC:7994
C91C 69 69    ADC #$69			A:00 X:25 Y:00 P:76 SP:FB CYC:7996
C91E 30 0B    BMI $C92B			A:69 X:25 Y:00 P:34 SP:FB CYC:7998
C920 B0 09    BCS $C92B			A:69 X:25 Y:00 P:34 SP:FB CYC:8001
C922 C9 69    CMP #$69			A:69 X:25 Y:00 P:34 SP:FB CYC:8002
C924 D0 05    BNE $C92B			A:69 X:25 Y:00 P:B4 SP:FB CYC:8004
C92B A2 1E    LDX #$1E			A:69 X:25 Y:00 P:B4 SP:FB CYC:8007
C92D 86 00    STX $00			A:69 X:1E Y:00 P:34 SP:FB CYC:8009
C92F EA       NOP 			A:69 X:1E Y:00 P:34 SP:FB CYC:8012
C930 38       SEC 			A:69 X:1E Y:00 P:34 SP:FB CYC:8014
C931 F8       SED 			A:69 X:1E Y:00 P:35 SP:FB CYC:8016
C932 24 01    BIT $01			A:69 X:1E Y:00 P:3D SP:FB CYC:8018
C934 A9 01    LDA #$01			A:69 X:1E Y:00 P:FD SP:FB CYC:8021
C936 69 69    ADC #$69			A:01 X:1E Y:00 P:7D SP:FB CYC:8023
C938 30 0B    BMI $C945			A:6B X:1E Y:00 P:3C SP:FB CYC:8025
C93A B0 09    BCS $C945			A:6B X:1E Y:00 P:3C SP:FB CYC:8028
C93C C9 6B    CMP #$6B			A:6B X:1E Y:00 P:3C SP:FB CYC:8029
C93E D0 05    BNE $C945			A:6B X:1E Y:00 P:BC SP:FB CYC:8031
C945 A2 1F    LDX #$1F			A:6B X:1E Y:00 P:BC SP:FB CYC:8034
C947 86 00    STX $00			A:6B X:1F Y:00 P:3C SP:FB CYC:8036
C949 EA       NOP 			A:6B X:1F Y:00 P:3C SP:FB CYC:8039
C94A D8       CLD 			A:6B X:1F Y:00 P:3C SP:FB CYC:8041
C94B 38       SEC 			A:6B X:1F Y:00 P:34 SP:FB CYC:8043
C94C B8       CLV 			A:6B X:1F Y:00 P:35 SP:FB CYC:8045
C94D A9 7F    LDA #$7F			A:6B X:1F Y:00 P:35 SP:FB CYC:8047
C94F 69 7F    ADC #$7F			A:7F X:1F Y:00 P:35 SP:FB CYC:8049
C951 10 0B    BPL $C95E			A:FF X:1F Y:00 P:F4 SP:FB CYC:8051
C953 B0 09    BCS $C95E			A:FF X:1F Y:00 P:F4 SP:FB CYC:8054
C955 C9 FF    CMP #$FF			A:FF X:1F Y:00 P:F4 SP:FB CYC:8055
C957 D0 05    BNE $C95E			A:FF X:1F Y:00 P:F4 SP:FB CYC:8057
C95E A2 20    LDX #$20			A:FF X:1F Y:00 P:F4 SP:FB CYC:8060
C960 86 00    STX $00			A:FF X:20 Y:00 P:74 SP:FB CYC:8062
C962 EA       NOP 			A:FF X:20 Y:00 P:74 SP:FB CYC:8065
C963 18       CLC 			A:FF X:20 Y:00 P:74 SP:FB CYC:8067
C964 24 01    BIT $01			A:FF X:20 Y:00 P:74 SP:FB CYC:8069
C966 A9 7F    LDA #$7F			A:FF X:20 Y:00 P:F4 SP:FB CYC:8072
C968 69 80    ADC #$80			A:7F X:20 Y:00 P:74 SP:FB CYC:8074
C96A 10 0B    BPL $C977			A:FF X:20 Y:00 P:B4 SP:FB CYC:8076
C96C B0 09    BCS $C977			A:FF X:20 Y:00 P:B4 SP:FB CYC:8079
C96E C9 FF    CMP #$FF			A:FF X:20 Y:00 P:B4 SP:FB CYC:8080
C970 D0 05    BNE $C977			A:FF X:20 Y:00 P:B4 SP:FB CYC:8082
C977 A2 21    LDX #$21			A:FF X:20 Y:00 P:B4 SP:FB CYC:8085
C979 86 00    STX $00			A:FF X:21 Y:00 P:34 SP:FB CYC:8087
C97B EA       NOP 			A:FF X:21 Y:00 P:34 SP:FB CYC:8090
C97C 38       SEC 			A:FF X:21 Y:00 P:34 SP:FB CYC:8092
C97D B8       CLV 			A:FF X:21 Y:00 P:35 SP:FB CYC:8094
C97E A9 7F    LDA #$7F			A:FF X:21 Y:00 P:35 SP:FB CYC:8096
C980 69 80    ADC #$80			A:7F X:21 Y:00 P:35 SP:FB CYC:8098
C982 D0 09    BNE $C98D			A:00 X:21 Y:00 P:37 SP:FB CYC:8100
C984 30 07    BMI $C98D			A:00 X:21 Y:00 P:37 SP:FB CYC:8103
C986 70 05    BVS $C98D			A:00 X:21 Y:00 P:37 SP:FB CYC:8104
C988 90 03    BCC $C98D			A:00 X:21 Y:00 P:37 SP:FB CYC:8107
C98A 4C 91 C9 JMP $C991			A:00 X:21 Y:00 P:37 SP:FB CYC:8108
C991 EA       NOP 			A:00 X:21 Y:00 P:37 SP:FB CYC:8111
C992 38       SEC 			A:00 X:21 Y:00 P:37 SP:FB CYC:8113
C993 B8       CLV 			A:00 X:21 Y:00 P:37 SP:FB CYC:8115
C994 A9 9F    LDA #$9F			A:00 X:21 Y:00 P:37 SP:FB CYC:8117
C996 F0 09    BEQ $C9A1			A:9F X:21 Y:00 P:B5 SP:FB CYC:8119
C998 10 07    BPL $C9A1			A:9F X:21 Y:00 P:B5 SP:FB CYC:8122
C99A 70 05    BVS $C9A1			A:9F X:21 Y:00 P:B5 SP:FB CYC:8123
C99C 90 03    BCC $C9A1			A:9F X:21 Y:00 P:B5 SP:FB CYC:8126
C99E 4C A5 C9 JMP $C9A5			A:9F X:21 Y:00 P:B5 SP:FB CYC:8127
C9A5 EA       NOP 			A:9F X:21 Y:00 P:B5 SP:FB CYC:8130
C9A6 18       CLC 			A:9F X:21 Y:00 P:B5 SP:FB CYC:8132
C9A7 24 01    BIT $01			A:9F X:21 Y:00 P:B4 SP:FB CYC:8134
C9A9 A9 00    LDA #$00			A:9F X:21 Y:00 P:F4 SP:FB CYC:8137
C9AB D0 09    BNE $C9B6			A:00 X:21 Y:00 P:76 SP:FB CYC:8139
C9AD 30 07    BMI $C9B6			A:00 X:21 Y:00 P:76 SP:FB CYC:8142
C9AF 50 05    BVC $C9B6			A:00 X:21 Y:00 P:76 SP:FB CYC:8143
C9B1 B0 03    BCS $C9B6			A:00 X:21 Y:00 P:76 SP:FB CYC:8146
C9B3 4C BA C9 JMP $C9BA			A:00 X:21 Y:00 P:76 SP:FB CYC:8147
C9BA EA       NOP 			A:00 X:21 Y:00 P:76 SP:FB CYC:8150
C9BB 24 01    BIT $01			A:00 X:21 Y:00 P:76 SP:FB CYC:8152
C9BD A9 40    LDA #$40			A:00 X:21 Y:00 P:F6 SP:FB CYC:8155
C9BF C9 40    CMP #$40			A:40 X:21 Y:00 P:74 SP:FB CYC:8157
C9C1 30 09    BMI $C9CC			A:40 X:21 Y:00 P:F4 SP:FB CYC:8159
C9CC A2 24    LDX #$24			A:40 X:21 Y:00 P:F4 SP:FB CYC:8162
C9CE 86 00    STX $00			A:40 X:24 Y:00 P:74 SP:FB CYC:8164
C9D0 EA       NOP 			A:40 X:24 Y:00 P:74 SP:FB CYC:8167
C9D1 B8       CLV 			A:40 X:24 Y:00 P:74 SP:FB CYC:8169
C9D2 C9 3F    CMP #$3F			A:40 X:24 Y:00 P:34 SP:FB CYC:8171
C9D4 F0 09    BEQ $C9DF			A:40 X:24 Y:00 P:37 SP:FB CYC:8173
C9DF A2 25    LDX #$25			A:40 X:24 Y:00 P:37 SP:FB CYC:8176
C9E1 86 00    STX $00			A:40 X:25 Y:00 P:35 SP:FB CYC:8178
C9E3 EA       NOP 			A:40 X:25 Y:00 P:35 SP:FB CYC:8181
C9E4 C9 41    CMP #$41			A:40 X:25 Y:00 P:35 SP:FB CYC:8183
C9E6 F0 07    BEQ $C9EF			A:40 X:25 Y:00 P:B4 SP:FB CYC:8185
C9E8 10 05    BPL $C9EF			A:40 X:25 Y:00 P:B4 SP:FB CYC:8188
C9EA 10 03    BPL $C9EF			A:40 X:25 Y:00 P:B4 SP:FB CYC:8189
C9EC 4C F3 C9 JMP $C9F3			A:40 X:25 Y:00 P:B4 SP:FB CYC:8191
C9F3 EA       NOP 			A:40 X:25 Y:00 P:B4 SP:FB CYC:8194
C9F4 A9 80    LDA #$80			A:40 X:25 Y:00 P:B4 SP:FB CYC:8196
C9F6 C9 00    CMP #$00			A:80 X:25 Y:00 P:B4 SP:FB CYC:8198
C9F8 F0 07    BEQ $CA01			A:80 X:25 Y:00 P:35 SP:FB CYC:8200
C9FA 10 05    BPL $CA01			A:80 X:25 Y:00 P:35 SP:FB CYC:8202
C903 A9 70    LDA #$70			A:80 X:25 Y:00 P:35 SP:FB CYC:8205
C905 49 70    EOR #$70			A:70 X:25 Y:00 P:35 SP:FB CYC:8207
C907 D0 09    BNE $C912			A:00 X:25 Y:00 P:37 SP:FB CYC:8209
C909 70 07    BVS $C912			A:00 X:25 Y:00 P:37 SP:FB CYC:8212
C90B 90 05    BCC $C912			A:00 X:25 Y:00 P:37 SP:FB CYC:8213
C90D 30 03    BMI $C912			A:00 X:25 Y:00 P:37 SP:FB CYC:8216
C90F 4C 16 C9 JMP $C916			A:00 X:25 Y:00 P:37 SP:FB CYC:8217
C916 EA       NOP 			A:00 X:25 Y:00 P:37 SP:FB CYC:8220
C917 18       CLC 			A:00 X:25 Y:00 P:37 SP:FB CYC:8222
C918 24 01    BIT $01			A:00 X:25 Y:00 P:36 SP:FB CYC:8224
C91A A9 00    LDA #$00			A:00 X:25 Y:00 P:F6 SP:FB CYC:8227
C91C 69 69    ADC #$69			A:00 X:25 Y:00 P:76 SP:FB CYC:8229
C91E 30 0B    BMI $C92B			A:69 X:25 Y:00 P:34 SP:FB CYC:8231
C920 B0 09    BCS $C92B			A:69 X:25 Y:00 P:34 SP:FB CYC:8234
C922 C9 69    CMP #$69			A:69 X:25 Y:00 P:34 SP:FB CYC:8235
C924 D0 05    BNE $C92B			A:69 X:25 Y:00 P:B4 SP:FB CYC:8237
C92B A2 1E    LDX #$1E			A:69 X:25 Y:00 P:B4 SP:FB CYC:8240
C92D 86 00    STX $00			A:69 X:1E Y:00 P:34 SP:FB CYC:8242
C92F EA       NOP 			A:69 X:1E Y:00 P:34 SP:FB CYC:8245
C930 38       SEC 			A:69 X:1E Y:00 P:34 SP:FB CYC:8247
C931 F8       SED 			A:69 X:1E Y:00 P:35 SP:FB CYC:8249
C932 24 01    BIT $01			A:69 X:1E Y:00 P:3D SP:FB CYC:8251
C934 A9 01    LDA #$01			A:69 X:1E Y:00 P:FD SP:FB CYC:8254
C936 69 69    ADC #$69			A:01 X:1E Y:00 P:7D SP:FB CYC:8256
C938 30 0B    BMI $C945			A:6B X:1E Y:00 P:3C SP:FB CYC:8258
C93A B0 09    BCS $C945			A:6B X:1E Y:00 P:3C SP:FB CYC:8261
C93C C9 6B    CMP #$6B			A:6B X:1E Y:00 P:3C SP:FB CYC:8262
C93E D0 05    BNE $C945			A:6B X:1E Y:00 P:BC SP:FB CYC:8264
C945 A2 1F    LDX #$1F			A:6B X:1E Y:00 P:BC SP:FB CYC:8267
C947 86 00    STX $00			A:6B X:1F Y:00 P:3C SP:FB CYC:8269
C949 EA       NOP 			A:6B X:1F Y:00 P:3C SP:FB CYC:8272
C94A D8       CLD 			A:6B X:1F Y:00 P:3C SP:FB CYC:8274
C94B 38       SEC 			A:6B X:1F Y:00 P:34 SP:FB CYC:8276
C94C B8       CLV 			A:6B X:1F Y:00 P:35 SP:FB CYC:8278
C94D A9 7F    LDA #$7F			A:6B X:1F Y:00 P:35 SP:FB CYC:8280
C94F 69 7F    ADC #$7F			A:7F X:1F Y:00 P:35 SP:FB CYC:8282
C951 10 0B    BPL $C95E			A:FF X:1F Y:00 P:F4 SP:FB CYC:8284
C953 B0 09    BCS $C95E			A:FF X:1F Y:00 P:F4 SP:FB CYC:8287
C955 C9 FF    CMP #$FF			A:FF X:1F Y:00 P:F4 SP:FB CYC:8288
C957 D0 05    BNE $C95E			A:FF X:1F Y:00 P:F4 SP:FB CYC:8290
C95E A2 20    LDX #$20			A:FF X:1F Y:00 P:F4 SP:FB CYC:8293
C960 86 00    STX $00			A:FF X:20 Y:00 P:74 SP:FB CYC:8295
C962 EA       NOP 			A:FF X:20 Y:00 P:74 SP:FB CYC:8298
C963 18       CLC 			A:FF X:20 Y:00 P:74 SP:FB CYC:8300
C964 24 01    BIT $01			A:FF X:20 Y:00 P:74 SP:FB CYC:8302
C966 A9 7F    LDA #$7F			A:FF X:20 Y:00 P:F4 SP:FB CYC:8305
C968 69 80    ADC #$80			A:7F X:20 Y:00 P:74 SP:FB CYC:8307
C96A 10 0B    BPL $C977			A:FF X:20 Y:00 P:B4 SP:FB CYC:8309
C96C B0 09    BCS $C977			A:FF X:20 Y:00 P:B4 SP:FB CYC:8312
C96E C9 FF    CMP #$FF			A:FF X:20 Y:00 P:B4 SP:FB CYC:8313
C970 D0 05    BNE $C977			A:FF X:20 Y:00 P:B4 SP:FB CYC:8315
C977 A2 21    LDX #$21			A:FF X:20 Y:00 P:B4 SP:FB CYC:8318
C979 86 00    STX $00			A:FF X:21 Y:00 P:34 SP:FB CYC:8320
C97B EA       NOP 			A:FF X:21 Y:00 P:34 SP:FB CYC:8323
C97C 38       SEC 			A:FF X:21 Y:00 P:34 SP:FB CYC:8325
C97D B8       CLV 			A:FF X:21 Y:00 P:35 SP:FB CYC:8327
C97E A9 7F    LDA #$7F			A:FF X:21 Y:00 P:35 SP:FB CYC:8329
C980 69 80    ADC #$80			A:7F X:21 Y:00 P:35 SP:FB CYC:8331
C982 D0 09    BNE $C98D			A:00 X:21 Y:00 P:37 SP:FB CYC:8333
C984 30 07    BMI $C98D			A:00 X:21 Y:00 P:37 SP:FB CYC:8336
C986 70 05    BVS $C98D			A:00 X:21 Y:00 P:37 SP:FB CYC:8337
C988 90 03    BCC $C98D			A:00 X:21 Y:00 P:37 SP:FB CYC:8340
C98A 4C 91 C9 JMP $C991			A:00 X:21 Y:00 P:37 SP:FB CYC:8341
C991 EA       NOP 			A:00 X:21 Y:00 P:37 SP:FB CYC:8344
C992 38       SEC 			A:00 X:21 Y:00 P:37 SP:FB CYC:8346
C993 B8       CLV 			A:00 X:21 Y:00 P:37 SP:FB CYC:8348
C994 A9 9F    LDA #$9F			A:00 X:21 Y:00 P:37 SP:FB CYC:8350
C996 F0 09    BEQ $C9A1			A:9F X:21 Y:00 P:B5 SP:FB CYC:8352
C998 10 07    BPL $C9A1			A:9F X:21 Y:00 P:B5 SP:FB CYC:8355
C99A 70 05    BVS $C9A1			A:9F X:21 Y:00 P:B5 SP:FB CYC:8356
C99C 90 03    BCC $C9A1			A:9F X:21 Y:00 P:B5 SP:FB CYC:8359
C99E 4C A5 C9 JMP $C9A5			A:9F X:21 Y:00 P:B5 SP:FB CYC:8360
C9A5 EA       NOP 			A:9F X:21 Y:00 P:B5 SP:FB CYC:8363
C9A6 18       CLC 			A:9F X:21 Y:00 P:B5 SP:FB CYC:8365
C9A7 24 01    BIT $01			A:9F X:21 Y:00 P:B4 SP:FB CYC:8367
C9A9 A9 00    LDA #$00			A:9F X:21 Y:00 P:F4 SP:FB CYC:8370
C9AB D0 09    BNE $C9B6			A:00 X:21 Y:00 P:76 SP:FB CYC:8372
C9AD 30 07    BMI $C9B6			A:00 X:21 Y:00 P:76 SP:FB CYC:8375
C9AF 50 05    BVC $C9B6			A:00 X:21 Y:00 P:76 SP:FB CYC:8376
C9B1 B0 03    BCS $C9B6			A:00 X:21 Y:00 P:76 SP:FB CYC:8379
C9B3 4C BA C9 JMP $C9BA			A:00 X:21 Y:00 P:76 SP:FB CYC:8380
C9BA EA       NOP 			A:00 X:21 Y:00 P:76 SP:FB CYC:8383
C9BB 24 01    BIT $01			A:00 X:21 Y:00 P:76 SP:FB CYC:8385
C9BD A9 40    LDA #$40			A:00 X:21 Y:00 P:F6 SP:FB CYC:8388
C9BF C9 40    CMP #$40			A:40 X:21 Y:00 P:74 SP:FB CYC:8390
C9C1 30 09    BMI $C9CC			A:40 X:21 Y:00 P:F4 SP:FB CYC:8392
C9CC A2 24    LDX #$24			A:40 X:21 Y:00 P:F4 SP:FB CYC:8395
C9CE 86 00    STX $00			A:40 X:24 Y:00 P:74 SP:FB CYC:8397
C9D0 EA       NOP 			A:40 X:24 Y:00 P:74 SP:FB CYC:8400
C9D1 B8       CLV 			A:40 X:24 Y:00 P:74 SP:FB CYC:8402
C9D2 C9 3F    CMP #$3F			A:40 X:24 Y:00 P:34 SP:FB CYC:8404
C9D4 F0 09    BEQ $C9DF			A:40 X:24 Y:00 P:37 SP:FB CYC:8406
C9DF A2 25    LDX #$25			A:40 X:24 Y:00 P:37 SP:FB CYC:8409
C9E1 86 00    STX $00			A:40 X:25 Y:00 P:35 SP:FB CYC:8411
C9E3 EA       NOP 			A:40 X:25 Y:00 P:35 SP:FB CYC:8414
C9E4 C9 41    CMP #$41			A:40 X:25 Y:00 P:35 SP:FB CYC:8416
C9E6 F0 07    BEQ $C9EF			A:40 X:25 Y:00 P:B4 SP:FB CYC:8418
C9E8 10 05    BPL $C9EF			A:40 X:25 Y:00 P:B4 SP:FB CYC:8421
C9EA 10 03    BPL $C9EF			A:40 X:25 Y:00 P:B4 SP:FB CYC:8422
C9EC 4C F3 C9 JMP $C9F3			A:40 X:25 Y:00 P:B4 SP:FB CYC:8424
C9F3 EA       NOP 			A:40 X:25 Y:00 P:B4 SP:FB CYC:8427
C9F4 A9 80    LDA #$80			A:40 X:25 Y:00 P:B4 SP:FB CYC:8429
C9F6 C9 00    CMP #$00			A:80 X:25 Y:00 P:B4 SP:FB CYC:8431
C9F8 F0 07    BEQ $CA01			A:80 X:25 Y:00 P:35 SP:FB CYC:8433
C9FA 10 05    BPL $CA01			A:80 X:25 Y:00 P:35 SP:FB CYC:8435
C903 A9 70    LDA #$70			A:80 X:25 Y:00 P:35 SP:FB CYC:8438
C905 49 70    EOR #$70			A:70 X:25 Y:00 P:35 SP:FB CYC:8440
C907 D0 09    BNE $C912			A:00 X:25 Y:00 P:37 SP:FB CYC:8442
C909 70 07    BVS $C912			A:00 X:25 Y:00 P:37 SP:FB CYC:8445
C90B 90 05    BCC $C912			A:00 X:25 Y:00 P:37 SP:FB CYC:8446
C90D 30 03    BMI $C912			A:00 X:25 Y:00 P:37 SP:FB CYC:8449
C90F 4C 16 C9 JMP $C916			A:00 X:25 Y:00 P:37 SP:FB CYC:8450
C916 EA       NOP 			A:00 X:25 Y:00 P:37 SP:FB CYC:8453
C917 18       CLC 			A:00 X:25 Y:00 P:37 SP:FB CYC:8455
C918 24 01    BIT $01			A:00 X:25 Y:00 P:36 SP:FB CYC:8457
C91A A9 00    LDA #$00			A:00 X:25 Y:00 P:F6 SP:FB CYC:8460
C91C 69 69    ADC #$69			A:00 X:25 Y:00 P:76 SP:FB CYC:8462
C91E 30 0B    BMI $C92B			A:69 X:25 Y:00 P:34 SP:FB CYC:8464
C920 B0 09    BCS $C92B			A:69 X:25 Y:00 P:34 SP:FB CYC:8467
C922 C9 69    CMP #$69			A:69 X:25 Y:00 P:34 SP:FB CYC:8468
C924 D0 05    BNE $C92B			A:69 X:25 Y:00 P:B4 SP:FB CYC:8470
C92B A2 1E    LDX #$1E			A:69 X:25 Y:00 P:B4 SP:FB CYC:8473
C92D 86 00    STX $00			A:69 X:1E Y:00 P:34 SP:FB CYC:8475
C92F EA       NOP 			A:69 X:1E Y:00 P:34 SP:FB CYC:8478
C930 38       SEC 			A:69 X:1E Y:00 P:34 SP:FB CYC:8480
C931 F8       SED 			A:69 X:1E Y:00 P:35 SP:FB CYC:8482
C932 24 01    BIT $01			A:69 X:1E Y:00 P:3D SP:FB CYC:8484
C934 A9 01    LDA #$01			A:69 X:1E Y:00 P:FD SP:FB CYC:8487
C936 69 69    ADC #$69			A:01 X:1E Y:00 P:7D SP:FB CYC:8489
C938 30 0B    BMI $C945			A:6B X:1E Y:00 P:3C SP:FB CYC:8491
C93A B0 09    BCS $C945			A:6B X:1E Y:00 P:3C SP:FB CYC:8494
C93C C9 6B    CMP #$6B			A:6B X:1E Y:00 P:3C SP:FB CYC:8495
C93E D0 05    BNE $C945			A:6B X:1E Y:00 P:BC SP:FB CYC:8497
C945 A2 1F    LDX #$1F			A:6B X:1E Y:00 P:BC SP:FB CYC:8500
C947 86 00    STX $00			A:6B X:1F Y:00 P:3C SP:FB CYC:8502
C949 EA       NOP 			A:6B X:1F Y:00 P:3C SP:FB CYC:8505
C94A D8       CLD 			A:6B X:1F Y:00 P:3C SP:FB CYC:8507
C94B 38       SEC 			A:6B X:1F Y:00 P:34 SP:FB CYC:8509
C94C B8       CLV 			A:6B X:1F Y:00 P:35 SP:FB CYC:8511
C94D A9 7F    LDA #$7F			A:6B X:1F Y:00 P:35 SP:FB CYC:8513
C94F 69 7F    ADC #$7F			A:7F X:1F Y:00 P:35 SP:FB CYC:8515
C951 10 0B    BPL $C95E			A:FF X:1F Y:00 P:F4 SP:FB CYC:8517
C953 B0 09    BCS $C95E			A:FF X:1F Y:00 P:F4 SP:FB CYC:8520
C955 C9 FF    CMP #$FF			A:FF X:1F Y:00 P:F4 SP:FB CYC:8521
C957 D0 05    BNE $C95E			A:FF X:1F Y:00 P:F4 SP:FB CYC:8523
C95E A2 20    LDX #$20			A:FF X:1F Y:00 P:F4 SP:FB CYC:8526
C960 86 00    STX $00			A:FF X:20 Y:00 P:74 SP:FB CYC:8528
C962 EA       NOP 			A:FF X:20 Y:00 P:74 SP:FB CYC:8531
C963 18       CLC 			A:FF X:20 Y:00 P:74 SP:FB CYC:8533
C964 24 01    BIT $01			A:FF X:20 Y:00 P:74 SP:FB CYC:8535
C966 A9 7F    LDA #$7F			A:FF X:20 Y:00 P:F4 SP:FB CYC:8538
C968 69 80    ADC #$80			A:7F X:20 Y:00 P:74 SP:FB CYC:8540
C96A 10 0B    BPL $C977			A:FF X:20 Y:00 P:B4 SP:FB CYC:8542
C96C B0 09    BCS $C977			A:FF X:20 Y:00 P:B4 SP:FB CYC:8545
C96E C9 FF    CMP #$FF			A:FF X:20 Y:00 P:B4 SP:FB CYC:8546
C970 D0 05    BNE $C977			A:FF X:20 Y:00 P:B4 SP:FB CYC:8548
C977 A2 21    LDX #$21			A:FF X:20 Y:00 P:B4 SP:FB CYC:8551
C979 86 00    STX $00			A:FF X:21 Y:00 P:34 SP:FB CYC:8553
C97B EA       NOP 			A:FF X:21 Y:00 P:34 SP:FB CYC:8556
C97C 38       SEC 			A:FF X:21 Y:00 P:34 SP:FB CYC:8558
C97D B8       CLV 			A:FF X:21 Y:00 P:35 SP:FB CYC:8560
C97E A9 7F    LDA #$7F			A:FF X:21 Y:00 P:35 SP:FB CYC:8562
C980 69 80    ADC #$80			A:7F X:21 Y:00 P:35 SP:FB CYC:8564
C982 D0 09    BNE $C98D			A:00 X:21 Y:00 P:37 SP:FB CYC:8566
C984 30 07    BMI $C98D			A:00 X:21 Y:00 P:37 SP:FB CYC:8569
C986 70 05    BVS $C98D			A:00 X:21 Y:00 P:37 SP:FB CYC:8570
C988 90 03    BCC $C98D			A:00 X:21 Y:00 P:37 SP:FB CYC:8573
C98A 4C 91 C9 JMP $C991			A:00 X:21 Y:00 P:37 SP:FB CYC:8574
C991 EA       NOP 			A:00 X:21 Y:00 P:37 SP:FB CYC:8577
C992 38       SEC 			A:00 X:21 Y:00 P:37 SP:FB CYC:8579
C993 B8       CLV 			A:00 X:21 Y:00 P:37 SP:FB CYC:8581
C994 A9 9F    LDA #$9F			A:00 X:21 Y:00 P:37 SP:FB CYC:8583
C996 F0 09    BEQ $C9A1			A:9F X:21 Y:00 P:B5 SP:FB CYC:8585
C998 10 07    BPL $C9A1			A:9F X:21 Y:00 P:B5 SP:FB CYC:8588
C99A 70 05    BVS $C9A1			A:9F X:21 Y:00 P:B5 SP:FB CYC:8589
C99C 90 03    BCC $C9A1			A:9F X:21 Y:00 P:B5 SP:FB CYC:8592
C99E 4C A5 C9 JMP $C9A5			A:9F X:21 Y:00 P:B5 SP:FB CYC:8593
C9A5 EA       NOP 			A:9F X:21 Y:00 P:B5 SP:FB CYC:8596
C9A6 18       CLC 			A:9F X:21 Y:00 P:B5 SP:FB CYC:8598
C9A7 24 01    BIT $01			A:9F X:21 Y:00 P:B4 SP:FB CYC:8600
C9A9 A9 00    LDA #$00			A:9F X:21 Y:00 P:F4 SP:FB CYC:8603
C9AB D0 09    BNE $C9B6			A:00 X:21 Y:00 P:76 SP:FB CYC:8605
C9AD 30 07    BMI $C9B6			A:00 X:21 Y:00 P:76 SP:FB CYC:8608
C9AF 50 05    BVC $C9B6			A:00 X:21 Y:00 P:76 SP:FB CYC:8609
C9B1 B0 03    BCS $C9B6			A:00 X:21 Y:00 P:76 SP:FB CYC:8612
C9B3 4C BA C9 JMP $C9BA			A:00 X:21 Y:00 P:76 SP:FB CYC:8613
C9BA EA       NOP 			A:00 X:21 Y:00 P:76 SP:FB CYC:8616
C9BB 24 01    BIT $01			A:00 X:21 Y:00 P:76 SP:FB CYC:8618
C9BD A9 40    LDA #$40			A:00 X:21 Y:00 P:F6 SP:FB CYC:8621
C9BF C9 40    CMP #$40			A:40 X:21 Y:00 P:74 SP:FB CYC:8623
C9C1 30 09    BMI $C9CC			A:40 X:21 Y:00 P:F4 SP:FB CYC:8625
C9CC A2 24    LDX #$24			A:40 X:21 Y:00 P:F4 SP:FB CYC:8628
C9CE 86 00    STX $00			A:40 X:24 Y:00 P:74 SP:FB CYC:8630
C9D0 EA       NOP 			A:40 X:24 Y:00 P:74 SP:FB CYC:8633
C9D1 B8       CLV 			A:40 X:24 Y:00 P:74 SP:FB CYC:8635
C9D2 C9 3F    CMP #$3F			A:40 X:24 Y:00 P:34 SP:FB CYC:8637
C9D4 F0 09    BEQ $C9DF			A:40 X:24 Y:00 P:37 SP:FB CYC:8639
C9DF A2 25    LDX #$25			A:40 X:24 Y:00 P:37 SP:FB CYC:8642
C9E1 86 00    STX $00			A:40 X:25 Y:00 P:35 SP:FB CYC:8644
C9E3 EA       NOP 			A:40 X:25 Y:00 P:35 SP:FB CYC:8647
C9E4 C9 41    CMP #$41			A:40 X:25 Y:00 P:35 SP:FB CYC:8649
C9E6 F0 07    BEQ $C9EF			A:40 X:25 Y:00 P:B4 SP:FB CYC:8651
C9E8 10 05    BPL $C9EF			A:40 X:25 Y:00 P:B4 SP:FB CYC:8654
C9EA 10 03    BPL $C9EF			A:40 X:25 Y:00 P:B4 SP:FB CYC:8655
C9EC 4C F3 C9 JMP $C9F3			A:40 X:25 Y:00 P:B4 SP:FB CYC:8657
C9F3 EA       NOP 			A:40 X:25 Y:00 P:B4 SP:FB CYC:8660
C9F4 A9 80    LDA #$80			A:40 X:25 Y:00 P:B4 SP:FB CYC:8662
C9F6 C9 00    CMP #$00			A:80 X:25 Y:00 P:B4 SP:FB CYC:8664
C9F8 F0 07    BEQ $CA01			A:80 X:25 Y:00 P:35 SP:FB CYC:8666
C9FA 10 05    BPL $CA01			A:80 X:25 Y:00 P:35 SP:FB CYC:8668
C903 A9 70    LDA #$70			A:80 X:25 Y:00 P:35 SP:FB CYC:8671
C905 49 70    EOR #$70			A:70 X:25 Y:00 P:35 SP:FB CYC:8673
C907 D0 09    BNE $C912			A:00 X:25 Y:00 P:37 SP:FB CYC:8675
C909 70 07    BVS $C912			A:00 X:25 Y:00 P:37 SP:FB CYC:8678
C90B 90 05    BCC $C912			A:00 X:25 Y:00 P:37 SP:FB CYC:8679
C90D 30 03    BMI $C912			A:00 X:25 Y:00 P:37 SP:FB CYC:8682
C90F 4C 16 C9 JMP $C916			A:00 X:25 Y:00 P:37 SP:FB CYC:8683
C916 EA       NOP 			A:00 X:25 Y:00 P:37 SP:FB CYC:8686
C917 18       CLC 			A:00 X:25 Y:00 P:37 SP:FB CYC:8688
C918 24 01    BIT $01			A:00 X:25 Y:00 P:36 SP:FB CYC:8690
C91A A9 00    LDA #$00			A:00 X:25 Y:00 P:F6 SP:FB CYC:8693
C91C 69 69    ADC #$69			A:00 X:25 Y:00 P:76 SP:FB CYC:8695
C91E 30 0B    BMI $C92B			A:69 X:25 Y:00 P:34 SP:FB CYC:8697
C920 B0 09    BCS $C92B			A:69 X:25 Y:00 P:34 SP:FB CYC:8700
C922 C9 69    CMP #$69			A:69 X:25 Y:00 P:34 SP:FB CYC:8701
C924 D0 05    BNE $C92B			A:69 X:25 Y:00 P:B4 SP:FB CYC:8703
C92B A2 1E    LDX #$1E			A:69 X:25 Y:00 P:B4 SP:FB CYC:8706
C92D 86 00    STX $00			A:69 X:1E Y:00 P:34 SP:FB CYC:8708
C92F EA       NOP 			A:69 X:1E Y:00 P:34 SP:FB CYC:8711
C930 38       SEC 			A:69 X:1E Y:00 P:34 SP:FB CYC:8713
C931 F8       SED 			A:69 X:1E Y:00 P:35 SP:FB CYC:8715
C932 24 01    BIT $01			A:69 X:1E Y:00 P:3D SP:FB CYC:8717
C934 A9 01    LDA #$01			A:69 X:1E Y:00 P:FD SP:FB CYC:8720
C936 69 69    ADC #$69			A:01 X:1E Y:00 P:7D SP:FB CYC:8722
C938 30 0B    BMI $C945			A:6B X:1E Y:00 P:3C SP:FB CYC:8724
C93A B0 09    BCS $C945			A:6B X:1E Y:00 P:3C SP:FB CYC:8727
C93C C9 6B    CMP #$6B			A:6B X:1E Y:00 P:3C SP:FB CYC:8728
C93E D0 05    BNE $C945			A:6B X:1E Y:00 P:BC SP:FB CYC:8730
C945 A2 1F    LDX #$1F			A:6B X:1E Y:00 P:BC SP:FB CYC:8733
C947 86 00    STX $00			A:6B X:1F Y:00 P:3C SP:FB CYC:8735
C949 EA       NOP 			A:6B X:1F Y:00 P:3C SP:FB CYC:8738
C94A D8       CLD 			A:6B X:1F Y:00 P:3C SP:FB CYC:8740
C94B 38       SEC 			A:6B X:1F Y:00 P:34 SP:FB CYC:8742
C94C B8       CLV 			A:6B X:1F Y:00 P:35 SP:FB CYC:8744
C94D A9 7F    LDA #$7F			A:6B X:1F Y:00 P:35 SP:FB CYC:8746
C94F 69 7F    ADC #$7F			A:7F X:1F Y:00 P:35 SP:FB CYC:8748
C951 10 0B    BPL $C95E			A:FF X:1F Y:00 P:F4 SP:FB CYC:8750
C953 B0 09    BCS $C95E			A:FF X:1F Y:00 P:F4 SP:FB CYC:8753
C955 C9 FF    CMP #$FF			A:FF X:1F Y:00 P:F4 SP:FB CYC:8754
C957 D0 05    BNE $C95E			A:FF X:1F Y:00 P:F4 SP:FB CYC:8756
C95E A2 20    LDX #$20			A:FF X:1F Y:00 P:F4 SP:FB CYC:8759
C960 86 00    STX $00			A:FF X:20 Y:00 P:74 SP:FB CYC:8761
C962 EA       NOP 			A:FF X:20 Y:00 P:74 SP:FB CYC:8764
C963 18       CLC 			A:FF X:20 Y:00 P:74 SP:FB CYC:8766
C964 24 01    BIT $01			A:FF X:20 Y:00 P:74 SP:FB CYC:8768
C966 A9 7F    LDA #$7F			A:FF X:20 Y:00 P:F4 SP:FB CYC:8771
C968 69 80    ADC #$80			A:7F X:20 Y:00 P:74 SP:FB CYC:8773
C96A 10 0B    BPL $C977			A:FF X:20 Y:00 P:B4 SP:FB CYC:8775
C96C B0 09    BCS $C977			A:FF X:20 Y:00 P:B4 SP:FB CYC:8778
C96E C9 FF    CMP #$FF			A:FF X:20 Y:00 P:B4 SP:FB CYC:8779
C970 D0 05    BNE $C977			A:FF X:20 Y:00 P:B4 SP:FB CYC:8781
C977 A2 21    LDX #$21			A:FF X:20 Y:00 P:B4 SP:FB CYC:8784
C979 86 00    STX $00			A:FF X:21 Y:00 P:34 SP:FB CYC:8786
C97B EA       NOP 			A:FF X:21 Y:00 P:34 SP:FB CYC:8789
C97C 38       SEC 			A:FF X:21 Y:00 P:34 SP:FB CYC:8791
C97D B8       CLV 			A:FF X:21 Y:00 P:35 SP:FB CYC:8793
C97E A9 7F    LDA #$7F			A:FF X:21 Y:00 P:35 SP:FB CYC:8795
C980 69 80    ADC #$80			A:7F X:21 Y:00 P:35 SP:FB CYC:8797
C982 D0 09    BNE $C98D			A:00 X:21 Y:00 P:37 SP:FB CYC:8799
C984 30 07    BMI $C98D			A:00 X:21 Y:00 P:37 SP:FB CYC:8802
C986 70 05    BVS $C98D			A:00 X:21 Y:00 P:37 SP:FB CYC:8803
C988 90 03    BCC $C98D			A:00 X:21 Y:00 P:37 SP:FB CYC:8806
C98A 4C 91 C9 JMP $C991			A:00 X:21 Y:00 P:37 SP:FB CYC:8807
C991 EA       NOP 			A:00 X:21 Y:00 P:37 SP:FB CYC:8810
C992 38       SEC 			A:00 X:21 Y:00 P:37 SP:FB CYC:8812
C993 B8       CLV 			A:00 X:21 Y:00 P:37 SP:FB CYC:8814
C994 A9 9F    LDA #$9F			A:00 X:21 Y:00 P:37 SP:FB CYC:8816
C996 F0 09    BEQ $C9A1			A:9F X:21 Y:00 P:B5 SP:FB CYC:8818
C998 10 07    BPL $C9A1			A:9F X:21 Y:00 P:B5 SP:FB CYC:8821
C99A 70 05    BVS $C9A1			A:9F X:21 Y:00 P:B5 SP:FB CYC:8822
C99C 90 03    BCC $C9A1			A:9F X:21 Y:00 P:B5 SP:FB CYC:8825
C99E 4C A5 C9 JMP $C9A5			A:9F X:21 Y:00 P:B5 SP:FB CYC:8826
C9A5 EA       NOP 			A:9F X:21 Y:00 P:B5 SP:FB CYC:8829
C9A6 18       CLC 			A:9F X:21 Y:00 P:B5 SP:FB CYC:8831
C9A7 24 01    BIT $01			A:9F X:21 Y:00 P:B4 SP:FB CYC:8833
C9A9 A9 00    LDA #$00			A:9F X:21 Y:00 P:F4 SP:FB CYC:8836
C9AB D0 09    BNE $C9B6			A:00 X:21 Y:00 P:76 SP:FB CYC:8838
C9AD 30 07    BMI $C9B6			A:00 X:21 Y:00 P:76 SP:FB CYC:8841
C9AF 50 05    BVC $C9B6			A:00 X:21 Y:00 P:76 SP:FB CYC:8842
C9B1 B0 03    BCS $C9B6			A:00 X:21 Y:00 P:76 SP:FB CYC:8845
C9B3 4C BA C9 JMP $C9BA			A:00 X:21 Y:00 P:76 SP:FB CYC:8846
C9BA EA       NOP 			A:00 X:21 Y:00 P:76 SP:FB CYC:8849
C9BB 24 01    BIT $01			A:00 X:21 Y:00 P:76 SP:FB CYC:8851
C9BD A9 40    LDA #$40			A:00 X:21 Y:00 P:F6 SP:FB CYC:8854
C9BF C9 40    CMP #$40			A:40 X:21 Y:00 P:74 SP:FB CYC:8856
C9C1 30 09    BMI $C9CC			A:40 X:21 Y:00 P:F4 SP:FB CYC:8858
C9CC A2 24    LDX #$24			A:40 X:21 Y:00 P:F4 SP:FB CYC:8861
C9CE 86 00    STX $00			A:40 X:24 Y:00 P:74 SP:FB CYC:8863
C9D0 EA       NOP 			A:40 X:24 Y:00 P:74 SP:FB CYC:8866
C9D1 B8       CLV 			A:40 X:24 Y:00 P:74 SP:FB CYC:8868
C9D2 C9 3F    CMP #$3F			A:40 X:24 Y:00 P:34 SP:FB CYC:8870
C9D4 F0 09    BEQ $C9DF			A:40 X:24 Y:00 P:37 SP:FB CYC:8872
C9DF A2 25    LDX #$25			A:40 X:24 Y:00 P:37 SP:FB CYC:8875
C9E1 86 00    STX $00			A:40 X:25 Y:00 P:35 SP:FB CYC:8877
C9E3 EA       NOP 			A:40 X:25 Y:00 P:35 SP:FB CYC:8880
C9E4 C9 41    CMP #$41			A:40 X:25 Y:00 P:35 SP:FB CYC:8882
C9E6 F0 07    BEQ $C9EF			A:40 X:25 Y:00 P:B4 SP:FB CYC:8884
C9E8 10 05    BPL $C9EF			A:40 X:25 Y:00 P:B4 SP:FB CYC:8887
C9EA 10 03    BPL $C9EF			A:40 X:25 Y:00 P:B4 SP:FB CYC:8888
C9EC 4C F3 C9 JMP $C9F3			A:40 X:25 Y:00 P:B4 SP:FB CYC:8890
C9F3 EA       NOP 			A:40 X:25 Y:00 P:B4 SP:FB CYC:8893
C9F4 A9 80    LDA #$80			A:40 X:25 Y:00 P:B4 SP:FB CYC:8895
C9F6 C9 00    CMP #$00			A:80 X:25 Y:00 P:B4 SP:FB CYC:8897
C9F8 F0 07    BEQ $CA01			A:80 X:25 Y:00 P:35 SP:FB CYC:8899
C9FA 10 05    BPL $CA01			A:80 X:25 Y:00 P:35 SP:FB CYC:8901
C903 A9 70    LDA #$70			A:80 X:25 Y:00 P:35 SP:FB CYC:8904
C905 49 70    EOR #$70			A:70 X:25 Y:00 P:35 SP:FB CYC:8906
C907 D0 09    BNE $C912			A:00 X:25 Y:00 P:37 SP:FB CYC:8908
C909 70 07    BVS $C912			A:00 X:25 Y:00 P:37 SP:FB CYC:8911
C90B 90 05    BCC $C912			A:00 X:25 Y:00 P:37 SP:FB CYC:8912
C90D 30 03    BMI $C912			A:00 X:25 Y:00 P:37 SP:FB CYC:8915
C90F 4C 16 C9 JMP $C916			A:00 X:25 Y:00 P:37 SP:FB CYC:8916
C916 EA       NOP 			A:00 X:25 Y:00 P:37 SP:FB CYC:8919
C917 18       CLC 			A:00 X:25 Y:00 P:37 SP:FB CYC:8921
C918 24 01    BIT $01			A:00 X:25 Y:00 P:36 SP:FB CYC:8923
C91A A9 00    LDA #$00			A:00 X:25 Y:00 P:F6 SP:FB CYC:8926
C91C 69 69    ADC #$69			A:00 X:25 Y:00 P:76 SP:FB CYC:8928
C91E 30 0B    BMI $C92B			A:69 X:25 Y:00 P:34 SP:FB CYC:8930
C920 B0 09    BCS $C92B			A:69 X:25 Y:00 P:34 SP:FB CYC:8933
C922 C9 69    CMP #$69			A:69 X:25 Y:00 P:34 SP:FB CYC:8934
C924 D0 05    BNE $C92B			A:69 X:25 Y:00 P:B4 SP:FB CYC:8936
C92B A2 1E    LDX #$1E			A:69 X:25 Y:00 P:B4 SP:FB CYC:8939
C92D 86 00    STX $00			A:69 X:1E Y:00 P:34 SP:FB CYC:8941
C92F EA       NOP 			A:69 X:1E Y:00 P:34 SP:FB CYC:8944
C930 38       SEC 			A:69 X:1E Y:00 P:34 SP:FB CYC:8946
C931 F8       SED 			A:69 X:1E Y:00 P:35 SP:FB CYC:8948
C932 24 01    BIT $01			A:69 X:1E Y:00 P:3D SP:FB CYC:8950
C934 A9 01    LDA #$01			A:69 X:1E Y:00 P:FD SP:FB CYC:8953
C936 69 69    ADC #$69			A:01 X:1E Y:00 P:7D SP:FB CYC:8955
C938 30 0B    BMI $C945			A:6B X:1E Y:00 P:3C SP:FB CYC:8957
C93A B0 09    BCS $C945			A:6B X:1E Y:00 P:3C SP:FB CYC:8960
C93C C9 6B    CMP #$6B			A:6B X:1E Y:00 P:3C SP:FB CYC:8961
C93E D0 05    BNE $C945			A:6B X:1E Y:00 P:BC SP:FB CYC:8963
C945 A2 1F    LDX #$1F			A:6B X:1E Y:00 P:BC SP:FB CYC:8966
C947 86 00    STX $00			A:6B X:1F Y:00 P:3C SP:FB CYC:8968
C949 EA       NOP 			A:6B X:1F Y:00 P:3C SP:FB CYC:8971
C94A D8       CLD 			A:6B X:1F Y:00 P:3C SP:FB CYC:8973
C94B 38       SEC 			A:6B X:1F Y:00 P:34 SP:FB CYC:8975
C94C B8       CLV 			A:6B X:1F Y:00 P:35 SP:FB CYC:8977
C94D A9 7F    LDA #$7F			A:6B X:1F Y:00 P:35 SP:FB CYC:8979
C94F 69 7F    ADC #$7F			A:7F X:1F Y:00 P:35 SP:FB CYC:8981
C951 10 0B    BPL $C95E			A:FF X:1F Y:00 P:F4 SP:FB CYC:8983
C953 B0 09    BCS $C95E			A:FF X:1F Y:00 P:F4 SP:FB CYC:8986
C955 C9 FF    CMP #$FF			A:FF X:1F Y:00 P:F4 SP:FB CYC:8987
C957 D0 05    BNE $C95E			A:FF X:1F Y:00 P:F4 SP:FB CYC:8989
C95E A2 20    LDX #$20			A:FF X:1F Y:00 P:F4 SP:FB CYC:8992
C960 86 00    STX $00			A:FF X:20 Y:00 P:74 SP:FB CYC:8994
C962 EA       NOP 			A:FF X:20 Y:00 P:74 SP:FB CYC:8997
C963 18       CLC 			A:FF X:20 Y:00 P:74 SP:FB CYC:8999
C964 24 01    BIT $01			A:FF X:20 Y:00 P:74 SP:FB CYC:9001
C966 A9 7F    LDA #$7F			A:FF X:20 Y:00 P:F4 SP:FB CYC:9004
C968 69 80    ADC #$80			A:7F X:20 Y:00 P:74 SP:FB CYC:9006
C96A 10 0B    BPL $C977			A:FF X:20 Y:00 P:B4 SP:FB CYC:9008
C96C B0 09    BCS $C977			A:FF X:20 Y:00 P:B4 SP:FB CYC:9011
C96E C9 FF    CMP #$FF			A:FF X:20 Y:00 P:B4 SP:FB CYC:9012
C970 D0 05    BNE $C977			A:FF X:20 Y:00 P:B4 SP:FB CYC:9014
C977 A2 21    LDX #$21			A:FF X:20 Y:00 P:B4 SP:FB CYC:9017
C979 86 00    STX $00			A:FF X:21 Y:00 P:34 SP:FB CYC:9019
C97B EA       NOP 			A:FF X:21 Y:00 P:34 SP:FB CYC:9022
C97C 38       SEC 			A:FF X:21 Y:00 P:34 SP:FB CYC:9024
C97D B8       CLV 			A:FF X:21 Y:00 P:35 SP:FB CYC:9026
C97E A9 7F    LDA #$7F			A:FF X:21 Y:00 P:35 SP:FB CYC:9028
C980 69 80    ADC #$80			A:7F X:21 Y:00 P:35 SP:FB CYC:9030
C982 D0 09    BNE $C98D			A:00 X:21 Y:00 P:37 SP:FB CYC:9032
C984 30 07    BMI $C98D			A:00 X:21 Y:00 P:37 SP:FB CYC:9035
C986 70 05    BVS $C98D			A:00 X:21 Y:00 P:37 SP:FB CYC:9036
C988 90 03    BCC $C98D			A:00 X:21 Y:00 P:37 SP:FB CYC:9039
C98A 4C 91 C9 JMP $C991			A:00 X:21 Y:00 P:37 SP:FB CYC:9040
C991 EA       NOP 			A:00 X:21 Y:00 P:37 SP:FB CYC:9043
C992 38       SEC 			A:00 X:21 Y:00 P:37 SP:FB CYC:9045
C993 B8       CLV 			A:00 X:21 Y:00 P:37 SP:FB CYC:9047
C994 A9 9F    LDA #$9F			A:00 X:21 Y:00 P:37 SP:FB CYC:9049
C996 F0 09    BEQ $C9A1			A:9F X:21 Y:00 P:B5 SP:FB CYC:9051
C998 10 07    BPL $C9A1			A:9F X:21 Y:00 P:B5 SP:FB CYC:9054
C99A 70 05    BVS $C9A1			A:9F X:21 Y:00 P:B5 SP:FB CYC:9055
C99C 90 03    BCC $C9A1			A:9F X:21 Y:00 P:B5 SP:FB CYC:9058
C99E 4C A5 C9 JMP $C9A5			A:9F X:21 Y:00 P:B5 SP:FB CYC:9059
C9A5 EA       NOP 			A:9F X:21 Y:00 P:B5 SP:FB CYC:9062
C9A6 18       CLC 			A:9F X:21 Y:00 P:B5 SP:FB CYC:9064
C9A7 24 01    BIT $01			A:9F X:21 Y:00 P:B4 SP:FB CYC:9066
C9A9 A9 00    LDA #$00			A:9F X:21 Y:00 P:F4 SP:FB CYC:9069
C9AB D0 09    BNE $C9B6			A:00 X:21 Y:00 P:76 SP:FB CYC:9071
C9AD 30 07    BMI $C9B6			A:00 X:21 Y:00 P:76 SP:FB CYC:9074
C9AF 50 05    BVC $C9B6			A:00 X:21 Y:00 P:76 SP:FB CYC:9075
C9B1 B0 03    BCS $C9B6			A:00 X:21 Y:00 P:76 SP:FB CYC:9078
C9B3 4C BA C9 JMP $C9BA			A:00 X:21 Y:00 P:76 SP:FB CYC:9079
C9BA EA       NOP 			A:00 X:21 Y:00 P:76 SP:FB CYC:9082
C9BB 24 01    BIT $01			A:00 X:21 Y:00 P:76 SP:FB CYC:9084
C9BD A9 40    LDA #$40			A:00 X:21 Y:00 P:F6 SP:FB CYC:9087
C9BF C9 40    CMP #$40			A:40 X:21 Y:00 P:74 SP:FB CYC:9089
C9C1 30 09    BMI $C9CC			A:40 X:21 Y:00 P:F4 SP:FB CYC:9091
C9CC A2 24    LDX #$24			A:40 X:21 Y:00 P:F4 SP:FB CYC:9094
C9CE 86 00    STX $00			A:40 X:24 Y:00 P:74 SP:FB CYC:9096
C9D0 EA       NOP 			A:40 X:24 Y:00 P:74 SP:FB CYC:9099
C9D1 B8       CLV 			A:40 X:24 Y:00 P:74 SP:FB CYC:9101
C9D2 C9 3F    CMP #$3F			A:40 X:24 Y:00 P:34 SP:FB CYC:9103
C9D4 F0 09    BEQ $C9DF			A:40 X:24 Y:00 P:37 SP:FB CYC:9105
C9DF A2 25    LDX #$25			A:40 X:24 Y:00 P:37 SP:FB CYC:9108
C9E1 86 00    STX $00			A:40 X:25 Y:00 P:35 SP:FB CYC:9110
C9E3 EA       NOP 			A:40 X:25 Y:00 P:35 SP:FB CYC:9113
C9E4 C9 41    CMP #$41			A:40 X:25 Y:00 P:35 SP:FB CYC:9115
C9E6 F0 07    BEQ $C9EF			A:40 X:25 Y:00 P:B4 SP:FB CYC:9117
C9E8 10 05    BPL $C9EF			A:40 X:25 Y:00 P:B4 SP:FB CYC:9120
C9EA 10 03    BPL $C9EF			A:40 X:25 Y:00 P:B4 SP:FB CYC:9121
C9EC 4C F3 C9 JMP $C9F3			A:40 X:25 Y:00 P:B4 SP:FB CYC:9123
C9F3 EA       NOP 			A:40 X:25 Y:00 P:B4 SP:FB CYC:9126
C9F4 A9 80    LDA #$80			A:40 X:25 Y:00 P:B4 SP:FB CYC:9128
C9F6 C9 00    CMP #$00			A:80 X:25 Y:00 P:B4 SP:FB CYC:9130
C9F8 F0 07    BEQ $CA01			A:80 X:25 Y:00 P:35 SP:FB CYC:9132
C9FA 10 05    BPL $CA01			A:80 X:25 Y:00 P:35 SP:FB CYC:9134
C903 A9 70    LDA #$70			A:80 X:25 Y:00 P:35 SP:FB CYC:9137
C905 49 70    EOR #$70			A:70 X:25 Y:00 P:35 SP:FB CYC:9139
C907 D0 09    BNE $C912			A:00 X:25 Y:00 P:37 SP:FB CYC:9141
C909 70 07    BVS $C912			A:00 X:25 Y:00 P:37 SP:FB CYC:9144
C90B 90 05    BCC $C912			A:00 X:25 Y:00 P:37 SP:FB CYC:9145
C90D 30 03    BMI $C912			A:00 X:25 Y:00 P:37 SP:FB CYC:9148
C90F 4C 16 C9 JMP $C916			A:00 X:25 Y:00 P:37 SP:FB CYC:9149
C916 EA       NOP 			A:00 X:25 Y:00 P:37 SP:FB CYC:9152
C917 18       CLC 			A:00 X:25 Y:00 P:37 SP:FB CYC:9154
C918 24 01    BIT $01			A:00 X:25 Y:00 P:36 SP:FB CYC:9156
C91A A9 00    LDA #$00			A:00 X:25 Y:00 P:F6 SP:FB CYC:9159
C91C 69 69    ADC #$69			A:00 X:25 Y:00 P:76 SP:FB CYC:9161
C91E 30 0B    BMI $C92B			A:69 X:25 Y:00 P:34 SP:FB CYC:9163
C920 B0 09    BCS $C92B			A:69 X:25 Y:00 P:34 SP:FB CYC:9166
C922 C9 69    CMP #$69			A:69 X:25 Y:00 P:34 SP:FB CYC:9167
C924 D0 05    BNE $C92B			A:69 X:25 Y:00 P:B4 SP:FB CYC:9169
C92B A2 1E    LDX #$1E			A:69 X:25 Y:00 P:B4 SP:FB CYC:9172
C92D 86 00    STX $00			A:69 X:1E Y:00 P:34 SP:FB CYC:9174
C92F EA       NOP 			A:69 X:1E Y:00 P:34 SP:FB CYC:9177
C930 38       SEC 			A:69 X:1E Y:00 P:34 SP:FB CYC:9179
C931 F8       SED 			A:69 X:1E Y:00 P:35 SP:FB CYC:9181
C932 24 01    BIT $01			A:69 X:1E Y:00 P:3D SP:FB CYC:9183
C934 A9 01    LDA #$01			A:69 X:1E Y:00 P:FD SP:FB CYC:9186
C936 69 69    ADC #$69			A:01 X:1E Y:00 P:7D SP:FB CYC:9188
C938 30 0B    BMI $C945			A:6B X:1E Y:00 P:3C SP:FB CYC:9190
C93A B0 09    BCS $C945			A:6B X:1E Y:00 P:3C SP:FB CYC:9193
C93C C9 6B    CMP #$6B			A:6B X:1E Y:00 P:3C SP:FB CYC:9194
C93E D0 05    BNE $C945			A:6B X:1E Y:00 P:BC SP:FB CYC:9196
C945 A2 1F    LDX #$1F			A:6B X:1E Y:00 P:BC SP:FB CYC:9199
C947 86 00    STX $00			A:6B X:1F Y:00 P:3C SP:FB CYC:9201
C949 EA       NOP 			A:6B X:1F Y:00 P:3C SP:FB CYC:9204
C94A D8       CLD 			A:6B X:1F Y:00 P:3C SP:FB CYC:9206
C94B 38       SEC 			A:6B X:1F Y:00 P:34 SP:FB CYC:9208
C94C B8       CLV 			A:6B X:1F Y:00 P:35 SP:FB CYC:9210
C94D A9 7F    LDA #$7F			A:6B X:1F Y:00 P:35 SP:FB CYC:9212
C94F 69 7F    ADC #$7F			A:7F X:1F Y:00 P:35 SP:FB CYC:9214
C951 10 0B    BPL $C95E			A:FF X:1F Y:00 P:F4 SP:FB CYC:9216
C953 B0 09    BCS $C95E			A:FF X:1F Y:00 P:F4 SP:FB CYC:9219
C955 C9 FF    CMP #$FF			A:FF X:1F Y:00 P:F4 SP:FB CYC:9220
C957 D0 05    BNE $C95E			A:FF X:1F Y:00 P:F4 SP:FB CYC:9222
C95E A2 20    LDX #$20			A:FF X:1F Y:00 P:F4 SP:FB CYC:9225
C960 86 00    STX $00			A:FF X:20 Y:00 P:74 SP:FB CYC:9227
C962 EA       NOP 			A:FF X:20 Y:00 P:74 SP:FB CYC:9230
C963 18       CLC 			A:FF X:20 Y:00 P:74 SP:FB CYC:9232
C964 24 01    BIT $01			A:FF X:20 Y:00 P:74 SP:FB CYC:9234
C966 A9 7F    LDA #$7F			A:FF X:20 Y:00 P:F4 SP:FB CYC:9237
C968 69 80    ADC #$80			A:7F X:20 Y:00 P:74 SP:FB CYC:9239
C96A 10 0B    BPL $C977			A:FF X:20 Y:00 P:B4 SP:FB CYC:9241
C96C B0 09    BCS $C977			A:FF X:20 Y:00 P:B4 SP:FB CYC:9244
C96E C9 FF    CMP #$FF			A:FF X:20 Y:00 P:B4 SP:FB CYC:9245
C970 D0 05    BNE $C977			A:FF X:20 Y:00 P:B4 SP:FB CYC:9247
C977 A2 21    LDX #$21			A:FF X:20 Y:00 P:B4 SP:FB CYC:9250
C979 86 00    STX $00			A:FF X:21 Y:00 P:34 SP:FB CYC:9252
C97B EA       NOP 			A:FF X:21 Y:00 P:34 SP:FB CYC:9255
C97C 38       SEC 			A:FF X:21 Y:00 P:34 SP:FB CYC:9257
C97D B8       CLV 			A:FF X:21 Y:00 P:35 SP:FB CYC:9259
C97E A9 7F    LDA #$7F			A:FF X:21 Y:00 P:35 SP:FB CYC:9261
C980 69 80    ADC #$80			A:7F X:21 Y:00 P:35 SP:FB CYC:9263
C982 D0 09    BNE $C98D			A:00 X:21 Y:00 P:37 SP:FB CYC:9265
C984 30 07    BMI $C98D			A:00 X:21 Y:00 P:37 SP:FB CYC:9268
C986 70 05    BVS $C98D			A:00 X:21 Y:00 P:37 SP:FB CYC:9269
C988 90 03    BCC $C98D			A:00 X:21 Y:00 P:37 SP:FB CYC:9272
C98A 4C 91 C9 JMP $C991			A:00 X:21 Y:00 P:37 SP:FB CYC:9273
C991 EA       NOP 			A:00 X:21 Y:00 P:37 SP:FB CYC:9276
C992 38       SEC 			A:00 X:21 Y:00 P:37 SP:FB CYC:9278
C993 B8       CLV 			A:00 X:21 Y:00 P:37 SP:FB CYC:9280
C994 A9 9F    LDA #$9F			A:00 X:21 Y:00 P:37 SP:FB CYC:9282
C996 F0 09    BEQ $C9A1			A:9F X:21 Y:00 P:B5 SP:FB CYC:9284
C998 10 07    BPL $C9A1			A:9F X:21 Y:00 P:B5 SP:FB CYC:9287
C99A 70 05    BVS $C9A1			A:9F X:21 Y:00 P:B5 SP:FB CYC:9288
C99C 90 03    BCC $C9A1			A:9F X:21 Y:00 P:B5 SP:FB CYC:9291
C99E 4C A5 C9 JMP $C9A5			A:9F X:21 Y:00 P:B5 SP:FB CYC:9292
C9A5 EA       NOP 			A:9F X:21 Y:00 P:B5 SP:FB CYC:9295
C9A6 18       CLC 			A:9F X:21 Y:00 P:B5 SP:FB CYC:9297
C9A7 24 01    BIT $01			A:9F X:21 Y:00 P:B4 SP:FB CYC:9299
C9A9 A9 00    LDA #$00			A:9F X:21 Y:00 P:F4 SP:FB CYC:9302
C9AB D0 09    BNE $C9B6			A:00 X:21 Y:00 P:76 SP:FB CYC:9304
C9AD 30 07    BMI $C9B6			A:00 X:21 Y:00 P:76 SP:FB CYC:9307
C9AF 50 05    BVC $C9B6			A:00 X:21 Y:00 P:76 SP:FB CYC:9308
C9B1 B0 03    BCS $C9B6			A:00 X:21 Y:00 P:76 SP:FB CYC:9311
C9B3 4C BA C9 JMP $C9BA			A:00 X:21 Y:00 P:76 SP:FB CYC:9312
C9BA EA       NOP 			A:00 X:21 Y:00 P:76 SP:FB CYC:9315
C9BB 24 01    BIT $01			A:00 X:21 Y:00 P:76 SP:FB CYC:9317
C9BD A9 40    LDA #$40			A:00 X:21 Y:00 P:F6 SP:FB CYC:9320
C9BF C9 40    CMP #$40			A:40 X:21 Y:00 P:74 SP:FB CYC:9322
C9C1 30 09    BMI $C9CC			A:40 X:21 Y:00 P:F4 SP:FB CYC:9324
C9CC A2 24    LDX #$24			A:40 X:21 Y:00 P:F4 SP:FB CYC:9327
C9CE 86 00    STX $00			A:40 X:24 Y:00 P:74 SP:FB CYC:9329
C9D0 EA       NOP 			A:40 X:24 Y:00 P:74 SP:FB CYC:9332
C9D1 B8       CLV 			A:40 X:24 Y:00 P:74 SP:FB CYC:9334
C9D2 C9 3F    CMP #$3F			A:40 X:24 Y:00 P:34 SP:FB CYC:9336
C9D4 F0 09    BEQ $C9DF			A:40 X:24 Y:00 P:37 SP:FB CYC:9338
C9DF A2 25    LDX #$25			A:40 X:24 Y:00 P:37 SP:FB CYC:9341
C9E1 86 00    STX $00			A:40 X:25 Y:00 P:35 SP:FB CYC:9343
C9E3 EA       NOP 			A:40 X:25 Y:00 P:35 SP:FB CYC:9346
C9E4 C9 41    CMP #$41			A:40 X:25 Y:00 P:35 SP:FB CYC:9348
C9E6 F0 07    BEQ $C9EF			A:40 X:25 Y:00 P:B4 SP:FB CYC:9350
C9E8 10 05    BPL $C9EF			A:40 X:25 Y:00 P:B4 SP:FB CYC:9353
C9EA 10 03    BPL $C9EF			A:40 X:25 Y:00 P:B4 SP:FB CYC:9354
C9EC 4C F3 C9 JMP $C9F3			A:40 X:25 Y:00 P:B4 SP:FB CYC:9356
C9F3 EA       NOP 			A:40 X:25 Y:00 P:B4 SP:FB CYC:9359
C9F4 A9 80    LDA #$80			A:40 X:25 Y:00 P:B4 SP:FB CYC:9361
C9F6 C9 00    CMP #$00			A:80 X:25 Y:00 P:B4 SP:FB CYC:9363
C9F8 F0 07    BEQ $CA01			A:80 X:25 Y:00 P:35 SP:FB CYC:9365
C9FA 10 05    BPL $CA01			A:80 X:25 Y:00 P:35 SP:FB CYC:9367
C903 A9 70    LDA #$70			A:80 X:25 Y:00 P:35 SP:FB CYC:9370
C905 49 70    EOR #$70			A:70 X:25 Y:00 P:35 SP:FB CYC:9372
C907 D0 09    BNE $C912			A:00 X:25 Y:00 P:37 SP:FB CYC:9374
C909 70 07    BVS $C912			A:00 X:25 Y:00 P:37 SP:FB CYC:9377
C90B 90 05    BCC $C912			A:00 X:25 Y:00 P:37 SP:FB CYC:9378
C90D 30 03    BMI $C912			A:00 X:25 Y:00 P:37 SP:FB CYC:9381
C90F 4C 16 C9 JMP $C916			A:00 X:25 Y:00 P:37 SP:FB CYC:9382
C916 EA       NOP 			A:00 X:25 Y:00 P:37 SP:FB CYC:9385
C917 18       CLC 			A:00 X:25 Y:00 P:37 SP:FB CYC:9387
C918 24 01    BIT $01			A:00 X:25 Y:00 P:36 SP:FB CYC:9389
C91A A9 00    LDA #$00			A:00 X:25 Y:00 P:F6 SP:FB CYC:9392
C91C 69 69    ADC #$69			A:00 X:25 Y:00 P:76 SP:FB CYC:9394
C91E 30 0B    BMI $C92B			A:69 X:25 Y:00 P:34 SP:FB CYC:9396
C920 B0 09    BCS $C92B			A:69 X:25 Y:00 P:34 SP:FB CYC:9399
C922 C9 69    CMP #$69			A:69 X:25 Y:00 P:34 SP:FB CYC:9400
C924 D0 05    BNE $C92B			A:69 X:25 Y:00 P:B4 SP:FB CYC:9402
C92B A2 1E    LDX #$1E			A:69 X:25 Y:00 P:B4 SP:FB CYC:9405
C92D 86 00    STX $00			A:69 X:1E Y:00 P:34 SP:FB CYC:9407
C92F EA       NOP 			A:69 X:1E Y:00 P:34 SP:FB CYC:9410
C930 38       SEC 			A:69 X:1E Y:00 P:34 SP:FB CYC:9412
C931 F8       SED 			A:69 X:1E Y:00 P:35 SP:FB CYC:9414
C932 24 01    BIT $01			A:69 X:1E Y:00 P:3D SP:FB CYC:9416
C934 A9 01    LDA #$01			A:69 X:1E Y:00 P:FD SP:FB CYC:9419
C936 69 69    ADC #$69			A:01 X:1E Y:00 P:7D SP:FB CYC:9421
C938 30 0B    BMI $C945			A:6B X:1E Y:00 P:3C SP:FB CYC:9423
C93A B0 09    BCS $C945			A:6B X:1E Y:00 P:3C SP:FB CYC:9426
C93C C9 6B    CMP #$6B			A:6B X:1E Y:00 P:3C SP:FB CYC:9427
C93E D0 05    BNE $C945			A:6B X:1E Y:00 P:BC SP:FB CYC:9429
C945 A2 1F    LDX #$1F			A:6B X:1E Y:00 P:BC SP:FB CYC:9432
C947 86 00    STX $00			A:6B X:1F Y:00 P:3C SP:FB CYC:9434
C949 EA       NOP 			A:6B X:1F Y:00 P:3C SP:FB CYC:9437
C94A D8       CLD 			A:6B X:1F Y:00 P:3C SP:FB CYC:9439
C94B 38       SEC 			A:6B X:1F Y:00 P:34 SP:FB CYC:9441
C94C B8       CLV 			A:6B X:1F Y:00 P:35 SP:FB CYC:9443
C94D A9 7F    LDA #$7F			A:6B X:1F Y:00 P:35 SP:FB CYC:9445
C94F 69 7F    ADC #$7F			A:7F X:1F Y:00 P:35 SP:FB CYC:9447
C951 10 0B    BPL $C95E			A:FF X:1F Y:00 P:F4 SP:FB CYC:9449
C953 B0 09    BCS $C95E			A:FF X:1F Y:00 P:F4 SP:FB CYC:9452
C955 C9 FF    CMP #$FF			A:FF X:1F Y:00 P:F4 SP:FB CYC:9453
C957 D0 05    BNE $C95E			A:FF X:1F Y:00 P:F4 SP:FB CYC:9455
C95E A2 20    LDX #$20			A:FF X:1F Y:00 P:F4 SP:FB CYC:9458
C960 86 00    STX $00			A:FF X:20 Y:00 P:74 SP:FB CYC:9460
C962 EA       NOP 			A:FF X:20 Y:00 P:74 SP:FB CYC:9463
C963 18       CLC 			A:FF X:20 Y:00 P:74 SP:FB CYC:9465
C964 24 01    BIT $01			A:FF X:20 Y:00 P:74 SP:FB CYC:9467
C966 A9 7F    LDA #$7F			A:FF X:20 Y:00 P:F4 SP:FB CYC:9470
C968 69 80    ADC #$80			A:7F X:20 Y:00 P:74 SP:FB CYC:9472
C96A 10 0B    BPL $C977			A:FF X:20 Y:00 P:B4 SP:FB CYC:9474
C96C B0 09    BCS $C977			A:FF X:20 Y:00 P:B4 SP:FB CYC:9477
C96E C9 FF    CMP #$FF			A:FF X:20 Y:00 P:B4 SP:FB CYC:9478
C970 D0 05    BNE $C977			A:FF X:20 Y:00 P:B4 SP:FB CYC:9480
C977 A2 21    LDX #$21			A:FF X:20 Y:00 P:B4 SP:FB CYC:9483
C979 86 00    STX $00			A:FF X:21 Y:00 P:34 SP:FB CYC:9485
C97B EA       NOP 			A:FF X:21 Y:00 P:34 SP:FB CYC:9488
C97C 38       SEC 			A:FF X:21 Y:00 P:34 SP:FB CYC:9490
C97D B8       CLV 			A:FF X:21 Y:00 P:35 SP:FB CYC:9492
C97E A9 7F    LDA #$7F			A:FF X:21 Y:00 P:35 SP:FB CYC:9494
C980 69 80    ADC #$80			A:7F X:21 Y:00 P:35 SP:FB CYC:9496
C982 D0 09    BNE $C98D			A:00 X:21 Y:00 P:37 SP:FB CYC:9498
C984 30 07    BMI $C98D			A:00 X:21 Y:00 P:37 SP:FB CYC:9501
C986 70 05    BVS $C98D			A:00 X:21 Y:00 P:37 SP:FB CYC:9502
C988 90 03    BCC $C98D			A:00 X:21 Y:00 P:37 SP:FB CYC:9505
C98A 4C 91 C9 JMP $C991			A:00 X:21 Y:00 P:37 SP:FB CYC:9506
C991 EA       NOP 			A:00 X:21 Y:00 P:37 SP:FB CYC:9509
C992 38       SEC 			A:00 X:21 Y:00 P:37 SP:FB CYC:9511
C993 B8       CLV 			A:00 X:21 Y:00 P:37 SP:FB CYC:9513
C994 A9 9F    LDA #$9F			A:00 X:21 Y:00 P:37 SP:FB CYC:9515
C996 F0 09    BEQ $C9A1			A:9F X:21 Y:00 P:B5 SP:FB CYC:9517
C998 10 07    BPL $C9A1			A:9F X:21 Y:00 P:B5 SP:FB CYC:9520
C99A 70 05    BVS $C9A1			A:9F X:21 Y:00 P:B5 SP:FB CYC:9521
C99C 90 03    BCC $C9A1			A:9F X:21 Y:00 P:B5 SP:FB CYC:9524
C99E 4C A5 C9 JMP $C9A5			A:9F X:21 Y:00 P:B5 SP:FB CYC:9525
C9A5 EA       NOP 			A:9F X:21 Y:00 P:B5 SP:FB CYC:9528
C9A6 18       CLC 			A:9F X:21 Y:00 P:B5 SP:FB CYC:9530
C9A7 24 01    BIT $01			A:9F X:21 Y:00 P:B4 SP:FB CYC:9532
C9A9 A9 00    LDA #$00			A:9F X:21 Y:00 P:F4 SP:FB CYC:9535
C9AB D0 09    BNE $C9B6			A:00 X:21 Y:00 P:76 SP:FB CYC:9537
C9AD 30 07    BMI $C9B6			A:00 X:21 Y:00 P:76 SP:FB CYC:9540
C9AF 50 05    BVC $C9B6			A:00 X:21 Y:00 P:76 SP:FB CYC:9541
C9B1 B0 03    BCS $C9B6			A:00 X:21 Y:00 P:76 SP:FB CYC:9544
C9B3 4C BA C9 JMP $C9BA			A:00 X:21 Y:00 P:76 SP:FB CYC:9545
C9BA EA       NOP 			A:00 X:21 Y:00 P:76 SP:FB CYC:9548
C9BB 24 01    BIT $01			A:00 X:21 Y:00 P:76 SP:FB CYC:9550
C9BD A9 40    LDA #$40			A:00 X:21 Y:00 P:F6 SP:FB CYC:9553
C9BF C9 40    CMP #$40			A:40 X:21 Y:00 P:74 SP:FB CYC:9555
C9C1 30 09    BMI $C9CC			A:40 X:21 Y:00 P:F4 SP:FB CYC:9557
C9CC A2 24    LDX #$24			A:40 X:21 Y:00 P:F4 SP:FB CYC:9560
C9CE 86 00    STX $00			A:40 X:24 Y:00 P:74 SP:FB CYC:9562
C9D0 EA       NOP 			A:40 X:24 Y:00 P:74 SP:FB CYC:9565
C9D1 B8       CLV 			A:40 X:24 Y:00 P:74 SP:FB CYC:9567
C9D2 C9 3F    CMP #$3F			A:40 X:24 Y:00 P:34 SP:FB CYC:9569
C9D4 F0 09    BEQ $C9DF			A:40 X:24 Y:00 P:37 SP:FB CYC:9571
C9DF A2 25    LDX #$25			A:40 X:24 Y:00 P:37 SP:FB CYC:9574
C9E1 86 00    STX $00			A:40 X:25 Y:00 P:35 SP:FB CYC:9576
C9E3 EA       NOP 			A:40 X:25 Y:00 P:35 SP:FB CYC:9579
C9E4 C9 41    CMP #$41			A:40 X:25 Y:00 P:35 SP:FB CYC:9581
C9E6 F0 07    BEQ $C9EF			A:40 X:25 Y:00 P:B4 SP:FB CYC:9583
C9E8 10 05    BPL $C9EF			A:40 X:25 Y:00 P:B4 SP:FB CYC:9586
C9EA 10 03    BPL $C9EF			A:40 X:25 Y:00 P:B4 SP:FB CYC:9587
C9EC 4C F3 C9 JMP $C9F3			A:40 X:25 Y:00 P:B4 SP:FB CYC:9589
C9F3 EA       NOP 			A:40 X:25 Y:00 P:B4 SP:FB CYC:9592
C9F4 A9 80    LDA #$80			A:40 X:25 Y:00 P:B4 SP:FB CYC:9594
C9F6 C9 00    CMP #$00			A:80 X:25 Y:00 P:B4 SP:FB CYC:9596
C9F8 F0 07    BEQ $CA01			A:80 X:25 Y:00 P:35 SP:FB CYC:9598
C9FA 10 05    BPL $CA01			A:80 X:25 Y:00 P:35 SP:FB CYC:9600
C903 A9 70    LDA #$70			A:80 X:25 Y:00 P:35 SP:FB CYC:9603
C905 49 70    EOR #$70			A:70 X:25 Y:00 P:35 SP:FB CYC:9605
C907 D0 09    BNE $C912			A:00 X:25 Y:00 P:37 SP:FB CYC:9607
C909 70 07    BVS $C912			A:00 X:25 Y:00 P:37 SP:FB CYC:9610
C90B 90 05    BCC $C912			A:00 X:25 Y:00 P:37 SP:FB CYC:9611
C90D 30 03    BMI $C912			A:00 X:25 Y:00 P:37 SP:FB CYC:9614
C90F 4C 16 C9 JMP $C916			A:00 X:25 Y:00 P:37 SP:FB CYC:9615
C916 EA       NOP 			A:00 X:25 Y:00 P:37 SP:FB CYC:9618
C917 18       CLC 			A:00 X:25 Y:00 P:37 SP:FB CYC:9620
C918 24 01    BIT $01			A:00 X:25 Y:00 P:36 SP:FB CYC:9622
C91A A9 00    LDA #$00			A:00 X:25 Y:00 P:F6 SP:FB CYC:9625
C91C 69 69    ADC #$69			A:00 X:25 Y:00 P:76 SP:FB CYC:9627
C91E 30 0B    BMI $C92B			A:69 X:25 Y:00 P:34 SP:FB CYC:9629
C920 B0 09    BCS $C92B			A:69 X:25 Y:00 P:34 SP:FB CYC:9632
C922 C9 69    CMP #$69			A:69 X:25 Y:00 P:34 SP:FB CYC:9633
C924 D0 05    BNE $C92B			A:69 X:25 Y:00 P:B4 SP:FB CYC:9635
C92B A2 1E    LDX #$1E			A:69 X:25 Y:00 P:B4 SP:FB CYC:9638
C92D 86 00    STX $00			A:69 X:1E Y:00 P:34 SP:FB CYC:9640
C92F EA       NOP 			A:69 X:1E Y:00 P:34 SP:FB CYC:9643
C930 38       SEC 			A:69 X:1E Y:00 P:34 SP:FB CYC:9645
C931 F8       SED 			A:69 X:1E Y:00 P:35 SP:FB CYC:9647
C932 24 01    BIT $01			A:69 X:1E Y:00 P:3D SP:FB CYC:9649
C934 A9 01    LDA #$01			A:69 X:1E Y:00 P:FD SP:FB CYC:9652
C936 69 69    ADC #$69			A:01 X:1E Y:00 P:7D SP:FB CYC:9654
C938 30 0B    BMI $C945			A:6B X:1E Y:00 P:3C SP:FB CYC:9656
C93A B0 09    BCS $C945			A:6B X:1E Y:00 P:3C SP:FB CYC:9659
C93C C9 6B    CMP #$6B			A:6B X:1E Y:00 P:3C SP:FB CYC:9660
C93E D0 05    BNE $C945			A:6B X:1E Y:00 P:BC SP:FB CYC:9662
C945 A2 1F    LDX #$1F			A:6B X:1E Y:00 P:BC SP:FB CYC:9665
C947 86 00    STX $00			A:6B X:1F Y:00 P:3C SP:FB CYC:9667
C949 EA       NOP 			A:6B X:1F Y:00 P:3C SP:FB CYC:9670
C94A D8       CLD 			A:6B X:1F Y:00 P:3C SP:FB CYC:9672
C94B 38       SEC 			A:6B X:1F Y:00 P:34 SP:FB CYC:9674
C94C B8       CLV 			A:6B X:1F Y:00 P:35 SP:FB CYC:9676
C94D A9 7F    LDA #$7F			A:6B X:1F Y:00 P:35 SP:FB CYC:9678
C94F 69 7F    ADC #$7F			A:7F X:1F Y:00 P:35 SP:FB CYC:9680
C951 10 0B    BPL $C95E			A:FF X:1F Y:00 P:F4 SP:FB CYC:9682
C953 B0 09    BCS $C95E			A:FF X:1F Y:00 P:F4 SP:FB CYC:9685
C955 C9 FF    CMP #$FF			A:FF X:1F Y:00 P:F4 SP:FB CYC:9686
C957 D0 05    BNE $C95E			A:FF X:1F Y:00 P:F4 SP:FB CYC:9688
C95E A2 20    LDX #$20			A:FF X:1F Y:00 P:F4 SP:FB CYC:9691
C960 86 00    STX $00			A:FF X:20 Y:00 P:74 SP:FB CYC:9693
C962 EA       NOP 			A:FF X:20 Y:00 P:74 SP:FB CYC:9696
C963 18       CLC 			A:FF X:20 Y:00 P:74 SP:FB CYC:9698
C964 24 01    BIT $01			A:FF X:20 Y:00 P:74 SP:FB CYC:9700
C966 A9 7F    LDA #$7F			A:FF X:20 Y:00 P:F4 SP:FB CYC:9703
C968 69 80    ADC #$80			A:7F X:20 Y:00 P:74 SP:FB CYC:9705
C96A 10 0B    BPL $C977			A:FF X:20 Y:00 P:B4 SP:FB CYC:9707
C96C B0 09    BCS $C977			A:FF X:20 Y:00 P:B4 SP:FB CYC:9710
C96E C9 FF    CMP #$FF			A:FF X:20 Y:00 P:B4 SP:FB CYC:9711
C970 D0 05    BNE $C977			A:FF X:20 Y:00 P:B4 SP:FB CYC:9713
C977 A2 21    LDX #$21			A:FF X:20 Y:00 P:B4 SP:FB CYC:9716
C979 86 00    STX $00			A:FF X:21 Y:00 P:34 SP:FB CYC:9718
C97B EA       NOP 			A:FF X:21 Y:00 P:34 SP:FB CYC:9721
C97C 38       SEC 			A:FF X:21 Y:00 P:34 SP:FB CYC:9723
C97D B8       CLV 			A:FF X:21 Y:00 P:35 SP:FB CYC:9725
C97E A9 7F    LDA #$7F			A:FF X:21 Y:00 P:35 SP:FB CYC:9727
C980 69 80    ADC #$80			A:7F X:21 Y:00 P:35 SP:FB CYC:9729
C982 D0 09    BNE $C98D			A:00 X:21 Y:00 P:37 SP:FB CYC:9731
C984 30 07    BMI $C98D			A:00 X:21 Y:00 P:37 SP:FB CYC:9734
C986 70 05    BVS $C98D			A:00 X:21 Y:00 P:37 SP:FB CYC:9735
C988 90 03    BCC $C98D			A:00 X:21 Y:00 P:37 SP:FB CYC:9738
C98A 4C 91 C9 JMP $C991			A:00 X:21 Y:00 P:37 SP:FB CYC:9739
C991 EA       NOP 			A:00 X:21 Y:00 P:37 SP:FB CYC:9742
C992 38       SEC 			A:00 X:21 Y:00 P:37 SP:FB CYC:9744
C993 B8       CLV 			A:00 X:21 Y:00 P:37 SP:FB CYC:9746
C994 A9 9F    LDA #$9F			A:00 X:21 Y:00 P:37 SP:FB CYC:9748
C996 F0 09    BEQ $C9A1			A:9F X:21 Y:00 P:B5 SP:FB CYC:9750
C998 10 07    BPL $C9A1			A:9F X:21 Y:00 P:B5 SP:FB CYC:9753
C99A 70 05    BVS $C9A1			A:9F X:21 Y:00 P:B5 SP:FB CYC:9754
C99C 90 03    BCC $C9A1			A:9F X:21 Y:00 P:B5 SP:FB CYC:9757
C99E 4C A5 C9 JMP $C9A5			A:9F X:21 Y:00 P:B5 SP:FB CYC:9758
C9A5 EA       NOP 			A:9F X:21 Y:00 P:B5 SP:FB CYC:9761
C9A6 18       CLC 			A:9F X:21 Y:00 P:B5 SP:FB CYC:9763
C9A7 24 01    BIT $01			A:9F X:21 Y:00 P:B4 SP:FB CYC:9765
C9A9 A9 00    LDA #$00			A:9F X:21 Y:00 P:F4 SP:FB CYC:9768
C9AB D0 09    BNE $C9B6			A:00 X:21 Y:00 P:76 SP:FB CYC:9770
C9AD 30 07    BMI $C9B6			A:00 X:21 Y:00 P:76 SP:FB CYC:9773
C9AF 50 05    BVC $C9B6			A:00 X:21 Y:00 P:76 SP:FB CYC:9774
C9B1 B0 03    BCS $C9B6			A:00 X:21 Y:00 P:76 SP:FB CYC:9777
C9B3 4C BA C9 JMP $C9BA			A:00 X:21 Y:00 P:76 SP:FB CYC:9778
C9BA EA       NOP 			A:00 X:21 Y:00 P:76 SP:FB CYC:9781
C9BB 24 01    BIT $01			A:00 X:21 Y:00 P:76 SP:FB CYC:9783
C9BD A9 40    LDA #$40			A:00 X:21 Y:00 P:F6 SP:FB CYC:9786
C9BF C9 40    CMP #$40			A:40 X:21 Y:00 P:74 SP:FB CYC:9788
C9C1 30 09    BMI $C9CC			A:40 X:21 Y:00 P:F4 SP:FB CYC:9790
C9CC A2 24    LDX #$24			A:40 X:21 Y:00 P:F4 SP:FB CYC:9793
C9CE 86 00    STX $00			A:40 X:24 Y:00 P:74 SP:FB CYC:9795
C9D0 EA       NOP 			A:40 X:24 Y:00 P:74 SP:FB CYC:9798
C9D1 B8       CLV 			A:40 X:24 Y:00 P:74 SP:FB CYC:9800
C9D2 C9 3F    CMP #$3F			A:40 X:24 Y:00 P:34 SP:FB CYC:9802
C9D4 F0 09    BEQ $C9DF			A:40 X:24 Y:00 P:37 SP:FB CYC:9804
C9DF A2 25    LDX #$25			A:40 X:24 Y:00 P:37 SP:FB CYC:9807
C9E1 86 00    STX $00			A:40 X:25 Y:00 P:35 SP:FB CYC:9809
C9E3 EA       NOP 			A:40 X:25 Y:00 P:35 SP:FB CYC:9812
C9E4 C9 41    CMP #$41			A:40 X:25 Y:00 P:35 SP:FB CYC:9814
C9E6 F0 07    BEQ $C9EF			A:40 X:25 Y:00 P:B4 SP:FB CYC:9816
C9E8 10 05    BPL $C9EF			A:40 X:25 Y:00 P:B4 SP:FB CYC:9819
C9EA 10 03    BPL $C9EF			A:40 X:25 Y:00 P:B4 SP:FB CYC:9820
C9EC 4C F3 C9 JMP $C9F3			A:40 X:25 Y:00 P:B4 SP:FB CYC:9822
C9F3 EA       NOP 			A:40 X:25 Y:00 P:B4 SP:FB CYC:9825
C9F4 A9 80    LDA #$80			A:40 X:25 Y:00 P:B4 SP:FB CYC:9827
C9F6 C9 00    CMP #$00			A:80 X:25 Y:00 P:B4 SP:FB CYC:9829
C9F8 F0 07    BEQ $CA01			A:80 X:25 Y:00 P:35 SP:FB CYC:9831
C9FA 10 05    BPL $CA01			A:80 X:25 Y:00 P:35 SP:FB CYC:9833
C903 A9 70    LDA #$70			A:80 X:25 Y:00 P:35 SP:FB CYC:9836
C905 49 70    EOR #$70			A:70 X:25 Y:00 P:35 SP:FB CYC:9838
C907 D0 09    BNE $C912			A:00 X:25 Y:00 P:37 SP:FB CYC:9840
C909 70 07    BVS $C912			A:00 X:25 Y:00 P:37 SP:FB CYC:9843
C90B 90 05    BCC $C912			A:00 X:25 Y:00 P:37 SP:FB CYC:9844
C90D 30 03    BMI $C912			A:00 X:25 Y:00 P:37 SP:FB CYC:9847
C90F 4C 16 C9 JMP $C916			A:00 X:25 Y:00 P:37 SP:FB CYC:9848
C916 EA       NOP 			A:00 X:25 Y:00 P:37 SP:FB CYC:9851
C917 18       CLC 			A:00 X:25 Y:00 P:37 SP:FB CYC:9853
C918 24 01    BIT $01			A:00 X:25 Y:00 P:36 SP:FB CYC:9855
C91A A9 00    LDA #$00			A:00 X:25 Y:00 P:F6 SP:FB CYC:9858
C91C 69 69    ADC #$69			A:00 X:25 Y:00 P:76 SP:FB CYC:9860
C91E 30 0B    BMI $C92B			A:69 X:25 Y:00 P:34 SP:FB CYC:9862
C920 B0 09    BCS $C92B			A:69 X:25 Y:00 P:34 SP:FB CYC:9865
C922 C9 69    CMP #$69			A:69 X:25 Y:00 P:34 SP:FB CYC:9866
C924 D0 05    BNE $C92B			A:69 X:25 Y:00 P:B4 SP:FB CYC:9868
C92B A2 1E    LDX #$1E			A:69 X:25 Y:00 P:B4 SP:FB CYC:9871
C92D 86 00    STX $00			A:69 X:1E Y:00 P:34 SP:FB CYC:9873
C92F EA       NOP 			A:69 X:1E Y:00 P:34 SP:FB CYC:9876
C930 38       SEC 			A:69 X:1E Y:00 P:34 SP:FB CYC:9878
C931 F8       SED 			A:69 X:1E Y:00 P:35 SP:FB CYC:9880
C932 24 01    BIT $01			A:69 X:1E Y:00 P:3D SP:FB CYC:9882
C934 A9 01    LDA #$01			A:69 X:1E Y:00 P:FD SP:FB CYC:9885
C936 69 69    ADC #$69			A:01 X:1E Y:00 P:7D SP:FB CYC:9887
C938 30 0B    BMI $C945			A:6B X:1E Y:00 P:3C SP:FB CYC:9889
C93A B0 09    BCS $C945			A:6B X:1E Y:00 P:3C SP:FB CYC:9892
C93C C9 6B    CMP #$6B			A:6B X:1E Y:00 P:3C SP:FB CYC:9893
C93E D0 05    BNE $C945			A:6B X:1E Y:00 P:BC SP:FB CYC:9895
C945 A2 1F    LDX #$1F			A:6B X:1E Y:00 P:BC SP:FB CYC:9898
C947 86 00    STX $00			A:6B X:1F Y:00 P:3C SP:FB CYC:9900
C949 EA       NOP 			A:6B X:1F Y:00 P:3C SP:FB CYC:9903
C94A D8       CLD 			A:6B X:1F Y:00 P:3C SP:FB CYC:9905
C94B 38       SEC 			A:6B X:1F Y:00 P:34 SP:FB CYC:9907
C94C B8       CLV 			A:6B X:1F Y:00 P:35 SP:FB CYC:9909
C94D A9 7F    LDA #$7F			A:6B X:1F Y:00 P:35 SP:FB CYC:9911
C94F 69 7F    ADC #$7F			A:7F X:1F Y:00 P:35 SP:FB CYC:9913
C951 10 0B    BPL $C95E			A:FF X:1F Y:00 P:F4 SP:FB CYC:9915
C953 B0 09    BCS $C95E			A:FF X:1F Y:00 P:F4 SP:FB CYC:9918
C955 C9 FF    CMP #$FF			A:FF X:1F Y:00 P:F4 SP:FB CYC:9919
C957 D0 05    BNE $C95E			A:FF X:1F Y:00 P:F4 SP:FB CYC:9921
C95E A2 20    LDX #$20			A:FF X:1F Y:00 P:F4 SP:FB CYC:9924
C960 86 00    STX $00			A:FF X:20 Y:00 P:74 SP:FB CYC:9926
C962 EA       NOP 			A:FF X:20 Y:00 P:74 SP:FB CYC:9929
C963 18       CLC 			A:FF X:20 Y:00 P:74 SP:FB CYC:9931
C964 24 01    BIT $01			A:FF X:20 Y:00 P:74 SP:FB CYC:9933
C966 A9 7F    LDA #$7F			A:FF X:20 Y:00 P:F4 SP:FB CYC:9936
C968 69 80    ADC #$80			A:7F X:20 Y:00 P:74 SP:FB CYC:9938
C96A 10 0B    BPL $C977			A:FF X:20 Y:00 P:B4 SP:FB CYC:9940
C96C B0 09    BCS $C977			A:FF X:20 Y:00 P:B4 SP:FB CYC:9943
C96E C9 FF    CMP #$FF			A:FF X:20 Y:00 P:B4 SP:FB CYC:9944
C970 D0 05    BNE $C977			A:FF X:20 Y:00 P:B4 SP:FB CYC:9946
C977 A2 21    LDX #$21			A:FF X:20 Y:00 P:B4 SP:FB CYC:9949
C979 86 00    STX $00			A:FF X:21 Y:00 P:34 SP:FB CYC:9951
C97B EA       NOP 			A:FF X:21 Y:00 P:34 SP:FB CYC:9954
C97C 38       SEC 			A:FF X:21 Y:00 P:34 SP:FB CYC:9956
C97D B8       CLV 			A:FF X:21 Y:00 P:35 SP:FB CYC:9958
C97E A9 7F    LDA #$7F			A:FF X:21 Y:00 P:35 SP:FB CYC:9960
C980 69 80    ADC #$80			A:7F X:21 Y:00 P:35 SP:FB CYC:9962
C982 D0 09    BNE $C98D			A:00 X:21 Y:00 P:37 SP:FB CYC:9964
C984 30 07    BMI $C98D			A:00 X:21 Y:00 P:37 SP:FB CYC:9967
C986 70 05    BVS $C98D			A:00 X:21 Y:00 P:37 SP:FB CYC:9968
C988 90 03    BCC $C98D			A:00 X:21 Y:00 P:37 SP:FB CYC:9971
C98A 4C 91 C9 JMP $C991			A:00 X:21 Y:00 P:37 SP:FB CYC:9972
C991 EA       NOP 			A:00 X:21 Y:00 P:37 SP:FB CYC:9975
C992 38       SEC 			A:00 X:21 Y:00 P:37 SP:FB CYC:9977
C993 B8       CLV 			A:00 X:21 Y:00 P:37 SP:FB CYC:9979
C994 A9 9F    LDA #$9F			A:00 X:21 Y:00 P:37 SP:FB CYC:9981
C996 F0 09    BEQ $C9A1			A:9F X:21 Y:00 P:B5 SP:FB CYC:9983
C998 10 07    BPL $C9A1			A:9F X:21 Y:00 P:B5 SP:FB CYC:9986
C99A 70 05    BVS $C9A1			A:9F X:21 Y:00 P:B5 SP:FB CYC:9987
C99C 90 03    BCC $C9A1			A:9F X:21 Y:00 P:B5 SP:FB CYC:9990
C99E 4C A5 C9 JMP $C9A5			A:9F X:21 Y:00 P:B5 SP:FB CYC:9991
C9A5 EA       NOP 			A:9F X:21 Y:00 P:B5 SP:FB CYC:9994
C9A6 18       CLC 			A:9F X:21 Y:00 P:B5 SP:FB CYC:9996
C9A7 24 01    BIT $01			A:9F X:21 Y:00 P:B4 SP:FB CYC:9998
C9A9 A9 00    LDA #$00			A:9F X:21 Y:00 P:F4 SP:FB CYC:10001
C9AB D0 09    BNE $C9B6			A:00 X:21 Y:00 P:76 SP:FB CYC:10003
C9AD 30 07    BMI $C9B6			A:00 X:21 Y:00 P:76 SP:FB CYC:10006
C9AF 50 05    BVC $C9B6			A:00 X:21 Y:00 P:76 SP:FB CYC:10007
C9B1 B0 03    BCS $C9B6			A:00 X:21 Y:00 P:76 SP:FB CYC:10010
C9B3 4C BA C9 JMP $C9BA			A:00 X:21 Y:00 P:76 SP:FB CYC:10011
C9BA EA       NOP 			A:00 X:21 Y:00 P:76 SP:FB CYC:10014
C9BB 24 01    BIT $01			A:00 X:21 Y:00 P:76 SP:FB CYC:10016
C9BD A9 40    LDA #$40			A:00 X:21 Y:00 P:F6 SP:FB CYC:10019
C9BF C9 40    CMP #$40			A:40 X:21 Y:00 P:74 SP:FB CYC:10021
C9C1 30 09    BMI $C9CC			A:40 X:21 Y:00 P:F4 SP:FB CYC:10023
C9CC A2 24    LDX #$24			A:40 X:21 Y:00 P:F4 SP:FB CYC:10026
C9CE 86 00    STX $00			A:40 X:24 Y:00 P:74 SP:FB CYC:10028
C9D0 EA       NOP 			A:40 X:24 Y:00 P:74 SP:FB CYC:10031
C9D1 B8       CLV 			A:40 X:24 Y:00 P:74 SP:FB CYC:10033
C9D2 C9 3F    CMP #$3F			A:40 X:24 Y:00 P:34 SP:FB CYC:10035
C9D4 F0 09    BEQ $C9DF			A:40 X:24 Y:00 P:37 SP:FB CYC:10037
C9DF A2 25    LDX #$25			A:40 X:24 Y:00 P:37 SP:FB CYC:10040
C9E1 86 00    STX $00			A:40 X:25 Y:00 P:35 SP:FB CYC:10042
C9E3 EA       NOP 			A:40 X:25 Y:00 P:35 SP:FB CYC:10045
C9E4 C9 41    CMP #$41			A:40 X:25 Y:00 P:35 SP:FB CYC:10047
C9E6 F0 07    BEQ $C9EF			A:40 X:25 Y:00 P:B4 SP:FB CYC:10049
C9E8 10 05    BPL $C9EF			A:40 X:25 Y:00 P:B4 SP:FB CYC:10052
C9EA 10 03    BPL $C9EF			A:40 X:25 Y:00 P:B4 SP:FB CYC:10053
C9EC 4C F3 C9 JMP $C9F3			A:40 X:25 Y:00 P:B4 SP:FB CYC:10055
C9F3 EA       NOP 			A:40 X:25 Y:00 P:B4 SP:FB CYC:10058
C9F4 A9 80    LDA #$80			A:40 X:25 Y:00 P:B4 SP:FB CYC:10060
C9F6 C9 00    CMP #$00			A:80 X:25 Y:00 P:B4 SP:FB CYC:10062
C9F8 F0 07    BEQ $CA01			A:80 X:25 Y:00 P:35 SP:FB CYC:10064
C9FA 10 05    BPL $CA01			A:80 X:25 Y:00 P:35 SP:FB CYC:10066
C903 A9 70    LDA #$70			A:80 X:25 Y:00 P:35 SP:FB CYC:10069
C905 49 70    EOR #$70			A:70 X:25 Y:00 P:35 SP:FB CYC:10071
C907 D0 09    BNE $C912			A:00 X:25 Y:00 P:37 SP:FB CYC:10073
C909 70 07    BVS $C912			A:00 X:25 Y:00 P:37 SP:FB CYC:10076
C90B 90 05    BCC $C912			A:00 X:25 Y:00 P:37 SP:FB CYC:10077
C90D 30 03    BMI $C912			A:00 X:25 Y:00 P:37 SP:FB CYC:10080
C90F 4C 16 C9 JMP $C916			A:00 X:25 Y:00 P:37 SP:FB CYC:10081
C916 EA       NOP 			A:00 X:25 Y:00 P:37 SP:FB CYC:10084
C917 18       CLC 			A:00 X:25 Y:00 P:37 SP:FB CYC:10086
C918 24 01    BIT $01			A:00 X:25 Y:00 P:36 SP:FB CYC:10088
C91A A9 00    LDA #$00			A:00 X:25 Y:00 P:F6 SP:FB CYC:10091
C91C 69 69    ADC #$69			A:00 X:25 Y:00 P:76 SP:FB CYC:10093
C91E 30 0B    BMI $C92B			A:69 X:25 Y:00 P:34 SP:FB CYC:10095
C920 B0 09    BCS $C92B			A:69 X:25 Y:00 P:34 SP:FB CYC:10098
C922 C9 69    CMP #$69			A:69 X:25 Y:00 P:34 SP:FB CYC:10099
C924 D0 05    BNE $C92B			A:69 X:25 Y:00 P:B4 SP:FB CYC:10101
C92B A2 1E    LDX #$1E			A:69 X:25 Y:00 P:B4 SP:FB CYC:10104
C92D 86 00    STX $00			A:69 X:1E Y:00 P:34 SP:FB CYC:10106
C92F EA       NOP 			A:69 X:1E Y:00 P:34 SP:FB CYC:10109
C930 38       SEC 			A:69 X:1E Y:00 P:34 SP:FB CYC:10111
C931 F8       SED 			A:69 X:1E Y:00 P:35 SP:FB CYC:10113
C932 24 01    BIT $01			A:69 X:1E Y:00 P:3D SP:FB CYC:10115
C934 A9 01    LDA #$01			A:69 X:1E Y:00 P:FD SP:FB CYC:10118
C936 69 69    ADC #$69			A:01 X:1E Y:00 P:7D SP:FB CYC:10120
C938 30 0B    BMI $C945			A:6B X:1E Y:00 P:3C SP:FB CYC:10122
C93A B0 09    BCS $C945			A:6B X:1E Y:00 P:3C SP:FB CYC:10125
C93C C9 6B    CMP #$6B			A:6B X:1E Y:00 P:3C SP:FB CYC:10126
C93E D0 05    BNE $C945			A:6B X:1E Y:00 P:BC SP:FB CYC:10128
C945 A2 1F    LDX #$1F			A:6B X:1E Y:00 P:BC SP:FB CYC:10131
C947 86 00    STX $00			A:6B X:1F Y:00 P:3C SP:FB CYC:10133
C949 EA       NOP 			A:6B X:1F Y:00 P:3C SP:FB CYC:10136
C94A D8       CLD 			A:6B X:1F Y:00 P:3C SP:FB CYC:10138
C94B 38       SEC 			A:6B X:1F Y:00 P:34 SP:FB CYC:10140
C94C B8       CLV 			A:6B X:1F Y:00 P:35 SP:FB CYC:10142
C94D A9 7F    LDA #$7F			A:6B X:1F Y:00 P:35 SP:FB CYC:10144
C94F 69 7F    ADC #$7F			A:7F X:1F Y:00 P:35 SP:FB CYC:10146
C951 10 0B    BPL $C95E			A:FF X:1F Y:00 P:F4 SP:FB CYC:10148
C953 B0 09    BCS $C95E			A:FF X:1F Y:00 P:F4 SP:FB CYC:10151
C955 C9 FF    CMP #$FF			A:FF X:1F Y:00 P:F4 SP:FB CYC:10152
C957 D0 05    BNE $C95E			A:FF X:1F Y:00 P:F4 SP:FB CYC:10154
C95E A2 20    LDX #$20			A:FF X:1F Y:00 P:F4 SP:FB CYC:10157
C960 86 00    STX $00			A:FF X:20 Y:00 P:74 SP:FB CYC:10159
C962 EA       NOP 			A:FF X:20 Y:00 P:74 SP:FB CYC:10162
C963 18       CLC 			A:FF X:20 Y:00 P:74 SP:FB CYC:10164
C964 24 01    BIT $01			A:FF X:20 Y:00 P:74 SP:FB CYC:10166
C966 A9 7F    LDA #$7F			A:FF X:20 Y:00 P:F4 SP:FB CYC:10169
C968 69 80    ADC #$80			A:7F X:20 Y:00 P:74 SP:FB CYC:10171
C96A 10 0B    BPL $C977			A:FF X:20 Y:00 P:B4 SP:FB CYC:10173
C96C B0 09    BCS $C977			A:FF X:20 Y:00 P:B4 SP:FB CYC:10176
C96E C9 FF    CMP #$FF			A:FF X:20 Y:00 P:B4 SP:FB CYC:10177
C970 D0 05    BNE $C977			A:FF X:20 Y:00 P:B4 SP:FB CYC:10179
C977 A2 21    LDX #$21			A:FF X:20 Y:00 P:B4 SP:FB CYC:10182
C979 86 00    STX $00			A:FF X:21 Y:00 P:34 SP:FB CYC:10184
C97B EA       NOP 			A:FF X:21 Y:00 P:34 SP:FB CYC:10187
C97C 38       SEC 			A:FF X:21 Y:00 P:34 SP:FB CYC:10189
C97D B8       CLV 			A:FF X:21 Y:00 P:35 SP:FB CYC:10191
C97E A9 7F    LDA #$7F			A:FF X:21 Y:00 P:35 SP:FB CYC:10193
C980 69 80    ADC #$80			A:7F X:21 Y:00 P:35 SP:FB CYC:10195
C982 D0 09    BNE $C98D			A:00 X:21 Y:00 P:37 SP:FB CYC:10197
C984 30 07    BMI $C98D			A:00 X:21 Y:00 P:37 SP:FB CYC:10200
C986 70 05    BVS $C98D			A:00 X:21 Y:00 P:37 SP:FB CYC:10201
C988 90 03    BCC $C98D			A:00 X:21 Y:00 P:37 SP:FB CYC:10204
C98A 4C 91 C9 JMP $C991			A:00 X:21 Y:00 P:37 SP:FB CYC:10205
C991 EA       NOP 			A:00 X:21 Y:00 P:37 SP:FB CYC:10208
C992 38       SEC 			A:00 X:21 Y:00 P:37 SP:FB CYC:10210
C993 B8       CLV 			A:00 X:21 Y:00 P:37 SP:FB CYC:10212
C994 A9 9F    LDA #$9F			A:00 X:21 Y:00 P:37 SP:FB CYC:10214
C996 F0 09    BEQ $C9A1			A:9F X:21 Y:00 P:B5 SP:FB CYC:10216
C998 10 07    BPL $C9A1			A:9F X:21 Y:00 P:B5 SP:FB CYC:10219
C99A 70 05    BVS $C9A1			A:9F X:21 Y:00 P:B5 SP:FB CYC:10220
C99C 90 03    BCC $C9A1			A:9F X:21 Y:00 P:B5 SP:FB CYC:10223
C99E 4C A5 C9 JMP $C9A5			A:9F X:21 Y:00 P:B5 SP:FB CYC:10224
C9A5 EA       NOP 			A:9F X:21 Y:00 P:B5 SP:FB CYC:10227
C9A6 18       CLC 			A:9F X:21 Y:00 P:B5 SP:FB CYC:10229
C9A7 24 01    BIT $01			A:9F X:21 Y:00 P:B4 SP:FB CYC:10231
C9A9 A9 00    LDA #$00			A:9F X:21 Y:00 P:F4 SP:FB CYC:10234
C9AB D0 09    BNE $C9B6			A:00 X:21 Y:00 P:76 SP:FB CYC:10236
C9AD 30 07    BMI $C9B6			A:00 X:21 Y:00 P:76 SP:FB CYC:10239
C9AF 50 05    BVC $C9B6			A:00 X:21 Y:00 P:76 SP:FB CYC:10240
C9B1 B0 03    BCS $C9B6			A:00 X:21 Y:00 P:76 SP:FB CYC:10243
C9B3 4C BA C9 JMP $C9BA			A:00 X:21 Y:00 P:76 SP:FB CYC:10244
C9BA EA       NOP 			A:00 X:21 Y:00 P:76 SP:FB CYC:10247
C9BB 24 01    BIT $01			A:00 X:21 Y:00 P:76 SP:FB CYC:10249
C9BD A9 40    LDA #$40			A:00 X:21 Y:00 P:F6 SP:FB CYC:10252
C9BF C9 40    CMP #$40			A:40 X:21 Y:00 P:74 SP:FB CYC:10254
C9C1 30 09    BMI $C9CC			A:40 X:21 Y:00 P:F4 SP:FB CYC:10256
C9CC A2 24    LDX #$24			A:40 X:21 Y:00 P:F4 SP:FB CYC:10259
C9CE 86 00    STX $00			A:40 X:24 Y:00 P:74 SP:FB CYC:10261
C9D0 EA       NOP 			A:40 X:24 Y:00 P:74 SP:FB CYC:10264
C9D1 B8       CLV 			A:40 X:24 Y:00 P:74 SP:FB CYC:10266
C9D2 C9 3F    CMP #$3F			A:40 X:24 Y:00 P:34 SP:FB CYC:10268
C9D4 F0 09    BEQ $C9DF			A:40 X:24 Y:00 P:37 SP:FB CYC:10270
C9DF A2 25    LDX #$25			A:40 X:24 Y:00 P:37 SP:FB CYC:10273
C9E1 86 00    STX $00			A:40 X:25 Y:00 P:35 SP:FB CYC:10275
C9E3 EA       NOP 			A:40 X:25 Y:00 P:35 SP:FB CYC:10278
C9E4 C9 41    CMP #$41			A:40 X:25 Y:00 P:35 SP:FB CYC:10280
C9E6 F0 07    BEQ $C9EF			A:40 X:25 Y:00 P:B4 SP:FB CYC:10282
C9E8 10 05    BPL $C9EF			A:40 X:25 Y:00 P:B4 SP:FB CYC:10285
C9EA 10 03    BPL $C9EF			A:40 X:25 Y:00 P:B4 SP:FB CYC:10286
C9EC 4C F3 C9 JMP $C9F3			A:40 X:25 Y:00 P:B4 SP:FB CYC:10288
C9F3 EA       NOP 			A:40 X:25 Y:00 P:B4 SP:FB CYC:10291
C9F4 A9 80    LDA #$80			A:40 X:25 Y:00 P:B4 SP:FB CYC:10293
C9F6 C9 00    CMP #$00			A:80 X:25 Y:00 P:B4 SP:FB CYC:10295
C9F8 F0 07    BEQ $CA01			A:80 X:25 Y:00 P:35 SP:FB CYC:10297
C9FA 10 05    BPL $CA01			A:80 X:25 Y:00 P:35 SP:FB CYC:10299
C903 A9 70    LDA #$70			A:80 X:25 Y:00 P:35 SP:FB CYC:10302
C905 49 70    EOR #$70			A:70 X:25 Y:00 P:35 SP:FB CYC:10304
C907 D0 09    BNE $C912			A:00 X:25 Y:00 P:37 SP:FB CYC:10306
C909 70 07    BVS $C912			A:00 X:25 Y:00 P:37 SP:FB CYC:10309
C90B 90 05    BCC $C912			A:00 X:25 Y:00 P:37 SP:FB CYC:10310
C90D 30 03    BMI $C912			A:00 X:25 Y:00 P:37 SP:FB CYC:10313
C90F 4C 16 C9 JMP $C916			A:00 X:25 Y:00 P:37 SP:FB CYC:10314
C916 EA       NOP 			A:00 X:25 Y:00 P:37 SP:FB CYC:10317
C917 18       CLC 			A:00 X:25 Y:00 P:37 SP:FB CYC:10319
C918 24 01    BIT $01			A:00 X:25 Y:00 P:36 SP:FB CYC:10321
C91A A9 00    LDA #$00			A:00 X:25 Y:00 P:F6 SP:FB CYC:10324
C91C 69 69    ADC #$69			A:00 X:25 Y:00 P:76 SP:FB CYC:10326
C91E 30 0B    BMI $C92B			A:69 X:25 Y:00 P:34 SP:FB CYC:10328
C920 B0 09    BCS $C92B			A:69 X:25 Y:00 P:34 SP:FB CYC:10331
C922 C9 69    CMP #$69			A:69 X:25 Y:00 P:34 SP:FB CYC:10332
C924 D0 05    BNE $C92B			A:69 X:25 Y:00 P:B4 SP:FB CYC:10334
C92B A2 1E    LDX #$1E			A:69 X:25 Y:00 P:B4 SP:FB CYC:10337
C92D 86 00    STX $00			A:69 X:1E Y:00 P:34 SP:FB CYC:10339
C92F EA       NOP 			A:69 X:1E Y:00 P:34 SP:FB CYC:10342
C930 38       SEC 			A:69 X:1E Y:00 P:34 SP:FB CYC:10344
C931 F8       SED 			A:69 X:1E Y:00 P:35 SP:FB CYC:10346
C932 24 01    BIT $01			A:69 X:1E Y:00 P:3D SP:FB CYC:10348
C934 A9 01    LDA #$01			A:69 X:1E Y:00 P:FD SP:FB CYC:10351
C936 69 69    ADC #$69			A:01 X:1E Y:00 P:7D SP:FB CYC:10353
C938 30 0B    BMI $C945			A:6B X:1E Y:00 P:3C SP:FB CYC:10355
C93A B0 09    BCS $C945			A:6B X:1E Y:00 P:3C SP:FB CYC:10358
C93C C9 6B    CMP #$6B			A:6B X:1E Y:00 P:3C SP:FB CYC:10359
C93E D0 05    BNE $C945			A:6B X:1E Y:00 P:BC SP:FB CYC:10361
C945 A2 1F    LDX #$1F			A:6B X:1E Y:00 P:BC SP:FB CYC:10364
C947 86 00    STX $00			A:6B X:1F Y:00 P:3C SP:FB CYC:10366
C949 EA       NOP 			A:6B X:1F Y:00 P:3C SP:FB CYC:10369
C94A D8       CLD 			A:6B X:1F Y:00 P:3C SP:FB CYC:10371
C94B 38       SEC 			A:6B X:1F Y:00 P:34 SP:FB CYC:10373
C94C B8       CLV 			A:6B X:1F Y:00 P:35 SP:FB CYC:10375
C94D A9 7F    LDA #$7F			A:6B X:1F Y:00 P:35 SP:FB CYC:10377
C94F 69 7F    ADC #$7F			A:7F X:1F Y:00 P:35 SP:FB CYC:10379
C951 10 0B    BPL $C95E			A:FF X:1F Y:00 P:F4 SP:FB CYC:10381
C953 B0 09    BCS $C95E			A:FF X:1F Y:00 P:F4 SP:FB CYC:10384
C955 C9 FF    CMP #$FF			A:FF X:1F Y:00 P:F4 SP:FB CYC:10385
C957 D0 05    BNE $C95E			A:FF X:1F Y:00 P:F4 SP:FB CYC:10387
C95E A2 20    LDX #$20			A:FF X:1F Y:00 P:F4 SP:FB CYC:10390
C960 86 00    STX $00			A:FF X:20 Y:00 P:74 SP:FB CYC:10392
C962 EA       NOP 			A:FF X:20 Y:00 P:74 SP:FB CYC:10395
C963 18       CLC 			A:FF X:20 Y:00 P:74 SP:FB CYC:10397
C964 24 01    BIT $01			A:FF X:20 Y:00 P:74 SP:FB CYC:10399
C966 A9 7F    LDA #$7F			A:FF X:20 Y:00 P:F4 SP:FB CYC:10402
C968 69 80    ADC #$80			A:7F X:20 Y:00 P:74 SP:FB CYC:10404
C96A 10 0B    BPL $C977			A:FF X:20 Y:00 P:B4 SP:FB CYC:10406
C96C B0 09    BCS $C977			A:FF X:20 Y:00 P:B4 SP:FB CYC:10409
C96E C9 FF    CMP #$FF			A:FF X:20 Y:00 P:B4 SP:FB CYC:10410
C970 D0 05    BNE $C977			A:FF X:20 Y:00 P:B4 SP:FB CYC:10412
C977 A2 21    LDX #$21			A:FF X:20 Y:00 P:B4 SP:FB CYC:10415
C979 86 00    STX $00			A:FF X:21 Y:00 P:34 SP:FB CYC:10417
C97B EA       NOP 			A:FF X:21 Y:00 P:34 SP:FB CYC:10420
C97C 38       SEC 			A:FF X:21 Y:00 P:34 SP:FB CYC:10422
C97D B8       CLV 			A:FF X:21 Y:00 P:35 SP:FB CYC:10424
C97E A9 7F    LDA #$7F			A:FF X:21 Y:00 P:35 SP:FB CYC:10426
C980 69 80    ADC #$80			A:7F X:21 Y:00 P:35 SP:FB CYC:10428
C982 D0 09    BNE $C98D			A:00 X:21 Y:00 P:37 SP:FB CYC:10430
C984 30 07    BMI $C98D			A:00 X:21 Y:00 P:37 SP:FB CYC:10433
C986 70 05    BVS $C98D			A:00 X:21 Y:00 P:37 SP:FB CYC:10434
C988 90 03    BCC $C98D			A:00 X:21 Y:00 P:37 SP:FB CYC:10437
C98A 4C 91 C9 JMP $C991			A:00 X:21 Y:00 P:37 SP:FB CYC:10438
C991 EA       NOP 			A:00 X:21 Y:00 P:37 SP:FB CYC:10441
C992 38       SEC 			A:00 X:21 Y:00 P:37 SP:FB CYC:10443
C993 B8       CLV 			A:00 X:21 Y:00 P:37 SP:FB CYC:10445
C994 A9 9F    LDA #$9F			A:00 X:21 Y:00 P:37 SP:FB CYC:10447
C996 F0 09    BEQ $C9A1			A:9F X:21 Y:00 P:B5 SP:FB CYC:10449
C998 10 07    BPL $C9A1			A:9F X:21 Y:00 P:B5 SP:FB CYC:10452
C99A 70 05    BVS $C9A1			A:9F X:21 Y:00 P:B5 SP:FB CYC:10453
C99C 90 03    BCC $C9A1			A:9F X:21 Y:00 P:B5 SP:FB CYC:10456
C99E 4C A5 C9 JMP $C9A5			A:9F X:21 Y:00 P:B5 SP:FB CYC:10457
C9A5 EA       NOP 			A:9F X:21 Y:00 P:B5 SP:FB CYC:10460
C9A6 18       CLC 			A:9F X:21 Y:00 P:B5 SP:FB CYC:10462
C9A7 24 01    BIT $01			A:9F X:21 Y:00 P:B4 SP:FB CYC:10464
C9A9 A9 00    LDA #$00			A:9F X:21 Y:00 P:F4 SP:FB CYC:10467
C9AB D0 09    BNE $C9B6			A:00 X:21 Y:00 P:76 SP:FB CYC:10469
C9AD 30 07    BMI $C9B6			A:00 X:21 Y:00 P:76 SP:FB CYC:10472
C9AF 50 05    BVC $C9B6			A:00 X:21 Y:00 P:76 SP:FB CYC:10473
C9B1 B0 03    BCS $C9B6			A:00 X:21 Y:00 P:76 SP:FB CYC:10476
C9B3 4C BA C9 JMP $C9BA			A:00 X:21 Y:00 P:76 SP:FB CYC:10477
C9BA EA       NOP 			A:00 X:21 Y:00 P:76 SP:FB CYC:10480
C9BB 24 01    BIT $01			A:00 X:21 Y:00 P:76 SP:FB CYC:10482
C9BD A9 40    LDA #$40			A:00 X:21 Y:00 P:F6 SP:FB CYC:10485
C9BF C9 40    CMP #$40			A:40 X:21 Y:00 P:74 SP:FB CYC:10487
C9C1 30 09    BMI $C9CC			A:40 X:21 Y:00 P:F4 SP:FB CYC:10489
C9CC A2 24    LDX #$24			A:40 X:21 Y:00 P:F4 SP:FB CYC:10492
C9CE 86 00    STX $00			A:40 X:24 Y:00 P:74 SP:FB CYC:10494
C9D0 EA       NOP 			A:40 X:24 Y:00 P:74 SP:FB CYC:10497
C9D1 B8       CLV 			A:40 X:24 Y:00 P:74 SP:FB CYC:10499
C9D2 C9 3F    CMP #$3F			A:40 X:24 Y:00 P:34 SP:FB CYC:10501
C9D4 F0 09    BEQ $C9DF			A:40 X:24 Y:00 P:37 SP:FB CYC:10503
C9DF A2 25    LDX #$25			A:40 X:24 Y:00 P:37 SP:FB CYC:10506
C9E1 86 00    STX $00			A:40 X:25 Y:00 P:35 SP:FB CYC:10508
C9E3 EA       NOP 			A:40 X:25 Y:00 P:35 SP:FB CYC:10511
C9E4 C9 41    CMP #$41			A:40 X:25 Y:00 P:35 SP:FB CYC:10513
C9E6 F0 07    BEQ $C9EF			A:40 X:25 Y:00 P:B4 SP:FB CYC:10515
C9E8 10 05    BPL $C9EF			A:40 X:25 Y:00 P:B4 SP:FB CYC:10518
C9EA 10 03    BPL $C9EF			A:40 X:25 Y:00 P:B4 SP:FB CYC:10519
C9EC 4C F3 C9 JMP $C9F3			A:40 X:25 Y:00 P:B4 SP:FB CYC:10521
C9F3 EA       NOP 			A:40 X:25 Y:00 P:B4 SP:FB CYC:10524
C9F4 A9 80    LDA #$80			A:40 X:25 Y:00 P:B4 SP:FB CYC:10526
C9F6 C9 00    CMP #$00			A:80 X:25 Y:00 P:B4 SP:FB CYC:10528
C9F8 F0 07    BEQ $CA01			A:80 X:25 Y:00 P:35 SP:FB CYC:10530
C9FA 10 05    BPL $CA01			A:80 X:25 Y:00 P:35 SP:FB CYC:10532
C903 A9 70    LDA #$70			A:80 X:25 Y:00 P:35 SP:FB CYC:10535
C905 49 70    EOR #$70			A:70 X:25 Y:00 P:35 SP:FB CYC:10537
C907 D0 09    BNE $C912			A:00 X:25 Y:00 P:37 SP:FB CYC:10539
C909 70 07    BVS $C912			A:00 X:25 Y:00 P:37 SP:FB CYC:10542
C90B 90 05    BCC $C912			A:00 X:25 Y:00 P:37 SP:FB CYC:10543
C90D 30 03    BMI $C912			A:00 X:25 Y:00 P:37 SP:FB CYC:10546
C90F 4C 16 C9 JMP $C916			A:00 X:25 Y:00 P:37 SP:FB CYC:10547
C916 EA       NOP 			A:00 X:25 Y:00 P:37 SP:FB CYC:10550
C917 18       CLC 			A:00 X:25 Y:00 P:37 SP:FB CYC:10552
C918 24 01    BIT $01			A:00 X:25 Y:00 P:36 SP:FB CYC:10554
C91A A9 00    LDA #$00			A:00 X:25 Y:00 P:F6 SP:FB CYC:10557
C91C 69 69    ADC #$69			A:00 X:25 Y:00 P:76 SP:FB CYC:10559
C91E 30 0B    BMI $C92B			A:69 X:25 Y:00 P:34 SP:FB CYC:10561
C920 B0 09    BCS $C92B			A:69 X:25 Y:00 P:34 SP:FB CYC:10564
C922 C9 69    CMP #$69			A:69 X:25 Y:00 P:34 SP:FB CYC:10565
C924 D0 05    BNE $C92B			A:69 X:25 Y:00 P:B4 SP:FB CYC:10567
C92B A2 1E    LDX #$1E			A:69 X:25 Y:00 P:B4 SP:FB CYC:10570
C92D 86 00    STX $00			A:69 X:1E Y:00 P:34 SP:FB CYC:10572
C92F EA       NOP 			A:69 X:1E Y:00 P:34 SP:FB CYC:10575
C930 38       SEC 			A:69 X:1E Y:00 P:34 SP:FB CYC:10577
C931 F8       SED 			A:69 X:1E Y:00 P:35 SP:FB CYC:10579
C932 24 01    BIT $01			A:69 X:1E Y:00 P:3D SP:FB CYC:10581
C934 A9 01    LDA #$01			A:69 X:1E Y:00 P:FD SP:FB CYC:10584
C936 69 69    ADC #$69			A:01 X:1E Y:00 P:7D SP:FB CYC:10586
C938 30 0B    BMI $C945			A:6B X:1E Y:00 P:3C SP:FB CYC:10588
C93A B0 09    BCS $C945			A:6B X:1E Y:00 P:3C SP:FB CYC:10591
C93C C9 6B    CMP #$6B			A:6B X:1E Y:00 P:3C SP:FB CYC:10592
C93E D0 05    BNE $C945			A:6B X:1E Y:00 P:BC SP:FB CYC:10594
C945 A2 1F    LDX #$1F			A:6B X:1E Y:00 P:BC SP:FB CYC:10597
C947 86 00    STX $00			A:6B X:1F Y:00 P:3C SP:FB CYC:10599
C949 EA       NOP 			A:6B X:1F Y:00 P:3C SP:FB CYC:10602
C94A D8       CLD 			A:6B X:1F Y:00 P:3C SP:FB CYC:10604
C94B 38       SEC 			A:6B X:1F Y:00 P:34 SP:FB CYC:10606
C94C B8       CLV 			A:6B X:1F Y:00 P:35 SP:FB CYC:10608
C94D A9 7F    LDA #$7F			A:6B X:1F Y:00 P:35 SP:FB CYC:10610
C94F 69 7F    ADC #$7F			A:7F X:1F Y:00 P:35 SP:FB CYC:10612
C951 10 0B    BPL $C95E			A:FF X:1F Y:00 P:F4 SP:FB CYC:10614
C953 B0 09    BCS $C95E			A:FF X:1F Y:00 P:F4 SP:FB CYC:10617
C955 C9 FF    CMP #$FF			A:FF X:1F Y:00 P:F4 SP:FB CYC:10618
C957 D0 05    BNE $C95E			A:FF X:1F Y:00 P:F4 SP:FB CYC:10620
C95E A2 20    LDX #$20			A:FF X:1F Y:00 P:F4 SP:FB CYC:10623
C960 86 00    STX $00			A:FF X:20 Y:00 P:74 SP:FB CYC:10625
C962 EA       NOP 			A:FF X:20 Y:00 P:74 SP:FB CYC:10628
C963 18       CLC 			A:FF X:20 Y:00 P:74 SP:FB CYC:10630
C964 24 01    BIT $01			A:FF X:20 Y:00 P:74 SP:FB CYC:10632
C966 A9 7F    LDA #$7F			A:FF X:20 Y:00 P:F4 SP:FB CYC:10635
C968 69 80    ADC #$80			A:7F X:20 Y:00 P:74 SP:FB CYC:10637
C96A 10 0B    BPL $C977			A:FF X:20 Y:00 P:B4 SP:FB CYC:10639
C96C B0 09    BCS $C977			A:FF X:20 Y:00 P:B4 SP:FB CYC:10642
C96E C9 FF    CMP #$FF			A:FF X:20 Y:00 P:B4 SP:FB CYC:10643
C970 D0 05    BNE $C977			A:FF X:20 Y:00 P:B4 SP:FB CYC:10645
C977 A2 21    LDX #$21			A:FF X:20 Y:00 P:B4 SP:FB CYC:10648
C979 86 00    STX $00			A:FF X:21 Y:00 P:34 SP:FB CYC:10650
C97B EA       NOP 			A:FF X:21 Y:00 P:34 SP:FB CYC:10653
C97C 38       SEC 			A:FF X:21 Y:00 P:34 SP:FB CYC:10655
C97D B8       CLV 			A:FF X:21 Y:00 P:35 SP:FB CYC:10657
C97E A9 7F    LDA #$7F			A:FF X:21 Y:00 P:35 SP:FB CYC:10659
C980 69 80    ADC #$80			A:7F X:21 Y:00 P:35 SP:FB CYC:10661
C982 D0 09    BNE $C98D			A:00 X:21 Y:00 P:37 SP:FB CYC:10663
C984 30 07    BMI $C98D			A:00 X:21 Y:00 P:37 SP:FB CYC:10666
C986 70 05    BVS $C98D			A:00 X:21 Y:00 P:37 SP:FB CYC:10667
C988 90 03    BCC $C98D			A:00 X:21 Y:00 P:37 SP:FB CYC:10670
C98A 4C 91 C9 JMP $C991			A:00 X:21 Y:00 P:37 SP:FB CYC:10671
C991 EA       NOP 			A:00 X:21 Y:00 P:37 SP:FB CYC:10674
C992 38       SEC 			A:00 X:21 Y:00 P:37 SP:FB CYC:10676
C993 B8       CLV 			A:00 X:21 Y:00 P:37 SP:FB CYC:10678
C994 A9 9F    LDA #$9F			A:00 X:21 Y:00 P:37 SP:FB CYC:10680
C996 F0 09    BEQ $C9A1			A:9F X:21 Y:00 P:B5 SP:FB CYC:10682
C998 10 07    BPL $C9A1			A:9F X:21 Y:00 P:B5 SP:FB CYC:10685
C99A 70 05    BVS $C9A1			A:9F X:21 Y:00 P:B5 SP:FB CYC:10686
C99C 90 03    BCC $C9A1			A:9F X:21 Y:00 P:B5 SP:FB CYC:10689
C99E 4C A5 C9 JMP $C9A5			A:9F X:21 Y:00 P:B5 SP:FB CYC:10690
C9A5 EA       NOP 			A:9F X:21 Y:00 P:B5 SP:FB CYC:10693
C9A6 18       CLC 			A:9F X:21 Y:00 P:B5 SP:FB CYC:10695
C9A7 24 01    BIT $01			A:9F X:21 Y:00 P:B4 SP:FB CYC:10697
C9A9 A9 00    LDA #$00			A:9F X:21 Y:00 P:F4 SP:FB CYC:10700
C9AB D0 09    BNE $C9B6			A:00 X:21 Y:00 P:76 SP:FB CYC:10702
C9AD 30 07    BMI $C9B6			A:00 X:21 Y:00 P:76 SP:FB CYC:10705
C9AF 50 05    BVC $C9B6			A:00 X:21 Y:00 P:76 SP:FB CYC:10706
C9B1 B0 03    BCS $C9B6			A:00 X:21 Y:00 P:76 SP:FB CYC:10709
C9B3 4C BA C9 JMP $C9BA			A:00 X:21 Y:00 P:76 SP:FB CYC:10710
C9BA EA       NOP 			A:00 X:21 Y:00 P:76 SP:FB CYC:10713
C9BB 24 01    BIT $01			A:00 X:21 Y:00 P:76 SP:FB CYC:10715
C9BD A9 40    LDA #$40			A:00 X:21 Y:00 P:F6 SP:FB CYC:10718
C9BF C9 40    CMP #$40			A:40 X:21 Y:00 P:74 SP:FB CYC:10720
C9C1 30 09    BMI $C9CC			A:40 X:21 Y:00 P:F4 SP:FB CYC:10722
C9CC A2 24    LDX #$24			A:40 X:21 Y:00 P:F4 SP:FB CYC:10725
C9CE 86 00    STX $00			A:40 X:24 Y:00 P:74 SP:FB CYC:10727
C9D0 EA       NOP 			A:40 X:24 Y:00 P:74 SP:FB CYC:10730
C9D1 B8       CLV 			A:40 X:24 Y:00 P:74 SP:FB CYC:10732
C9D2 C9 3F    CMP #$3F			A:40 X:24 Y:00 P:34 SP:FB CYC:10734
C9D4 F0 09    BEQ $C9DF			A:40 X:24 Y:00 P:37 SP:FB CYC:10736
C9DF A2 25    LDX #$25			A:40 X:24 Y:00 P:37 SP:FB CYC:10739
C9E1 86 00    STX $00			A:40 X:25 Y:00 P:35 SP:FB CYC:10741
C9E3 EA       NOP 			A:40 X:25 Y:00 P:35 SP:FB CYC:10744
C9E4 C9 41    CMP #$41			A:40 X:25 Y:00 P:35 SP:FB CYC:10746
C9E6 F0 07    BEQ $C9EF			A:40 X:25 Y:00 P:B4 SP:FB CYC:10748
C9E8 10 05    BPL $C9EF			A:40 X:25 Y:00 P:B4 SP:FB CYC:10751
C9EA 10 03    BPL $C9EF			A:40 X:25 Y:00 P:B4 SP:FB CYC:10752
C9EC 4C F3 C9 JMP $C9F3			A:40 X:25 Y:00 P:B4 SP:FB CYC:10754
C9F3 EA       NOP 			A:40 X:25 Y:00 P:B4 SP:FB CYC:10757
C9F4 A9 80    LDA #$80			A:40 X:25 Y:00 P:B4 SP:FB CYC:10759
C9F6 C9 00    CMP #$00			A:80 X:25 Y:00 P:B4 SP:FB CYC:10761
C9F8 F0 07    BEQ $CA01			A:80 X:25 Y:00 P:35 SP:FB CYC:10763
C9FA 10 05    BPL $CA01			A:80 X:25 Y:00 P:35 SP:FB CYC:10765
C903 A9 70    LDA #$70			A:80 X:25 Y:00 P:35 SP:FB CYC:10768
C905 49 70    EOR #$70			A:70 X:25 Y:00 P:35 SP:FB CYC:10770
C907 D0 09    BNE $C912			A:00 X:25 Y:00 P:37 SP:FB CYC:10772
C909 70 07    BVS $C912			A:00 X:25 Y:00 P:37 SP:FB CYC:10775
C90B 90 05    BCC $C912			A:00 X:25 Y:00 P:37 SP:FB CYC:10776
C90D 30 03    BMI $C912			A:00 X:25 Y:00 P:37 SP:FB CYC:10779
C90F 4C 16 C9 JMP $C916			A:00 X:25 Y:00 P:37 SP:FB CYC:10780
C916 EA       NOP 			A:00 X:25 Y:00 P:37 SP:FB CYC:10783
C917 18       CLC 			A:00 X:25 Y:00 P:37 SP:FB CYC:10785
C918 24 01    BIT $01			A:00 X:25 Y:00 P:36 SP:FB CYC:10787
C91A A9 00    LDA #$00			A:00 X:25 Y:00 P:F6 SP:FB CYC:10790
C91C 69 69    ADC #$69			A:00 X:25 Y:00 P:76 SP:FB CYC:10792
C91E 30 0B    BMI $C92B			A:69 X:25 Y:00 P:34 SP:FB CYC:10794
C920 B0 09    BCS $C92B			A:69 X:25 Y:00 P:34 SP:FB CYC:10797
C922 C9 69    CMP #$69			A:69 X:25 Y:00 P:34 SP:FB CYC:10798
C924 D0 05    BNE $C92B			A:69 X:25 Y:00 P:B4 SP:FB CYC:10800
C92B A2 1E    LDX #$1E			A:69 X:25 Y:00 P:B4 SP:FB CYC:10803
C92D 86 00    STX $00			A:69 X:1E Y:00 P:34 SP:FB CYC:10805
C92F EA       NOP 			A:69 X:1E Y:00 P:34 SP:FB CYC:10808
C930 38       SEC 			A:69 X:1E Y:00 P:34 SP:FB CYC:10810
C931 F8       SED 			A:69 X:1E Y:00 P:35 SP:FB CYC:10812
C932 24 01    BIT $01			A:69 X:1E Y:00 P:3D SP:FB CYC:10814
C934 A9 01    LDA #$01			A:69 X:1E Y:00 P:FD SP:FB CYC:10817
C936 69 69    ADC #$69			A:01 X:1E Y:00 P:7D SP:FB CYC:10819
C938 30 0B    BMI $C945			A:6B X:1E Y:00 P:3C SP:FB CYC:10821
C93A B0 09    BCS $C945			A:6B X:1E Y:00 P:3C SP:FB CYC:10824
C93C C9 6B    CMP #$6B			A:6B X:1E Y:00 P:3C SP:FB CYC:10825
C93E D0 05    BNE $C945			A:6B X:1E Y:00 P:BC SP:FB CYC:10827
C945 A2 1F    LDX #$1F			A:6B X:1E Y:00 P:BC SP:FB CYC:10830
C947 86 00    STX $00			A:6B X:1F Y:00 P:3C SP:FB CYC:10832
C949 EA       NOP 			A:6B X:1F Y:00 P:3C SP:FB CYC:10835
C94A D8       CLD 			A:6B X:1F Y:00 P:3C SP:FB CYC:10837
C94B 38       SEC 			A:6B X:1F Y:00 P:34 SP:FB CYC:10839
C94C B8       CLV 			A:6B X:1F Y:00 P:35 SP:FB CYC:10841
C94D A9 7F    LDA #$7F			A:6B X:1F Y:00 P:35 SP:FB CYC:10843
C94F 69 7F    ADC #$7F			A:7F X:1F Y:00 P:35 SP:FB CYC:10845
C951 10 0B    BPL $C95E			A:FF X:1F Y:00 P:F4 SP:FB CYC:10847
C953 B0 09    BCS $C95E			A:FF X:1F Y:00 P:F4 SP:FB CYC:10850
C955 C9 FF    CMP #$FF			A:FF X:1F Y:00 P:F4 SP:FB CYC:10851
C957 D0 05    BNE $C95E			A:FF X:1F Y:00 P:F4 SP:FB CYC:10853
C95E A2 20    LDX #$20			A:FF X:1F Y:00 P:F4 SP:FB CYC:10856
C960 86 00    STX $00			A:FF X:20 Y:00 P:74 SP:FB CYC:10858
C962 EA       NOP 			A:FF X:20 Y:00 P:74 SP:FB CYC:10861
C963 18       CLC 			A:FF X:20 Y:00 P:74 SP:FB CYC:10863
C964 24 01    BIT $01			A:FF X:20 Y:00 P:74 SP:FB CYC:10865
C966 A9 7F    LDA #$7F			A:FF X:20 Y:00 P:F4 SP:FB CYC:10868
C968 69 80    ADC #$80			A:7F X:20 Y:00 P:74 SP:FB CYC:10870
C96A 10 0B    BPL $C977			A:FF X:20 Y:00 P:B4 SP:FB CYC:10872
C96C B0 09    BCS $C977			A:FF X:20 Y:00 P:B4 SP:FB CYC:10875
C96E C9 FF    CMP #$FF			A:FF X:20 Y:00 P:B4 SP:FB CYC:10876
C970 D0 05    BNE $C977			A:FF X:20 Y:00 P:B4 SP:FB CYC:10878
C977 A2 21    LDX #$21			A:FF X:20 Y:00 P:B4 SP:FB CYC:10881
C979 86 00    STX $00			A:FF X:21 Y:00 P:34 SP:FB CYC:10883
C97B EA       NOP 			A:FF X:21 Y:00 P:34 SP:FB CYC:10886
C97C 38       SEC 			A:FF X:21 Y:00 P:34 SP:FB CYC:10888
C97D B8       CLV 			A:FF X:21 Y:00 P:35 SP:FB CYC:10890
C97E A9 7F    LDA #$7F			A:FF X:21 Y:00 P:35 SP:FB CYC:10892
C980 69 80    ADC #$80			A:7F X:21 Y:00 P:35 SP:FB CYC:10894
C982 D0 09    BNE $C98D			A:00 X:21 Y:00 P:37 SP:FB CYC:10896
C984 30 07    BMI $C98D			A:00 X:21 Y:00 P:37 SP:FB CYC:10899
C986 70 05    BVS $C98D			A:00 X:21 Y:00 P:37 SP:FB CYC:10900
C988 90 03    BCC $C98D			A:00 X:21 Y:00 P:37 SP:FB CYC:10903
C98A 4C 91 C9 JMP $C991			A:00 X:21 Y:00 P:37 SP:FB CYC:10904
C991 EA       NOP 			A:00 X:21 Y:00 P:37 SP:FB CYC:10907
C992 38       SEC 			A:00 X:21 Y:00 P:37 SP:FB CYC:10909
C993 B8       CLV 			A:00 X:21 Y:00 P:37 SP:FB CYC:10911
C994 A9 9F    LDA #$9F			A:00 X:21 Y:00 P:37 SP:FB CYC:10913
C996 F0 09    BEQ $C9A1			A:9F X:21 Y:00 P:B5 SP:FB CYC:10915
C998 10 07    BPL $C9A1			A:9F X:21 Y:00 P:B5 SP:FB CYC:10918
C99A 70 05    BVS $C9A1			A:9F X:21 Y:00 P:B5 SP:FB CYC:10919
C99C 90 03    BCC $C9A1			A:9F X:21 Y:00 P:B5 SP:FB CYC:10922
C99E 4C A5 C9 JMP $C9A5			A:9F X:21 Y:00 P:B5 SP:FB CYC:10923
C9A5 EA       NOP 			A:9F X:21 Y:00 P:B5 SP:FB CYC:10926
C9A6 18       CLC 			A:9F X:21 Y:00 P:B5 SP:FB CYC:10928
C9A7 24 01    BIT $01			A:9F X:21 Y:00 P:B4 SP:FB CYC:10930
C9A9 A9 00    LDA #$00			A:9F X:21 Y:00 P:F4 SP:FB CYC:10933
C9AB D0 09    BNE $C9B6			A:00 X:21 Y:00 P:76 SP:FB CYC:10935
C9AD 30 07    BMI $C9B6			A:00 X:21 Y:00 P:76 SP:FB CYC:10938
C9AF 50 05    BVC $C9B6			A:00 X:21 Y:00 P:76 SP:FB CYC:10939
C9B1 B0 03    BCS $C9B6			A:00 X:21 Y:00 P:76 SP:FB CYC:10942
C9B3 4C BA C9 JMP $C9BA			A:00 X:21 Y:00 P:76 SP:FB CYC:10943
C9BA EA       NOP 			A:00 X:21 Y:00 P:76 SP:FB CYC:10946
C9BB 24 01    BIT $01			A:00 X:21 Y:00 P:76 SP:FB CYC:10948
C9BD A9 40    LDA #$40			A:00 X:21 Y:00 P:F6 SP:FB CYC:10951
C9BF C9 40    CMP #$40			A:40 X:21 Y:00 P:74 SP:FB CYC:10953
C9C1 30 09    BMI $C9CC			A:40 X:21 Y:00 P:F4 SP:FB CYC:10955
C9CC A2 24    LDX #$24			A:40 X:21 Y:00 P:F4 SP:FB CYC:10958
C9CE 86 00    STX $00			A:40 X:24 Y:00 P:74 SP:FB CYC:10960
C9D0 EA       NOP 			A:40 X:24 Y:00 P:74 SP:FB CYC:10963
C9D1 B8       CLV 			A:40 X:24 Y:00 P:74 SP:FB CYC:10965
C9D2 C9 3F    CMP #$3F			A:40 X:24 Y:00 P:34 SP:FB CYC:10967
C9D4 F0 09    BEQ $C9DF			A:40 X:24 Y:00 P:37 SP:FB CYC:10969
C9DF A2 25    LDX #$25			A:40 X:24 Y:00 P:37 SP:FB CYC:10972
C9E1 86 00    STX $00			A:40 X:25 Y:00 P:35 SP:FB CYC:10974
C9E3 EA       NOP 			A:40 X:25 Y:00 P:35 SP:FB CYC:10977
C9E4 C9 41    CMP #$41			A:40 X:25 Y:00 P:35 SP:FB CYC:10979
C9E6 F0 07    BEQ $C9EF			A:40 X:25 Y:00 P:B4 SP:FB CYC:10981
C9E8 10 05    BPL $C9EF			A:40 X:25 Y:00 P:B4 SP:FB CYC:10984
C9EA 10 03    BPL $C9EF			A:40 X:25 Y:00 P:B4 SP:FB CYC:10985
C9EC 4C F3 C9 JMP $C9F3			A:40 X:25 Y:00 P:B4 SP:FB CYC:10987
C9F3 EA       NOP 			A:40 X:25 Y:00 P:B4 SP:FB CYC:10990
C9F4 A9 80    LDA #$80			A:40 X:25 Y:00 P:B4 SP:FB CYC:10992
C9F6 C9 00    CMP #$00			A:80 X:25 Y:00 P:B4 SP:FB CYC:10994
C9F8 F0 07    BEQ $CA01			A:80 X:25 Y:00 P:35 SP:FB CYC:10996
C9FA 10 05    BPL $CA01			A:80 X:25 Y:00 P:35 SP:FB CYC:10998
C903 A9 70    LDA #$70			A:80 X:25 Y:00 P:35 SP:FB CYC:11001
C905 49 70    EOR #$70			A:70 X:25 Y:00 P:35 SP:FB CYC:11003
C907 D0 09    BNE $C912			A:00 X:25 Y:00 P:37 SP:FB CYC:11005
C909 70 07    BVS $C912			A:00 X:25 Y:00 P:37 SP:FB CYC:11008
C90B 90 05    BCC $C912			A:00 X:25 Y:00 P:37 SP:FB CYC:11009
C90D 30 03    BMI $C912			A:00 X:25 Y:00 P:37 SP:FB CYC:11012
C90F 4C 16 C9 JMP $C916			A:00 X:25 Y:00 P:37 SP:FB CYC:11013
C916 EA       NOP 			A:00 X:25 Y:00 P:37 SP:FB CYC:11016
C917 18       CLC 			A:00 X:25 Y:00 P:37 SP:FB CYC:11018
C918 24 01    BIT $01			A:00 X:25 Y:00 P:36 SP:FB CYC:11020
C91A A9 00    LDA #$00			A:00 X:25 Y:00 P:F6 SP:FB CYC:11023
C91C 69 69    ADC #$69			A:00 X:25 Y:00 P:76 SP:FB CYC:11025
C91E 30 0B    BMI $C92B			A:69 X:25 Y:00 P:34 SP:FB CYC:11027
C920 B0 09    BCS $C92B			A:69 X:25 Y:00 P:34 SP:FB CYC:11030
C922 C9 69    CMP #$69			A:69 X:25 Y:00 P:34 SP:FB CYC:11031
C924 D0 05    BNE $C92B			A:69 X:25 Y:00 P:B4 SP:FB CYC:11033
C92B A2 1E    LDX #$1E			A:69 X:25 Y:00 P:B4 SP:FB CYC:11036
C92D 86 00    STX $00			A:69 X:1E Y:00 P:34 SP:FB CYC:11038
C92F EA       NOP 			A:69 X:1E Y:00 P:34 SP:FB CYC:11041
C930 38       SEC 			A:69 X:1E Y:00 P:34 SP:FB CYC:11043
C931 F8       SED 			A:69 X:1E Y:00 P:35 SP:FB CYC:11045
C932 24 01    BIT $01			A:69 X:1E Y:00 P:3D SP:FB CYC:11047
C934 A9 01    LDA #$01			A:69 X:1E Y:00 P:FD SP:FB CYC:11050
C936 69 69    ADC #$69			A:01 X:1E Y:00 P:7D SP:FB CYC:11052
C938 30 0B    BMI $C945			A:6B X:1E Y:00 P:3C SP:FB CYC:11054
C93A B0 09    BCS $C945			A:6B X:1E Y:00 P:3C SP:FB CYC:11057
C93C C9 6B    CMP #$6B			A:6B X:1E Y:00 P:3C SP:FB CYC:11058
C93E D0 05    BNE $C945			A:6B X:1E Y:00 P:BC SP:FB CYC:11060
C945 A2 1F    LDX #$1F			A:6B X:1E Y:00 P:BC SP:FB CYC:11063
C947 86 00    STX $00			A:6B X:1F Y:00 P:3C SP:FB CYC:11065
C949 EA       NOP 			A:6B X:1F Y:00 P:3C SP:FB CYC:11068
C94A D8       CLD 			A:6B X:1F Y:00 P:3C SP:FB CYC:11070
C94B 38       SEC 			A:6B X:1F Y:00 P:34 SP:FB CYC:11072
C94C B8       CLV 			A:6B X:1F Y:00 P:35 SP:FB CYC:11074
C94D A9 7F    LDA #$7F			A:6B X:1F Y:00 P:35 SP:FB CYC:11076
C94F 69 7F    ADC #$7F			A:7F X:1F Y:00 P:35 SP:FB CYC:11078
C951 10 0B    BPL $C95E			A:FF X:1F Y:00 P:F4 SP:FB CYC:11080
C953 B0 09    BCS $C95E			A:FF X:1F Y:00 P:F4 SP:FB CYC:11083
C955 C9 FF    CMP #$FF			A:FF X:1F Y:00 P:F4 SP:FB CYC:11084
C957 D0 05    BNE $C95E			A:FF X:1F Y:00 P:F4 SP:FB CYC:11086
C95E A2 20    LDX #$20			A:FF X:1F Y:00 P:F4 SP:FB CYC:11089
C960 86 00    STX $00			A:FF X:20 Y:00 P:74 SP:FB CYC:11091
C962 EA       NOP 			A:FF X:20 Y:00 P:74 SP:FB CYC:11094
C963 18       CLC 			A:FF X:20 Y:00 P:74 SP:FB CYC:11096
C964 24 01    BIT $01			A:FF X:20 Y:00 P:74 SP:FB CYC:11098
C966 A9 7F    LDA #$7F			A:FF X:20 Y:00 P:F4 SP:FB CYC:11101
C968 69 80    ADC #$80			A:7F X:20 Y:00 P:74 SP:FB CYC:11103
C96A 10 0B    BPL $C977			A:FF X:20 Y:00 P:B4 SP:FB CYC:11105
C96C B0 09    BCS $C977			A:FF X:20 Y:00 P:B4 SP:FB CYC:11108
C96E C9 FF    CMP #$FF			A:FF X:20 Y:00 P:B4 SP:FB CYC:11109
C970 D0 05    BNE $C977			A:FF X:20 Y:00 P:B4 SP:FB CYC:11111
C977 A2 21    LDX #$21			A:FF X:20 Y:00 P:B4 SP:FB CYC:11114
C979 86 00    STX $00			A:FF X:21 Y:00 P:34 SP:FB CYC:11116
C97B EA       NOP 			A:FF X:21 Y:00 P:34 SP:FB CYC:11119
C97C 38       SEC 			A:FF X:21 Y:00 P:34 SP:FB CYC:11121
C97D B8       CLV 			A:FF X:21 Y:00 P:35 SP:FB CYC:11123
C97E A9 7F    LDA #$7F			A:FF X:21 Y:00 P:35 SP:FB CYC:11125
C980 69 80    ADC #$80			A:7F X:21 Y:00 P:35 SP:FB CYC:11127
C982 D0 09    BNE $C98D			A:00 X:21 Y:00 P:37 SP:FB CYC:11129
C984 30 07    BMI $C98D			A:00 X:21 Y:00 P:37 SP:FB CYC:11132
C986 70 05    BVS $C98D			A:00 X:21 Y:00 P:37 SP:FB CYC:11133
C988 90 03    BCC $C98D			A:00 X:21 Y:00 P:37 SP:FB CYC:11136
C98A 4C 91 C9 JMP $C991			A:00 X:21 Y:00 P:37 SP:FB CYC:11137
C991 EA       NOP 			A:00 X:21 Y:00 P:37 SP:FB CYC:11140
C992 38       SEC 			A:00 X:21 Y:00 P:37 SP:FB CYC:11142
C993 B8       CLV 			A:00 X:21 Y:00 P:37 SP:FB CYC:11144
C994 A9 9F    LDA #$9F			A:00 X:21 Y:00 P:37 SP:FB CYC:11146
C996 F0 09    BEQ $C9A1			A:9F X:21 Y:00 P:B5 SP:FB CYC:11148
C998 10 07    BPL $C9A1			A:9F X:21 Y:00 P:B5 SP:FB CYC:11151
C99A 70 05    BVS $C9A1			A:9F X:21 Y:00 P:B5 SP:FB CYC:11152
C99C 90 03    BCC $C9A1			A:9F X:21 Y:00 P:B5 SP:FB CYC:11155
C99E 4C A5 C9 JMP $C9A5			A:9F X:21 Y:00 P:B5 SP:FB CYC:11156
C9A5 EA       NOP 			A:9F X:21 Y:00 P:B5 SP:FB CYC:11159
C9A6 18       CLC 			A:9F X:21 Y:00 P:B5 SP:FB CYC:11161
C9A7 24 01    BIT $01			A:9F X:21 Y:00 P:B4 SP:FB CYC:11163
C9A9 A9 00    LDA #$00			A:9F X:21 Y:00 P:F4 SP:FB CYC:11166
C9AB D0 09    BNE $C9B6			A:00 X:21 Y:00 P:76 SP:FB CYC:11168
C9AD 30 07    BMI $C9B6			A:00 X:21 Y:00 P:76 SP:FB CYC:11171
C9AF 50 05    BVC $C9B6			A:00 X:21 Y:00 P:76 SP:FB CYC:11172
C9B1 B0 03    BCS $C9B6			A:00 X:21 Y:00 P:76 SP:FB CYC:11175
C9B3 4C BA C9 JMP $C9BA			A:00 X:21 Y:00 P:76 SP:FB CYC:11176
C9BA EA       NOP 			A:00 X:21 Y:00 P:76 SP:FB CYC:11179
C9BB 24 01    BIT $01			A:00 X:21 Y:00 P:76 SP:FB CYC:11181
C9BD A9 40    LDA #$40			A:00 X:21 Y:00 P:F6 SP:FB CYC:11184
C9BF C9 40    CMP #$40			A:40 X:21 Y:00 P:74 SP:FB CYC:11186
C9C1 30 09    BMI $C9CC			A:40 X:21 Y:00 P:F4 SP:FB CYC:11188
C9CC A2 24    LDX #$24			A:40 X:21 Y:00 P:F4 SP:FB CYC:11191
C9CE 86 00    STX $00			A:40 X:24 Y:00 P:74 SP:FB CYC:11193
C9D0 EA       NOP 			A:40 X:24 Y:00 P:74 SP:FB CYC:11196
C9D1 B8       CLV 			A:40 X:24 Y:00 P:74 SP:FB CYC:11198
C9D2 C9 3F    CMP #$3F			A:40 X:24 Y:00 P:34 SP:FB CYC:11200
C9D4 F0 09    BEQ $C9DF			A:40 X:24 Y:00 P:37 SP:FB CYC:11202
C9DF A2 25    LDX #$25			A:40 X:24 Y:00 P:37 SP:FB CYC:11205
C9E1 86 00    STX $00			A:40 X:25 Y:00 P:35 SP:FB CYC:11207
C9E3 EA       NOP 			A:40 X:25 Y:00 P:35 SP:FB CYC:11210
C9E4 C9 41    CMP #$41			A:40 X:25 Y:00 P:35 SP:FB CYC:11212
C9E6 F0 07    BEQ $C9EF			A:40 X:25 Y:00 P:B4 SP:FB CYC:11214
C9E8 10 05    BPL $C9EF			A:40 X:25 Y:00 P:B4 SP:FB CYC:11217
C9EA 10 03    BPL $C9EF			A:40 X:25 Y:00 P:B4 SP:FB CYC:11218
C9EC 4C F3 C9 JMP $C9F3			A:40 X:25 Y:00 P:B4 SP:FB CYC:11220
C9F3 EA       NOP 			A:40 X:25 Y:00 P:B4 SP:FB CYC:11223
C9F4 A9 80    LDA #$80			A:40 X:25 Y:00 P:B4 SP:FB CYC:11225
C9F6 C9 00    CMP #$00			A:80 X:25 Y:00 P:B4 SP:FB CYC:11227
C9F8 F0 07    BEQ $CA01			A:80 X:25 Y:00 P:35 SP:FB CYC:11229
C9FA 10 05    BPL $CA01			A:80 X:25 Y:00 P:35 SP:FB CYC:11231
C903 A9 70    LDA #$70			A:80 X:25 Y:00 P:35 SP:FB CYC:11234
C905 49 70    EOR #$70			A:70 X:25 Y:00 P:35 SP:FB CYC:11236
C907 D0 09    BNE $C912			A:00 X:25 Y:00 P:37 SP:FB CYC:11238
C909 70 07    BVS $C912			A:00 X:25 Y:00 P:37 SP:FB CYC:11241
C90B 90 05    BCC $C912			A:00 X:25 Y:00 P:37 SP:FB CYC:11242
C90D 30 03    BMI $C912			A:00 X:25 Y:00 P:37 SP:FB CYC:11245
C90F 4C 16 C9 JMP $C916			A:00 X:25 Y:00 P:37 SP:FB CYC:11246
C916 EA       NOP 			A:00 X:25 Y:00 P:37 SP:FB CYC:11249
C917 18       CLC 			A:00 X:25 Y:00 P:37 SP:FB CYC:11251
C918 24 01    BIT $01			A:00 X:25 Y:00 P:36 SP:FB CYC:11253
C91A A9 00    LDA #$00			A:00 X:25 Y:00 P:F6 SP:FB CYC:11256
C91C 69 69    ADC #$69			A:00 X:25 Y:00 P:76 SP:FB CYC:11258
C91E 30 0B    BMI $C92B			A:69 X:25 Y:00 P:34 SP:FB CYC:11260
C920 B0 09    BCS $C92B			A:69 X:25 Y:00 P:34 SP:FB CYC:11263
C922 C9 69    CMP #$69			A:69 X:25 Y:00 P:34 SP:FB CYC:11264
C924 D0 05    BNE $C92B			A:69 X:25 Y:00 P:B4 SP:FB CYC:11266
C92B A2 1E    LDX #$1E			A:69 X:25 Y:00 P:B4 SP:FB CYC:11269
C92D 86 00    STX $00			A:69 X:1E Y:00 P:34 SP:FB CYC:11271
C92F EA       NOP 			A:69 X:1E Y:00 P:34 SP:FB CYC:11274
C930 38       SEC 			A:69 X:1E Y:00 P:34 SP:FB CYC:11276
C931 F8       SED 			A:69 X:1E Y:00 P:35 SP:FB CYC:11278
C932 24 01    BIT $01			A:69 X:1E Y:00 P:3D SP:FB CYC:11280
C934 A9 01    LDA #$01			A:69 X:1E Y:00 P:FD SP:FB CYC:11283
C936 69 69    ADC #$69			A:01 X:1E Y:00 P:7D SP:FB CYC:11285
C938 30 0B    BMI $C945			A:6B X:1E Y:00 P:3C SP:FB CYC:11287
C93A B0 09    BCS $C945			A:6B X:1E Y:00 P:3C SP:FB CYC:11290
C93C C9 6B    CMP #$6B			A:6B X:1E Y:00 P:3C SP:FB CYC:11291
C93E D0 05    BNE $C945			A:6B X:1E Y:00 P:BC SP:FB CYC:11293
C945 A2 1F    LDX #$1F			A:6B X:1E Y:00 P:BC SP:FB CYC:11296
C947 86 00    STX $00			A:6B X:1F Y:00 P:3C SP:FB CYC:11298
C949 EA       NOP 			A:6B X:1F Y:00 P:3C SP:FB CYC:11301
C94A D8       CLD 			A:6B X:1F Y:00 P:3C SP:FB CYC:11303
C94B 38       SEC 			A:6B X:1F Y:00 P:34 SP:FB CYC:11305
C94C B8       CLV 			A:6B X:1F Y:00 P:35 SP:FB CYC:11307
C94D A9 7F    LDA #$7F			A:6B X:1F Y:00 P:35 SP:FB CYC:11309
C94F 69 7F    ADC #$7F			A:7F X:1F Y:00 P:35 SP:FB CYC:11311
C951 10 0B    BPL $C95E			A:FF X:1F Y:00 P:F4 SP:FB CYC:11313
C953 B0 09    BCS $C95E			A:FF X:1F Y:00 P:F4 SP:FB CYC:11316
C955 C9 FF    CMP #$FF			A:FF X:1F Y:00 P:F4 SP:FB CYC:11317
C957 D0 05    BNE $C95E			A:FF X:1F Y:00 P:F4 SP:FB CYC:11319
C95E A2 20    LDX #$20			A:FF X:1F Y:00 P:F4 SP:FB CYC:11322
C960 86 00    STX $00			A:FF X:20 Y:00 P:74 SP:FB CYC:11324
C962 EA       NOP 			A:FF X:20 Y:00 P:74 SP:FB CYC:11327
C963 18       CLC 			A:FF X:20 Y:00 P:74 SP:FB CYC:11329
C964 24 01    BIT $01			A:FF X:20 Y:00 P:74 SP:FB CYC:11331
C966 A9 7F    LDA #$7F			A:FF X:20 Y:00 P:F4 SP:FB CYC:11334
C968 69 80    ADC #$80			A:7F X:20 Y:00 P:74 SP:FB CYC:11336
C96A 10 0B    BPL $C977			A:FF X:20 Y:00 P:B4 SP:FB CYC:11338
C96C B0 09    BCS $C977			A:FF X:20 Y:00 P:B4 SP:FB CYC:11341
C96E C9 FF    CMP #$FF			A:FF X:20 Y:00 P:B4 SP:FB CYC:11342
C970 D0 05    BNE $C977			A:FF X:20 Y:00 P:B4 SP:FB CYC:11344
C977 A2 21    LDX #$21			A:FF X:20 Y:00 P:B4 SP:FB CYC:11347
C979 86 00    STX $00			A:FF X:21 Y:00 P:34 SP:FB CYC:11349
C97B EA       NOP 			A:FF X:21 Y:00 P:34 SP:FB CYC:11352
C97C 38       SEC 			A:FF X:21 Y:00 P:34 SP:FB CYC:11354
C97D B8       CLV 			A:FF X:21 Y:00 P:35 SP:FB CYC:11356
C97E A9 7F    LDA #$7F			A:FF X:21 Y:00 P:35 SP:FB CYC:11358
C980 69 80    ADC #$80			A:7F X:21 Y:00 P:35 SP:FB CYC:11360
C982 D0 09    BNE $C98D			A:00 X:21 Y:00 P:37 SP:FB CYC:11362
C984 30 07    BMI $C98D			A:00 X:21 Y:00 P:37 SP:FB CYC:11365
C986 70 05    BVS $C98D			A:00 X:21 Y:00 P:37 SP:FB CYC:11366
C988 90 03    BCC $C98D			A:00 X:21 Y:00 P:37 SP:FB CYC:11369
C98A 4C 91 C9 JMP $C991			A:00 X:21 Y:00 P:37 SP:FB CYC:11370
C991 EA       NOP 			A:00 X:21 Y:00 P:37 SP:FB CYC:11373
C992 38       SEC 			A:00 X:21 Y:00 P:37 SP:FB CYC:11375
C993 B8       CLV 			A:00 X:21 Y:00 P:37 SP:FB CYC:11377
C994 A9 9F    LDA #$9F			A:00 X:21 Y:00 P:37 SP:FB CYC:11379
C996 F0 09    BEQ $C9A1			A:9F X:21 Y:00 P:B5 SP:FB CYC:11381
C998 10 07    BPL $C9A1			A:9F X:21 Y:00 P:B5 SP:FB CYC:11384
C99A 70 05    BVS $C9A1			A:9F X:21 Y:00 P:B5 SP:FB CYC:11385
C99C 90 03    BCC $C9A1			A:9F X:21 Y:00 P:B5 SP:FB CYC:11388
C99E 4C A5 C9 JMP $C9A5			A:9F X:21 Y:00 P:B5 SP:FB CYC:11389
C9A5 EA       NOP 			A:9F X:21 Y:00 P:B5 SP:FB CYC:11392
C9A6 18       CLC 			A:9F X:21 Y:00 P:B5 SP:FB CYC:11394
C9A7 24 01    BIT $01			A:9F X:21 Y:00 P:B4 SP:FB CYC:11396
C9A9 A9 00    LDA #$00			A:9F X:21 Y:00 P:F4 SP:FB CYC:11399
C9AB D0 09    BNE $C9B6			A:00 X:21 Y:00 P:76 SP:FB CYC:11401
C9AD 30 07    BMI $C9B6			A:00 X:21 Y:00 P:76 SP:FB CYC:11404
C9AF 50 05    BVC $C9B6			A:00 X:21 Y:00 P:76 SP:FB CYC:11405
C9B1 B0 03    BCS $C9B6			A:00 X:21 Y:00 P:76 SP:FB CYC:11408
C9B3 4C BA C9 JMP $C9BA			A:00 X:21 Y:00 P:76 SP:FB CYC:11409
C9BA EA       NOP 			A:00 X:21 Y:00 P:76 SP:FB CYC:11412
C9BB 24 01    BIT $01			A:00 X:21 Y:00 P:76 SP:FB CYC:11414
C9BD A9 40    LDA #$40			A:00 X:21 Y:00 P:F6 SP:FB CYC:11417
C9BF C9 40    CMP #$40			A:40 X:21 Y:00 P:74 SP:FB CYC:11419
C9C1 30 09    BMI $C9CC			A:40 X:21 Y:00 P:F4 SP:FB CYC:11421
C9CC A2 24    LDX #$24			A:40 X:21 Y:00 P:F4 SP:FB CYC:11424
C9CE 86 00    STX $00			A:40 X:24 Y:00 P:74 SP:FB CYC:11426
C9D0 EA       NOP 			A:40 X:24 Y:00 P:74 SP:FB CYC:11429
C9D1 B8       CLV 			A:40 X:24 Y:00 P:74 SP:FB CYC:11431
C9D2 C9 3F    CMP #$3F			A:40 X:24 Y:00 P:34 SP:FB CYC:11433
C9D4 F0 09    BEQ $C9DF			A:40 X:24 Y:00 P:37 SP:FB CYC:11435
C9DF A2 25    LDX #$25			A:40 X:24 Y:00 P:37 SP:FB CYC:11438
C9E1 86 00    STX $00			A:40 X:25 Y:00 P:35 SP:FB CYC:11440
C9E3 EA       NOP 			A:40 X:25 Y:00 P:35 SP:FB CYC:11443
C9E4 C9 41    CMP #$41			A:40 X:25 Y:00 P:35 SP:FB CYC:11445
C9E6 F0 07    BEQ $C9EF			A:40 X:25 Y:00 P:B4 SP:FB CYC:11447
C9E8 10 05    BPL $C9EF			A:40 X:25 Y:00 P:B4 SP:FB CYC:11450
C9EA 10 03    BPL $C9EF			A:40 X:25 Y:00 P:B4 SP:FB CYC:11451
C9EC 4C F3 C9 JMP $C9F3			A:40 X:25 Y:00 P:B4 SP:FB CYC:11453
C9F3 EA       NOP 			A:40 X:25 Y:00 P:B4 SP:FB CYC:11456
C9F4 A9 80    LDA #$80			A:40 X:25 Y:00 P:B4 SP:FB CYC:11458
C9F6 C9 00    CMP #$00			A:80 X:25 Y:00 P:B4 SP:FB CYC:11460
C9F8 F0 07    BEQ $CA01			A:80 X:25 Y:00 P:35 SP:FB CYC:11462
C9FA 10 05    BPL $CA01			A:80 X:25 Y:00 P:35 SP:FB CYC:11464
C903 A9 70    LDA #$70			A:80 X:25 Y:00 P:35 SP:FB CYC:11467
C905 49 70    EOR #$70			A:70 X:25 Y:00 P:35 SP:FB CYC:11469
C907 D0 09    BNE $C912			A:00 X:25 Y:00 P:37 SP:FB CYC:11471
C909 70 07    BVS $C912			A:00 X:25 Y:00 P:37 SP:FB CYC:11474
C90B 90 05    BCC $C912			A:00 X:25 Y:00 P:37 SP:FB CYC:11475
C90D 30 03    BMI $C912			A:00 X:25 Y:00 P:37 SP:FB CYC:11478
C90F 4C 16 C9 JMP $C916			A:00 X:25 Y:00 P:37 SP:FB CYC:11479
C916 EA       NOP 			A:00 X:25 Y:00 P:37 SP:FB CYC:11482
C917 18       CLC 			A:00 X:25 Y:00 P:37 SP:FB CYC:11484
C918 24 01    BIT $01			A:00 X:25 Y:00 P:36 SP:FB CYC:11486
C91A A9 00    LDA #$00			A:00 X:25 Y:00 P:F6 SP:FB CYC:11489
C91C 69 69    ADC #$69			A:00 X:25 Y:00 P:76 SP:FB CYC:11491
C91E 30 0B    BMI $C92B			A:69 X:25 Y:00 P:34 SP:FB CYC:11493
C920 B0 09    BCS $C92B			A:69 X:25 Y:00 P:34 SP:FB CYC:11496
C922 C9 69    CMP #$69			A:69 X:25 Y:00 P:34 SP:FB CYC:11497
C924 D0 05    BNE $C92B			A:69 X:25 Y:00 P:B4 SP:FB CYC:11499
C92B A2 1E    LDX #$1E			A:69 X:25 Y:00 P:B4 SP:FB CYC:11502
C92D 86 00    STX $00			A:69 X:1E Y:00 P:34 SP:FB CYC:11504
C92F EA       NOP 			A:69 X:1E Y:00 P:34 SP:FB CYC:11507
C930 38       SEC 			A:69 X:1E Y:00 P:34 SP:FB CYC:11509
C931 F8       SED 			A:69 X:1E Y:00 P:35 SP:FB CYC:11511
C932 24 01    BIT $01			A:69 X:1E Y:00 P:3D SP:FB CYC:11513
C934 A9 01    LDA #$01			A:69 X:1E Y:00 P:FD SP:FB CYC:11516
C936 69 69    ADC #$69			A:01 X:1E Y:00 P:7D SP:FB CYC:11518
C938 30 0B    BMI $C945			A:6B X:1E Y:00 P:3C SP:FB CYC:11520
C93A B0 09    BCS $C945			A:6B X:1E Y:00 P:3C SP:FB CYC:11523
C93C C9 6B    CMP #$6B			A:6B X:1E Y:00 P:3C SP:FB CYC:11524
C93E D0 05    BNE $C945			A:6B X:1E Y:00 P:BC SP:FB CYC:11526
C945 A2 1F    LDX #$1F			A:6B X:1E Y:00 P:BC SP:FB CYC:11529
C947 86 00    STX $00			A:6B X:1F Y:00 P:3C SP:FB CYC:11531
C949 EA       NOP 			A:6B X:1F Y:00 P:3C SP:FB CYC:11534
C94A D8       CLD 			A:6B X:1F Y:00 P:3C SP:FB CYC:11536
C94B 38       SEC 			A:6B X:1F Y:00 P:34 SP:FB CYC:11538
C94C B8       CLV 			A:6B X:1F Y:00 P:35 SP:FB CYC:11540
C94D A9 7F    LDA #$7F			A:6B X:1F Y:00 P:35 SP:FB CYC:11542
C94F 69 7F    ADC #$7F			A:7F X:1F Y:00 P:35 SP:FB CYC:11544
C951 10 0B    BPL $C95E			A:FF X:1F Y:00 P:F4 SP:FB CYC:11546
C953 B0 09    BCS $C95E			A:FF X:1F Y:00 P:F4 SP:FB CYC:11549
C955 C9 FF    CMP #$FF			A:FF X:1F Y:00 P:F4 SP:FB CYC:11550
C957 D0 05    BNE $C95E			A:FF X:1F Y:00 P:F4 SP:FB CYC:11552
C95E A2 20    LDX #$20			A:FF X:1F Y:00 P:F4 SP:FB CYC:11555
C960 86 00    STX $00			A:FF X:20 Y:00 P:74 SP:FB CYC:11557
C962 EA       NOP 			A:FF X:20 Y:00 P:74 SP:FB CYC:11560
C963 18       CLC 			A:FF X:20 Y:00 P:74 SP:FB CYC:11562
C964 24 01    BIT $01			A:FF X:20 Y:00 P:74 SP:FB CYC:11564
C966 A9 7F    LDA #$7F			A:FF X:20 Y:00 P:F4 SP:FB CYC:11567
C968 69 80    ADC #$80			A:7F X:20 Y:00 P:74 SP:FB CYC:11569
C96A 10 0B    BPL $C977			A:FF X:20 Y:00 P:B4 SP:FB CYC:11571
C96C B0 09    BCS $C977			A:FF X:20 Y:00 P:B4 SP:FB CYC:11574
C96E C9 FF    CMP #$FF			A:FF X:20 Y:00 P:B4 SP:FB CYC:11575
C970 D0 05    BNE $C977			A:FF X:20 Y:00 P:B4 SP:FB CYC:11577
C977 A2 21    LDX #$21			A:FF X:20 Y:00 P:B4 SP:FB CYC:11580
C979 86 00    STX $00			A:FF X:21 Y:00 P:34 SP:FB CYC:11582
C97B EA       NOP 			A:FF X:21 Y:00 P:34 SP:FB CYC:11585
C97C 38       SEC 			A:FF X:21 Y:00 P:34 SP:FB CYC:11587
C97D B8       CLV 			A:FF X:21 Y:00 P:35 SP:FB CYC:11589
C97E A9 7F    LDA #$7F			A:FF X:21 Y:00 P:35 SP:FB CYC:11591
C980 69 80    ADC #$80			A:7F X:21 Y:00 P:35 SP:FB CYC:11593
C982 D0 09    BNE $C98D			A:00 X:21 Y:00 P:37 SP:FB CYC:11595
C984 30 07    BMI $C98D			A:00 X:21 Y:00 P:37 SP:FB CYC:11598
C986 70 05    BVS $C98D			A:00 X:21 Y:00 P:37 SP:FB CYC:11599
C988 90 03    BCC $C98D			A:00 X:21 Y:00 P:37 SP:FB CYC:11602
C98A 4C 91 C9 JMP $C991			A:00 X:21 Y:00 P:37 SP:FB CYC:11603
C991 EA       NOP 			A:00 X:21 Y:00 P:37 SP:FB CYC:11606
C992 38       SEC 			A:00 X:21 Y:00 P:37 SP:FB CYC:11608
C993 B8       CLV 			A:00 X:21 Y:00 P:37 SP:FB CYC:11610
C994 A9 9F    LDA #$9F			A:00 X:21 Y:00 P:37 SP:FB CYC:11612
C996 F0 09    BEQ $C9A1			A:9F X:21 Y:00 P:B5 SP:FB CYC:11614
C998 10 07    BPL $C9A1			A:9F X:21 Y:00 P:B5 SP:FB CYC:11617
C99A 70 05    BVS $C9A1			A:9F X:21 Y:00 P:B5 SP:FB CYC:11618
C99C 90 03    BCC $C9A1			A:9F X:21 Y:00 P:B5 SP:FB CYC:11621
C99E 4C A5 C9 JMP $C9A5			A:9F X:21 Y:00 P:B5 SP:FB CYC:11622
C9A5 EA       NOP 			A:9F X:21 Y:00 P:B5 SP:FB CYC:11625
C9A6 18       CLC 			A:9F X:21 Y:00 P:B5 SP:FB CYC:11627
C9A7 24 01    BIT $01			A:9F X:21 Y:00 P:B4 SP:FB CYC:11629
C9A9 A9 00    LDA #$00			A:9F X:21 Y:00 P:F4 SP:FB CYC:11632
C9AB D0 09    BNE $C9B6			A:00 X:21 Y:00 P:76 SP:FB CYC:11634
C9AD 30 07    BMI $C9B6			A:00 X:21 Y:00 P:76 SP:FB CYC:11637
C9AF 50 05    BVC $C9B6			A:00 X:21 Y:00 P:76 SP:FB CYC:11638
C9B1 B0 03    BCS $C9B6			A:00 X:21 Y:00 P:76 SP:FB CYC:11641
C9B3 4C BA C9 JMP $C9BA			A:00 X:21 Y:00 P:76 SP:FB CYC:11642
C9BA EA       NOP 			A:00 X:21 Y:00 P:76 SP:FB CYC:11645
C9BB 24 01    BIT $01			A:00 X:21 Y:00 P:76 SP:FB CYC:11647
C9BD A9 40    LDA #$40			A:00 X:21 Y:00 P:F6 SP:FB CYC:11650
C9BF C9 40    CMP #$40			A:40 X:21 Y:00 P:74 SP:FB CYC:11652
C9C1 30 09    BMI $C9CC			A:40 X:21 Y:00 P:F4 SP:FB CYC:11654
C9CC A2 24    LDX #$24			A:40 X:21 Y:00 P:F4 SP:FB CYC:11657
C9CE 86 00    STX $00			A:40 X:24 Y:00 P:74 SP:FB CYC:11659
C9D0 EA       NOP 			A:40 X:24 Y:00 P:74 SP:FB CYC:11662
C9D1 B8       CLV 			A:40 X:24 Y:00 P:74 SP:FB CYC:11664
C9D2 C9 3F    CMP #$3F			A:40 X:24 Y:00 P:34 SP:FB CYC:11666
C9D4 F0 09    BEQ $C9DF			A:40 X:24 Y:00 P:37 SP:FB CYC:11668
C9DF A2 25    LDX #$25			A:40 X:24 Y:00 P:37 SP:FB CYC:11671
C9E1 86 00    STX $00			A:40 X:25 Y:00 P:35 SP:FB CYC:11673
C9E3 EA       NOP 			A:40 X:25 Y:00 P:35 SP:FB CYC:11676
C9E4 C9 41    CMP #$41			A:40 X:25 Y:00 P:35 SP:FB CYC:11678
C9E6 F0 07    BEQ $C9EF			A:40 X:25 Y:00 P:B4 SP:FB CYC:11680
C9E8 10 05    BPL $C9EF			A:40 X:25 Y:00 P:B4 SP:FB CYC:11683
C9EA 10 03    BPL $C9EF			A:40 X:25 Y:00 P:B4 SP:FB CYC:11684
C9EC 4C F3 C9 JMP $C9F3			A:40 X:25 Y:00 P:B4 SP:FB CYC:11686
C9F3 EA       NOP 			A:40 X:25 Y:00 P:B4 SP:FB CYC:11689
C9F4 A9 80    LDA #$80			A:40 X:25 Y:00 P:B4 SP:FB CYC:11691
C9F6 C9 00    CMP #$00			A:80 X:25 Y:00 P:B4 SP:FB CYC:11693
C9F8 F0 07    BEQ $CA01			A:80 X:25 Y:00 P:35 SP:FB CYC:11695
C9FA 10 05    BPL $CA01			A:80 X:25 Y:00 P:35 SP:FB CYC:11697
C903 A9 70    LDA #$70			A:80 X:25 Y:00 P:35 SP:FB CYC:11700
C905 49 70    EOR #$70			A:70 X:25 Y:00 P:35 SP:FB CYC:11702
C907 D0 09    BNE $C912			A:00 X:25 Y:00 P:37 SP:FB CYC:11704
C909 70 07    BVS $C912			A:00 X:25 Y:00 P:37 SP:FB CYC:11707
C90B 90 05    BCC $C912			A:00 X:25 Y:00 P:37 SP:FB CYC:11708
C90D 30 03    BMI $C912			A:00 X:25 Y:00 P:37 SP:FB CYC:11711
C90F 4C 16 C9 JMP $C916			A:00 X:25 Y:00 P:37 SP:FB CYC:11712
C916 EA       NOP 			A:00 X:25 Y:00 P:37 SP:FB CYC:11715
C917 18       CLC 			A:00 X:25 Y:00 P:37 SP:FB CYC:11717
C918 24 01    BIT $01			A:00 X:25 Y:00 P:36 SP:FB CYC:11719
C91A A9 00    LDA #$00			A:00 X:25 Y:00 P:F6 SP:FB CYC:11722
C91C 69 69    ADC #$69			A:00 X:25 Y:00 P:76 SP:FB CYC:11724
C91E 30 0B    BMI $C92B			A:69 X:25 Y:00 P:34 SP:FB CYC:11726
C920 B0 09    BCS $C92B			A:69 X:25 Y:00 P:34 SP:FB CYC:11729
C922 C9 69    CMP #$69			A:69 X:25 Y:00 P:34 SP:FB CYC:11730
C924 D0 05    BNE $C92B			A:69 X:25 Y:00 P:B4 SP:FB CYC:11732
C92B A2 1E    LDX #$1E			A:69 X:25 Y:00 P:B4 SP:FB CYC:11735
C92D 86 00    STX $00			A:69 X:1E Y:00 P:34 SP:FB CYC:11737
C92F EA       NOP 			A:69 X:1E Y:00 P:34 SP:FB CYC:11740
C930 38       SEC 			A:69 X:1E Y:00 P:34 SP:FB CYC:11742
C931 F8       SED 			A:69 X:1E Y:00 P:35 SP:FB CYC:11744
C932 24 01    BIT $01			A:69 X:1E Y:00 P:3D SP:FB CYC:11746
C934 A9 01    LDA #$01			A:69 X:1E Y:00 P:FD SP:FB CYC:11749
C936 69 69    ADC #$69			A:01 X:1E Y:00 P:7D SP:FB CYC:11751
C938 30 0B    BMI $C945			A:6B X:1E Y:00 P:3C SP:FB CYC:11753
C93A B0 09    BCS $C945			A:6B X:1E Y:00 P:3C SP:FB CYC:11756
C93C C9 6B    CMP #$6B			A:6B X:1E Y:00 P:3C SP:FB CYC:11757
C93E D0 05    BNE $C945			A:6B X:1E Y:00 P:BC SP:FB CYC:11759
C945 A2 1F    LDX #$1F			A:6B X:1E Y:00 P:BC SP:FB CYC:11762
C947 86 00    STX $00			A:6B X:1F Y:00 P:3C SP:FB CYC:11764
C949 EA       NOP 			A:6B X:1F Y:00 P:3C SP:FB CYC:11767
C94A D8       CLD 			A:6B X:1F Y:00 P:3C SP:FB CYC:11769
C94B 38       SEC 			A:6B X:1F Y:00 P:34 SP:FB CYC:11771
C94C B8       CLV 			A:6B X:1F Y:00 P:35 SP:FB CYC:11773
C94D A9 7F    LDA #$7F			A:6B X:1F Y:00 P:35 SP:FB CYC:11775
C94F 69 7F    ADC #$7F			A:7F X:1F Y:00 P:35 SP:FB CYC:11777
C951 10 0B    BPL $C95E			A:FF X:1F Y:00 P:F4 SP:FB CYC:11779
C953 B0 09    BCS $C95E			A:FF X:1F Y:00 P:F4 SP:FB CYC:11782
C955 C9 FF    CMP #$FF			A:FF X:1F Y:00 P:F4 SP:FB CYC:11783
C957 D0 05    BNE $C95E			A:FF X:1F Y:00 P:F4 SP:FB CYC:11785
C95E A2 20    LDX #$20			A:FF X:1F Y:00 P:F4 SP:FB CYC:11788
C960 86 00    STX $00			A:FF X:20 Y:00 P:74 SP:FB CYC:11790
C962 EA       NOP 			A:FF X:20 Y:00 P:74 SP:FB CYC:11793
C963 18       CLC 			A:FF X:20 Y:00 P:74 SP:FB CYC:11795
C964 24 01    BIT $01			A:FF X:20 Y:00 P:74 SP:FB CYC:11797
C966 A9 7F    LDA #$7F			A:FF X:20 Y:00 P:F4 SP:FB CYC:11800
C968 69 80    ADC #$80			A:7F X:20 Y:00 P:74 SP:FB CYC:11802
C96A 10 0B    BPL $C977			A:FF X:20 Y:00 P:B4 SP:FB CYC:11804
C96C B0 09    BCS $C977			A:FF X:20 Y:00 P:B4 SP:FB CYC:11807
C96E C9 FF    CMP #$FF			A:FF X:20 Y:00 P:B4 SP:FB CYC:11808
C970 D0 05    BNE $C977			A:FF X:20 Y:00 P:B4 SP:FB CYC:11810
C977 A2 21    LDX #$21			A:FF X:20 Y:00 P:B4 SP:FB CYC:11813
C979 86 00    STX $00			A:FF X:21 Y:00 P:34 SP:FB CYC:11815
C97B EA       NOP 			A:FF X:21 Y:00 P:34 SP:FB CYC:11818
C97C 38       SEC 			A:FF X:21 Y:00 P:34 SP:FB CYC:11820
C97D B8       CLV 			A:FF X:21 Y:00 P:35 SP:FB CYC:11822
C97E A9 7F    LDA #$7F			A:FF X:21 Y:00 P:35 SP:FB CYC:11824
C980 69 80    ADC #$80			A:7F X:21 Y:00 P:35 SP:FB CYC:11826
C982 D0 09    BNE $C98D			A:00 X:21 Y:00 P:37 SP:FB CYC:11828
C984 30 07    BMI $C98D			A:00 X:21 Y:00 P:37 SP:FB CYC:11831
C986 70 05    BVS $C98D			A:00 X:21 Y:00 P:37 SP:FB CYC:11832
C988 90 03    BCC $C98D			A:00 X:21 Y:00 P:37 SP:FB CYC:11835
C98A 4C 91 C9 JMP $C991			A:00 X:21 Y:00 P:37 SP:FB CYC:11836
C991 EA       NOP 			A:00 X:21 Y:00 P:37 SP:FB CYC:11839
C992 38       SEC 			A:00 X:21 Y:00 P:37 SP:FB CYC:11841
C993 B8       CLV 			A:00 X:21 Y:00 P:37 SP:FB CYC:11843
C994 A9 9F    LDA #$9F			A:00 X:21 Y:00 P:37 SP:FB CYC:11845
C996 F0 09    BEQ $C9A1			A:9F X:21 Y:00 P:B5 SP:FB CYC:11847
C998 10 07    BPL $C9A1			A:9F X:21 Y:00 P:B5 SP:FB CYC:11850
C99A 70 05    BVS $C9A1			A:9F X:21 Y:00 P:B5 SP:FB CYC:11851
C99C 90 03    BCC $C9A1			A:9F X:21 Y:00 P:B5 SP:FB CYC:11854
C99E 4C A5 C9 JMP $C9A5			A:9F X:21 Y:00 P:B5 SP:FB CYC:11855
C9A5 EA       NOP 			A:9F X:21 Y:00 P:B5 SP:FB CYC:11858
C9A6 18       CLC 			A:9F X:21 Y:00 P:B5 SP:FB CYC:11860
C9A7 24 01    BIT $01			A:9F X:21 Y:00 P:B4 SP:FB CYC:11862
C9A9 A9 00    LDA #$00			A:9F X:21 Y:00 P:F4 SP:FB CYC:11865
C9AB D0 09    BNE $C9B6			A:00 X:21 Y:00 P:76 SP:FB CYC:11867
C9AD 30 07    BMI $C9B6			A:00 X:21 Y:00 P:76 SP:FB CYC:11870
C9AF 50 05    BVC $C9B6			A:00 X:21 Y:00 P:76 SP:FB CYC:11871
C9B1 B0 03    BCS $C9B6			A:00 X:21 Y:00 P:76 SP:FB CYC:11874
C9B3 4C BA C9 JMP $C9BA			A:00 X:21 Y:00 P:76 SP:FB CYC:11875
C9BA EA       NOP 			A:00 X:21 Y:00 P:76 SP:FB CYC:11878
C9BB 24 01    BIT $01			A:00 X:21 Y:00 P:76 SP:FB CYC:11880
C9BD A9 40    LDA #$40			A:00 X:21 Y:00 P:F6 SP:FB CYC:11883
C9BF C9 40    CMP #$40			A:40 X:21 Y:00 P:74 SP:FB CYC:11885
C9C1 30 09    BMI $C9CC			A:40 X:21 Y:00 P:F4 SP:FB CYC:11887
C9CC A2 24    LDX #$24			A:40 X:21 Y:00 P:F4 SP:FB CYC:11890
C9CE 86 00    STX $00			A:40 X:24 Y:00 P:74 SP:FB CYC:11892
C9D0 EA       NOP 			A:40 X:24 Y:00 P:74 SP:FB CYC:11895
C9D1 B8       CLV 			A:40 X:24 Y:00 P:74 SP:FB CYC:11897
C9D2 C9 3F    CMP #$3F			A:40 X:24 Y:00 P:34 SP:FB CYC:11899
C9D4 F0 09    BEQ $C9DF			A:40 X:24 Y:00 P:37 SP:FB CYC:11901
C9DF A2 25    LDX #$25			A:40 X:24 Y:00 P:37 SP:FB CYC:11904
C9E1 86 00    STX $00			A:40 X:25 Y:00 P:35 SP:FB CYC:11906
C9E3 EA       NOP 			A:40 X:25 Y:00 P:35 SP:FB CYC:11909
C9E4 C9 41    CMP #$41			A:40 X:25 Y:00 P:35 SP:FB CYC:11911
C9E6 F0 07    BEQ $C9EF			A:40 X:25 Y:00 P:B4 SP:FB CYC:11913
C9E8 10 05    BPL $C9EF			A:40 X:25 Y:00 P:B4 SP:FB CYC:11916
C9EA 10 03    BPL $C9EF			A:40 X:25 Y:00 P:B4 SP:FB CYC:11917
C9EC 4C F3 C9 JMP $C9F3			A:40 X:25 Y:00 P:B4 SP:FB CYC:11919
C9F3 EA       NOP 			A:40 X:25 Y:00 P:B4 SP:FB CYC:11922
C9F4 A9 80    LDA #$80			A:40 X:25 Y:00 P:B4 SP:FB CYC:11924
C9F6 C9 00    CMP #$00			A:80 X:25 Y:00 P:B4 SP:FB CYC:11926
C9F8 F0 07    BEQ $CA01			A:80 X:25 Y:00 P:35 SP:FB CYC:11928
C9FA 10 05    BPL $CA01			A:80 X:25 Y:00 P:35 SP:FB CYC:11930
C903 A9 70    LDA #$70			A:80 X:25 Y:00 P:35 SP:FB CYC:11933
C905 49 70    EOR #$70			A:70 X:25 Y:00 P:35 SP:FB CYC:11935
C907 D0 09    BNE $C912			A:00 X:25 Y:00 P:37 SP:FB CYC:11937
C909 70 07    BVS $C912			A:00 X:25 Y:00 P:37 SP:FB CYC:11940
C90B 90 05    BCC $C912			A:00 X:25 Y:00 P:37 SP:FB CYC:11941
C90D 30 03    BMI $C912			A:00 X:25 Y:00 P:37 SP:FB CYC:11944
C90F 4C 16 C9 JMP $C916			A:00 X:25 Y:00 P:37 SP:FB CYC:11945
C916 EA       NOP 			A:00 X:25 Y:00 P:37 SP:FB CYC:11948
C917 18       CLC 			A:00 X:25 Y:00 P:37 SP:FB CYC:11950
C918 24 01    BIT $01			A:00 X:25 Y:00 P:36 SP:FB CYC:11952
C91A A9 00    LDA #$00			A:00 X:25 Y:00 P:F6 SP:FB CYC:11955
C91C 69 69    ADC #$69			A:00 X:25 Y:00 P:76 SP:FB CYC:11957
C91E 30 0B    BMI $C92B			A:69 X:25 Y:00 P:34 SP:FB CYC:11959
C920 B0 09    BCS $C92B			A:69 X:25 Y:00 P:34 SP:FB CYC:11962
C922 C9 69    CMP #$69			A:69 X:25 Y:00 P:34 SP:FB CYC:11963
C924 D0 05    BNE $C92B			A:69 X:25 Y:00 P:B4 SP:FB CYC:11965
C92B A2 1E    LDX #$1E			A:69 X:25 Y:00 P:B4 SP:FB CYC:11968
C92D 86 00    STX $00			A:69 X:1E Y:00 P:34 SP:FB CYC:11970
C92F EA       NOP 			A:69 X:1E Y:00 P:34 SP:FB CYC:11973
C930 38       SEC 			A:69 X:1E Y:00 P:34 SP:FB CYC:11975
C931 F8       SED 			A:69 X:1E Y:00 P:35 SP:FB CYC:11977
C932 24 01    BIT $01			A:69 X:1E Y:00 P:3D SP:FB CYC:11979
C934 A9 01    LDA #$01			A:69 X:1E Y:00 P:FD SP:FB CYC:11982
C936 69 69    ADC #$69			A:01 X:1E Y:00 P:7D SP:FB CYC:11984
C938 30 0B    BMI $C945			A:6B X:1E Y:00 P:3C SP:FB CYC:11986
C93A B0 09    BCS $C945			A:6B X:1E Y:00 P:3C SP:FB CYC:11989
C93C C9 6B    CMP #$6B			A:6B X:1E Y:00 P:3C SP:FB CYC:11990
C93E D0 05    BNE $C945			A:6B X:1E Y:00 P:BC SP:FB CYC:11992
C945 A2 1F    LDX #$1F			A:6B X:1E Y:00 P:BC SP:FB CYC:11995
C947 86 00    STX $00			A:6B X:1F Y:00 P:3C SP:FB CYC:11997
C949 EA       NOP 			A:6B X:1F Y:00 P:3C SP:FB CYC:12000
C94A D8       CLD 			A:6B X:1F Y:00 P:3C SP:FB CYC:12002
C94B 38       SEC 			A:6B X:1F Y:00 P:34 SP:FB CYC:12004
C94C B8       CLV 			A:6B X:1F Y:00 P:35 SP:FB CYC:12006
C94D A9 7F    LDA #$7F			A:6B X:1F Y:00 P:35 SP:FB CYC:12008
C94F 69 7F    ADC #$7F			A:7F X:1F Y:00 P:35 SP:FB CYC:12010
C951 10 0B    BPL $C95E			A:FF X:1F Y:00 P:F4 SP:FB CYC:12012
C953 B0 09    BCS $C95E			A:FF X:1F Y:00 P:F4 SP:FB CYC:12015
C955 C9 FF    CMP #$FF			A:FF X:1F Y:00 P:F4 SP:FB CYC:12016
C957 D0 05    BNE $C95E			A:FF X:1F Y:00 P:F4 SP:FB CYC:12018
C95E A2 20    LDX #$20			A:FF X:1F Y:00 P:F4 SP:FB CYC:12021
C960 86 00    STX $00			A:FF X:20 Y:00 P:74 SP:FB CYC:12023
C962 EA       NOP 			A:FF X:20 Y:00 P:74 SP:FB CYC:12026
C963 18       CLC 			A:FF X:20 Y:00 P:74 SP:FB CYC:12028
C964 24 01    BIT $01			A:FF X:20 Y:00 P:74 SP:FB CYC:12030
C966 A9 7F    LDA #$7F			A:FF X:20 Y:00 P:F4 SP:FB CYC:12033
C968 69 80    ADC #$80			A:7F X:20 Y:00 P:74 SP:FB CYC:12035
C96A 10 0B    BPL $C977			A:FF X:20 Y:00 P:B4 SP:FB CYC:12037
C96C B0 09    BCS $C977			A:FF X:20 Y:00 P:B4 SP:FB CYC:12040
C96E C9 FF    CMP #$FF			A:FF X:20 Y:00 P:B4 SP:FB CYC:12041
C970 D0 05    BNE $C977			A:FF X:20 Y:00 P:B4 SP:FB CYC:12043
C977 A2 21    LDX #$21			A:FF X:20 Y:00 P:B4 SP:FB CYC:12046
C979 86 00    STX $00			A:FF X:21 Y:00 P:34 SP:FB CYC:12048
C97B EA       NOP 			A:FF X:21 Y:00 P:34 SP:FB CYC:12051
C97C 38       SEC 			A:FF X:21 Y:00 P:34 SP:FB CYC:12053
C97D B8       CLV 			A:FF X:21 Y:00 P:35 SP:FB CYC:12055
C97E A9 7F    LDA #$7F			A:FF X:21 Y:00 P:35 SP:FB CYC:12057
C980 69 80    ADC #$80			A:7F X:21 Y:00 P:35 SP:FB CYC:12059
C982 D0 09    BNE $C98D			A:00 X:21 Y:00 P:37 SP:FB CYC:12061
C984 30 07    BMI $C98D			A:00 X:21 Y:00 P:37 SP:FB CYC:12064
C986 70 05    BVS $C98D			A:00 X:21 Y:00 P:37 SP:FB CYC:12065
C988 90 03    BCC $C98D			A:00 X:21 Y:00 P:37 SP:FB CYC:12068
C98A 4C 91 C9 JMP $C991			A:00 X:21 Y:00 P:37 SP:FB CYC:12069
C991 EA       NOP 			A:00 X:21 Y:00 P:37 SP:FB CYC:12072
C992 38       SEC 			A:00 X:21 Y:00 P:37 SP:FB CYC:12074
C993 B8       CLV 			A:00 X:21 Y:00 P:37 SP:FB CYC:12076
C994 A9 9F    LDA #$9F			A:00 X:21 Y:00 P:37 SP:FB CYC:12078
C996 F0 09    BEQ $C9A1			A:9F X:21 Y:00 P:B5 SP:FB CYC:12080
C998 10 07    BPL $C9A1			A:9F X:21 Y:00 P:B5 SP:FB CYC:12083
C99A 70 05    BVS $C9A1			A:9F X:21 Y:00 P:B5 SP:FB CYC:12084
C99C 90 03    BCC $C9A1			A:9F X:21 Y:00 P:B5 SP:FB CYC:12087
C99E 4C A5 C9 JMP $C9A5			A:9F X:21 Y:00 P:B5 SP:FB CYC:12088
C9A5 EA       NOP 			A:9F X:21 Y:00 P:B5 SP:FB CYC:12091
C9A6 18       CLC 			A:9F X:21 Y:00 P:B5 SP:FB CYC:12093
C9A7 24 01    BIT $01			A:9F X:21 Y:00 P:B4 SP:FB CYC:12095
C9A9 A9 00    LDA #$00			A:9F X:21 Y:00 P:F4 SP:FB CYC:12098
C9AB D0 09    BNE $C9B6			A:00 X:21 Y:00 P:76 SP:FB CYC:12100
C9AD 30 07    BMI $C9B6			A:00 X:21 Y:00 P:76 SP:FB CYC:12103
C9AF 50 05    BVC $C9B6			A:00 X:21 Y:00 P:76 SP:FB CYC:12104
C9B1 B0 03    BCS $C9B6			A:00 X:21 Y:00 P:76 SP:FB CYC:12107
C9B3 4C BA C9 JMP $C9BA			A:00 X:21 Y:00 P:76 SP:FB CYC:12108
C9BA EA       NOP 			A:00 X:21 Y:00 P:76 SP:FB CYC:12111
C9BB 24 01    BIT $01			A:00 X:21 Y:00 P:76 SP:FB CYC:12113
C9BD A9 40    LDA #$40			A:00 X:21 Y:00 P:F6 SP:FB CYC:12116
C9BF C9 40    CMP #$40			A:40 X:21 Y:00 P:74 SP:FB CYC:12118
C9C1 30 09    BMI $C9CC			A:40 X:21 Y:00 P:F4 SP:FB CYC:12120
C9CC A2 24    LDX #$24			A:40 X:21 Y:00 P:F4 SP:FB CYC:12123
C9CE 86 00    STX $00			A:40 X:24 Y:00 P:74 SP:FB CYC:12125
C9D0 EA       NOP 			A:40 X:24 Y:00 P:74 SP:FB CYC:12128
C9D1 B8       CLV 			A:40 X:24 Y:00 P:74 SP:FB CYC:12130
C9D2 C9 3F    CMP #$3F			A:40 X:24 Y:00 P:34 SP:FB CYC:12132
C9D4 F0 09    BEQ $C9DF			A:40 X:24 Y:00 P:37 SP:FB CYC:12134
C9DF A2 25    LDX #$25			A:40 X:24 Y:00 P:37 SP:FB CYC:12137
C9E1 86 00    STX $00			A:40 X:25 Y:00 P:35 SP:FB CYC:12139
C9E3 EA       NOP 			A:40 X:25 Y:00 P:35 SP:FB CYC:12142
C9E4 C9 41    CMP #$41			A:40 X:25 Y:00 P:35 SP:FB CYC:12144
C9E6 F0 07    BEQ $C9EF			A:40 X:25 Y:00 P:B4 SP:FB CYC:12146
C9E8 10 05    BPL $C9EF			A:40 X:25 Y:00 P:B4 SP:FB CYC:12149
C9EA 10 03    BPL $C9EF			A:40 X:25 Y:00 P:B4 SP:FB CYC:12150
C9EC 4C F3 C9 JMP $C9F3			A:40 X:25 Y:00 P:B4 SP:FB CYC:12152
C9F3 EA       NOP 			A:40 X:25 Y:00 P:B4 SP:FB CYC:12155
C9F4 A9 80    LDA #$80			A:40 X:25 Y:00 P:B4 SP:FB CYC:12157
C9F6 C9 00    CMP #$00			A:80 X:25 Y:00 P:B4 SP:FB CYC:12159
C9F8 F0 07    BEQ $CA01			A:80 X:25 Y:00 P:35 SP:FB CYC:12161
C9FA 10 05    BPL $CA01			A:80 X:25 Y:00 P:35 SP:FB CYC:12163
C903 A9 70    LDA #$70			A:80 X:25 Y:00 P:35 SP:FB CYC:12166
C905 49 70    EOR #$70			A:70 X:25 Y:00 P:35 SP:FB CYC:12168
C907 D0 09    BNE $C912			A:00 X:25 Y:00 P:37 SP:FB CYC:12170
C909 70 07    BVS $C912			A:00 X:25 Y:00 P:37 SP:FB CYC:12173
C90B 90 05    BCC $C912			A:00 X:25 Y:00 P:37 SP:FB CYC:12174
C90D 30 03    BMI $C912			A:00 X:25 Y:00 P:37 SP:FB CYC:12177
C90F 4C 16 C9 JMP $C916			A:00 X:25 Y:00 P:37 SP:FB CYC:12178
C916 EA       NOP 			A:00 X:25 Y:00 P:37 SP:FB CYC:12181
C917 18       CLC 			A:00 X:25 Y:00 P:37 SP:FB CYC:12183
C918 24 01    BIT $01			A:00 X:25 Y:00 P:36 SP:FB CYC:12185
C91A A9 00    LDA #$00			A:00 X:25 Y:00 P:F6 SP:FB CYC:12188
C91C 69 69    ADC #$69			A:00 X:25 Y:00 P:76 SP:FB CYC:12190
C91E 30 0B    BMI $C92B			A:69 X:25 Y:00 P:34 SP:FB CYC:12192
C920 B0 09    BCS $C92B			A:69 X:25 Y:00 P:34 SP:FB CYC:12195
C922 C9 69    CMP #$69			A:69 X:25 Y:00 P:34 SP:FB CYC:12196
C924 D0 05    BNE $C92B			A:69 X:25 Y:00 P:B4 SP:FB CYC:12198
C92B A2 1E    LDX #$1E			A:69 X:25 Y:00 P:B4 SP:FB CYC:12201
C92D 86 00    STX $00			A:69 X:1E Y:00 P:34 SP:FB CYC:12203
C92F EA       NOP 			A:69 X:1E Y:00 P:34 SP:FB CYC:12206
C930 38       SEC 			A:69 X:1E Y:00 P:34 SP:FB CYC:12208
C931 F8       SED 			A:69 X:1E Y:00 P:35 SP:FB CYC:12210
C932 24 01    BIT $01			A:69 X:1E Y:00 P:3D SP:FB CYC:12212
C934 A9 01    LDA #$01			A:69 X:1E Y:00 P:FD SP:FB CYC:12215
C936 69 69    ADC #$69			A:01 X:1E Y:00 P:7D SP:FB CYC:12217
C938 30 0B    BMI $C945			A:6B X:1E Y:00 P:3C SP:FB CYC:12219
C93A B0 09    BCS $C945			A:6B X:1E Y:00 P:3C SP:FB CYC:12222
C93C C9 6B    CMP #$6B			A:6B X:1E Y:00 P:3C SP:FB CYC:12223
C93E D0 05    BNE $C945			A:6B X:1E Y:00 P:BC SP:FB CYC:12225
C945 A2 1F    LDX #$1F			A:6B X:1E Y:00 P:BC SP:FB CYC:12228
C947 86 00    STX $00			A:6B X:1F Y:00 P:3C SP:FB CYC:12230
C949 EA       NOP 			A:6B X:1F Y:00 P:3C SP:FB CYC:12233
C94A D8       CLD 			A:6B X:1F Y:00 P:3C SP:FB CYC:12235
C94B 38       SEC 			A:6B X:1F Y:00 P:34 SP:FB CYC:12237
C94C B8       CLV 			A:6B X:1F Y:00 P:35 SP:FB CYC:12239
C94D A9 7F    LDA #$7F			A:6B X:1F Y:00 P:35 SP:FB CYC:12241
C94F 69 7F    ADC #$7F			A:7F X:1F Y:00 P:35 SP:FB CYC:12243
C951 10 0B    BPL $C95E			A:FF X:1F Y:00 P:F4 SP:FB CYC:12245
C953 B0 09    BCS $C95E			A:FF X:1F Y:00 P:F4 SP:FB CYC:12248
C955 C9 FF    CMP #$FF			A:FF X:1F Y:00 P:F4 SP:FB CYC:12249
C957 D0 05    BNE $C95E			A:FF X:1F Y:00 P:F4 SP:FB CYC:12251
C95E A2 20    LDX #$20			A:FF X:1F Y:00 P:F4 SP:FB CYC:12254
C960 86 00    STX $00			A:FF X:20 Y:00 P:74 SP:FB CYC:12256
C962 EA       NOP 			A:FF X:20 Y:00 P:74 SP:FB CYC:12259
C963 18       CLC 			A:FF X:20 Y:00 P:74 SP:FB CYC:12261
C964 24 01    BIT $01			A:FF X:20 Y:00 P:74 SP:FB CYC:12263
C966 A9 7F    LDA #$7F			A:FF X:20 Y:00 P:F4 SP:FB CYC:12266
C968 69 80    ADC #$80			A:7F X:20 Y:00 P:74 SP:FB CYC:12268
C96A 10 0B    BPL $C977			A:FF X:20 Y:00 P:B4 SP:FB CYC:12270
C96C B0 09    BCS $C977			A:FF X:20 Y:00 P:B4 SP:FB CYC:12273
C96E C9 FF    CMP #$FF			A:FF X:20 Y:00 P:B4 SP:FB CYC:12274
C970 D0 05    BNE $C977			A:FF X:20 Y:00 P:B4 SP:FB CYC:12276
C977 A2 21    LDX #$21			A:FF X:20 Y:00 P:B4 SP:FB CYC:12279
C979 86 00    STX $00			A:FF X:21 Y:00 P:34 SP:FB CYC:12281
C97B EA       NOP 			A:FF X:21 Y:00 P:34 SP:FB CYC:12284
C97C 38       SEC 			A:FF X:21 Y:00 P:34 SP:FB CYC:12286
C97D B8       CLV 			A:FF X:21 Y:00 P:35 SP:FB CYC:12288
C97E A9 7F    LDA #$7F			A:FF X:21 Y:00 P:35 SP:FB CYC:12290
C980 69 80    ADC #$80			A:7F X:21 Y:00 P:35 SP:FB CYC:12292
C982 D0 09    BNE $C98D			A:00 X:21 Y:00 P:37 SP:FB CYC:12294
C984 30 07    BMI $C98D			A:00 X:21 Y:00 P:37 SP:FB CYC:12297
C986 70 05    BVS $C98D			A:00 X:21 Y:00 P:37 SP:FB CYC:12298
C988 90 03    BCC $C98D			A:00 X:21 Y:00 P:37 SP:FB CYC:12301
C98A 4C 91 C9 JMP $C991			A:00 X:21 Y:00 P:37 SP:FB CYC:12302
C991 EA       NOP 			A:00 X:21 Y:00 P:37 SP:FB CYC:12305
C992 38       SEC 			A:00 X:21 Y:00 P:37 SP:FB CYC:12307
C993 B8       CLV 			A:00 X:21 Y:00 P:37 SP:FB CYC:12309
C994 A9 9F    LDA #$9F			A:00 X:21 Y:00 P:37 SP:FB CYC:12311
C996 F0 09    BEQ $C9A1			A:9F X:21 Y:00 P:B5 SP:FB CYC:12313
C998 10 07    BPL $C9A1			A:9F X:21 Y:00 P:B5 SP:FB CYC:12316
C99A 70 05    BVS $C9A1			A:9F X:21 Y:00 P:B5 SP:FB CYC:12317
C99C 90 03    BCC $C9A1			A:9F X:21 Y:00 P:B5 SP:FB CYC:12320
C99E 4C A5 C9 JMP $C9A5			A:9F X:21 Y:00 P:B5 SP:FB CYC:12321
C9A5 EA       NOP 			A:9F X:21 Y:00 P:B5 SP:FB CYC:12324
C9A6 18       CLC 			A:9F X:21 Y:00 P:B5 SP:FB CYC:12326
C9A7 24 01    BIT $01			A:9F X:21 Y:00 P:B4 SP:FB CYC:12328
C9A9 A9 00    LDA #$00			A:9F X:21 Y:00 P:F4 SP:FB CYC:12331
C9AB D0 09    BNE $C9B6			A:00 X:21 Y:00 P:76 SP:FB CYC:12333
C9AD 30 07    BMI $C9B6			A:00 X:21 Y:00 P:76 SP:FB CYC:12336
C9AF 50 05    BVC $C9B6			A:00 X:21 Y:00 P:76 SP:FB CYC:12337
C9B1 B0 03    BCS $C9B6			A:00 X:21 Y:00 P:76 SP:FB CYC:12340
C9B3 4C BA C9 JMP $C9BA			A:00 X:21 Y:00 P:76 SP:FB CYC:12341
C9BA EA       NOP 			A:00 X:21 Y:00 P:76 SP:FB CYC:12344
C9BB 24 01    BIT $01			A:00 X:21 Y:00 P:76 SP:FB CYC:12346
C9BD A9 40    LDA #$40			A:00 X:21 Y:00 P:F6 SP:FB CYC:12349
C9BF C9 40    CMP #$40			A:40 X:21 Y:00 P:74 SP:FB CYC:12351
C9C1 30 09    BMI $C9CC			A:40 X:21 Y:00 P:F4 SP:FB CYC:12353
C9CC A2 24    LDX #$24			A:40 X:21 Y:00 P:F4 SP:FB CYC:12356
C9CE 86 00    STX $00			A:40 X:24 Y:00 P:74 SP:FB CYC:12358
C9D0 EA       NOP 			A:40 X:24 Y:00 P:74 SP:FB CYC:12361
C9D1 B8       CLV 			A:40 X:24 Y:00 P:74 SP:FB CYC:12363
C9D2 C9 3F    CMP #$3F			A:40 X:24 Y:00 P:34 SP:FB CYC:12365
C9D4 F0 09    BEQ $C9DF			A:40 X:24 Y:00 P:37 SP:FB CYC:12367
C9DF A2 25    LDX #$25			A:40 X:24 Y:00 P:37 SP:FB CYC:12370
C9E1 86 00    STX $00			A:40 X:25 Y:00 P:35 SP:FB CYC:12372
C9E3 EA       NOP 			A:40 X:25 Y:00 P:35 SP:FB CYC:12375
C9E4 C9 41    CMP #$41			A:40 X:25 Y:00 P:35 SP:FB CYC:12377
C9E6 F0 07    BEQ $C9EF			A:40 X:25 Y:00 P:B4 SP:FB CYC:12379
C9E8 10 05    BPL $C9EF			A:40 X:25 Y:00 P:B4 SP:FB CYC:12382
C9EA 10 03    BPL $C9EF			A:40 X:25 Y:00 P:B4 SP:FB CYC:12383
C9EC 4C F3 C9 JMP $C9F3			A:40 X:25 Y:00 P:B4 SP:FB CYC:12385
C9F3 EA       NOP 			A:40 X:25 Y:00 P:B4 SP:FB CYC:12388
C9F4 A9 80    LDA #$80			A:40 X:25 Y:00 P:B4 SP:FB CYC:12390
C9F6 C9 00    CMP #$00			A:80 X:25 Y:00 P:B4 SP:FB CYC:12392
C9F8 F0 07    BEQ $CA01			A:80 X:25 Y:00 P:35 SP:FB CYC:12394
C9FA 10 05    BPL $CA01			A:80 X:25 Y:00 P:35 SP:FB CYC:12396
C903 A9 70    LDA #$70			A:80 X:25 Y:00 P:35 SP:FB CYC:12399
C905 49 70    EOR #$70			A:70 X:25 Y:00 P:35 SP:FB CYC:12401
C907 D0 09    BNE $C912			A:00 X:25 Y:00 P:37 SP:FB CYC:12403
C909 70 07    BVS $C912			A:00 X:25 Y:00 P:37 SP:FB CYC:12406
C90B 90 05    BCC $C912			A:00 X:25 Y:00 P:37 SP:FB CYC:12407
C90D 30 03    BMI $C912			A:00 X:25 Y:00 P:37 SP:FB CYC:12410
C90F 4C 16 C9 JMP $C916			A:00 X:25 Y:00 P:37 SP:FB CYC:12411
C916 EA       NOP 			A:00 X:25 Y:00 P:37 SP:FB CYC:12414
C917 18       CLC 			A:00 X:25 Y:00 P:37 SP:FB CYC:12416
C918 24 01    BIT $01			A:00 X:25 Y:00 P:36 SP:FB CYC:12418
C91A A9 00    LDA #$00			A:00 X:25 Y:00 P:F6 SP:FB CYC:12421
C91C 69 69    ADC #$69			A:00 X:25 Y:00 P:76 SP:FB CYC:12423
C91E 30 0B    BMI $C92B			A:69 X:25 Y:00 P:34 SP:FB CYC:12425
C920 B0 09    BCS $C92B			A:69 X:25 Y:00 P:34 SP:FB CYC:12428
C922 C9 69    CMP #$69			A:69 X:25 Y:00 P:34 SP:FB CYC:12429
C924 D0 05    BNE $C92B			A:69 X:25 Y:00 P:B4 SP:FB CYC:12431
C92B A2 1E    LDX #$1E			A:69 X:25 Y:00 P:B4 SP:FB CYC:12434
C92D 86 00    STX $00			A:69 X:1E Y:00 P:34 SP:FB CYC:12436
C92F EA       NOP 			A:69 X:1E Y:00 P:34 SP:FB CYC:12439
C930 38       SEC 			A:69 X:1E Y:00 P:34 SP:FB CYC:12441
C931 F8       SED 			A:69 X:1E Y:00 P:35 SP:FB CYC:12443
C932 24 01    BIT $01			A:69 X:1E Y:00 P:3D SP:FB CYC:12445
C934 A9 01    LDA #$01			A:69 X:1E Y:00 P:FD SP:FB CYC:12448
C936 69 69    ADC #$69			A:01 X:1E Y:00 P:7D SP:FB CYC:12450
C938 30 0B    BMI $C945			A:6B X:1E Y:00 P:3C SP:FB CYC:12452
C93A B0 09    BCS $C945			A:6B X:1E Y:00 P:3C SP:FB CYC:12455
C93C C9 6B    CMP #$6B			A:6B X:1E Y:00 P:3C SP:FB CYC:12456
C93E D0 05    BNE $C945			A:6B X:1E Y:00 P:BC SP:FB CYC:12458
C945 A2 1F    LDX #$1F			A:6B X:1E Y:00 P:BC SP:FB CYC:12461
C947 86 00    STX $00			A:6B X:1F Y:00 P:3C SP:FB CYC:12463
C949 EA       NOP 			A:6B X:1F Y:00 P:3C SP:FB CYC:12466
C94A D8       CLD 			A:6B X:1F Y:00 P:3C SP:FB CYC:12468
C94B 38       SEC 			A:6B X:1F Y:00 P:34 SP:FB CYC:12470
C94C B8       CLV 			A:6B X:1F Y:00 P:35 SP:FB CYC:12472
C94D A9 7F    LDA #$7F			A:6B X:1F Y:00 P:35 SP:FB CYC:12474
C94F 69 7F    ADC #$7F			A:7F X:1F Y:00 P:35 SP:FB CYC:12476
C951 10 0B    BPL $C95E			A:FF X:1F Y:00 P:F4 SP:FB CYC:12478
C953 B0 09    BCS $C95E			A:FF X:1F Y:00 P:F4 SP:FB CYC:12481
C955 C9 FF    CMP #$FF			A:FF X:1F Y:00 P:F4 SP:FB CYC:12482
C957 D0 05    BNE $C95E			A:FF X:1F Y:00 P:F4 SP:FB CYC:12484
C95E A2 20    LDX #$20			A:FF X:1F Y:00 P:F4 SP:FB CYC:12487
C960 86 00    STX $00			A:FF X:20 Y:00 P:74 SP:FB CYC:12489
C962 EA       NOP 			A:FF X:20 Y:00 P:74 SP:FB CYC:12492
C963 18       CLC 			A:FF X:20 Y:00 P:74 SP:FB CYC:12494
C964 24 01    BIT $01			A:FF X:20 Y:00 P:74 SP:FB CYC:12496
C966 A9 7F    LDA #$7F			A:FF X:20 Y:00 P:F4 SP:FB CYC:12499
C968 69 80    ADC #$80			A:7F X:20 Y:00 P:74 SP:FB CYC:12501
C96A 10 0B    BPL $C977			A:FF X:20 Y:00 P:B4 SP:FB CYC:12503
C96C B0 09    BCS $C977			A:FF X:20 Y:00 P:B4 SP:FB CYC:12506
C96E C9 FF    CMP #$FF			A:FF X:20 Y:00 P:B4 SP:FB CYC:12507
C970 D0 05    BNE $C977			A:FF X:20 Y:00 P:B4 SP:FB CYC:12509
C977 A2 21    LDX #$21			A:FF X:20 Y:00 P:B4 SP:FB CYC:12512
C979 86 00    STX $00			A:FF X:21 Y:00 P:34 SP:FB CYC:12514
C97B EA       NOP 			A:FF X:21 Y:00 P:34 SP:FB CYC:12517
C97C 38       SEC 			A:FF X:21 Y:00 P:34 SP:FB CYC:12519
C97D B8       CLV 			A:FF X:21 Y:00 P:35 SP:FB CYC:12521
C97E A9 7F    LDA #$7F			A:FF X:21 Y:00 P:35 SP:FB CYC:12523
C980 69 80    ADC #$80			A:7F X:21 Y:00 P:35 SP:FB CYC:12525
C982 D0 09    BNE $C98D			A:00 X:21 Y:00 P:37 SP:FB CYC:12527
C984 30 07    BMI $C98D			A:00 X:21 Y:00 P:37 SP:FB CYC:12530
C986 70 05    BVS $C98D			A:00 X:21 Y:00 P:37 SP:FB CYC:12531
C988 90 03    BCC $C98D			A:00 X:21 Y:00 P:37 SP:FB CYC:12534
C98A 4C 91 C9 JMP $C991			A:00 X:21 Y:00 P:37 SP:FB CYC:12535
C991 EA       NOP 			A:00 X:21 Y:00 P:37 SP:FB CYC:12538
C992 38       SEC 			A:00 X:21 Y:00 P:37 SP:FB CYC:12540
C993 B8       CLV 			A:00 X:21 Y:00 P:37 SP:FB CYC:12542
C994 A9 9F    LDA #$9F			A:00 X:21 Y:00 P:37 SP:FB CYC:12544
C996 F0 09    BEQ $C9A1			A:9F X:21 Y:00 P:B5 SP:FB CYC:12546
C998 10 07    BPL $C9A1			A:9F X:21 Y:00 P:B5 SP:FB CYC:12549
C99A 70 05    BVS $C9A1			A:9F X:21 Y:00 P:B5 SP:FB CYC:12550
C99C 90 03    BCC $C9A1			A:9F X:21 Y:00 P:B5 SP:FB CYC:12553
C99E 4C A5 C9 JMP $C9A5			A:9F X:21 Y:00 P:B5 SP:FB CYC:12554
C9A5 EA       NOP 			A:9F X:21 Y:00 P:B5 SP:FB CYC:12557
C9A6 18       CLC 			A:9F X:21 Y:00 P:B5 SP:FB CYC:12559
C9A7 24 01    BIT $01			A:9F X:21 Y:00 P:B4 SP:FB CYC:12561
C9A9 A9 00    LDA #$00			A:9F X:21 Y:00 P:F4 SP:FB CYC:12564
C9AB D0 09    BNE $C9B6			A:00 X:21 Y:00 P:76 SP:FB CYC:12566
C9AD 30 07    BMI $C9B6			A:00 X:21 Y:00 P:76 SP:FB CYC:12569
C9AF 50 05    BVC $C9B6			A:00 X:21 Y:00 P:76 SP:FB CYC:12570
C9B1 B0 03    BCS $C9B6			A:00 X:21 Y:00 P:76 SP:FB CYC:12573
C9B3 4C BA C9 JMP $C9BA			A:00 X:21 Y:00 P:76 SP:FB CYC:12574
C9BA EA       NOP 			A:00 X:21 Y:00 P:76 SP:FB CYC:12577
C9BB 24 01    BIT $01			A:00 X:21 Y:00 P:76 SP:FB CYC:12579
C9BD A9 40    LDA #$40			A:00 X:21 Y:00 P:F6 SP:FB CYC:12582
C9BF C9 40    CMP #$40			A:40 X:21 Y:00 P:74 SP:FB CYC:12584
C9C1 30 09    BMI $C9CC			A:40 X:21 Y:00 P:F4 SP:FB CYC:12586
C9CC A2 24    LDX #$24			A:40 X:21 Y:00 P:F4 SP:FB CYC:12589
C9CE 86 00    STX $00			A:40 X:24 Y:00 P:74 SP:FB CYC:12591
C9D0 EA       NOP 			A:40 X:24 Y:00 P:74 SP:FB CYC:12594
C9D1 B8       CLV 			A:40 X:24 Y:00 P:74 SP:FB CYC:12596
C9D2 C9 3F    CMP #$3F			A:40 X:24 Y:00 P:34 SP:FB CYC:12598
C9D4 F0 09    BEQ $C9DF			A:40 X:24 Y:00 P:37 SP:FB CYC:12600
C9DF A2 25    LDX #$25			A:40 X:24 Y:00 P:37 SP:FB CYC:12603
C9E1 86 00    STX $00			A:40 X:25 Y:00 P:35 SP:FB CYC:12605
C9E3 EA       NOP 			A:40 X:25 Y:00 P:35 SP:FB CYC:12608
C9E4 C9 41    CMP #$41			A:40 X:25 Y:00 P:35 SP:FB CYC:12610
C9E6 F0 07    BEQ $C9EF			A:40 X:25 Y:00 P:B4 SP:FB CYC:12612
C9E8 10 05    BPL $C9EF			A:40 X:25 Y:00 P:B4 SP:FB CYC:12615
C9EA 10 03    BPL $C9EF			A:40 X:25 Y:00 P:B4 SP:FB CYC:12616
C9EC 4C F3 C9 JMP $C9F3			A:40 X:25 Y:00 P:B4 SP:FB CYC:12618
C9F3 EA       NOP 			A:40 X:25 Y:00 P:B4 SP:FB CYC:12621
C9F4 A9 80    LDA #$80			A:40 X:25 Y:00 P:B4 SP:FB CYC:12623
C9F6 C9 00    CMP #$00			A:80 X:25 Y:00 P:B4 SP:FB CYC:12625
C9F8 F0 07    BEQ $CA01			A:80 X:25 Y:00 P:35 SP:FB CYC:12627
C9FA 10 05    BPL $CA01			A:80 X:25 Y:00 P:35 SP:FB CYC:12629
C903 A9 70    LDA #$70			A:80 X:25 Y:00 P:35 SP:FB CYC:12632
C905 49 70    EOR #$70			A:70 X:25 Y:00 P:35 SP:FB CYC:12634
C907 D0 09    BNE $C912			A:00 X:25 Y:00 P:37 SP:FB CYC:12636
C909 70 07    BVS $C912			A:00 X:25 Y:00 P:37 SP:FB CYC:12639
C90B 90 05    BCC $C912			A:00 X:25 Y:00 P:37 SP:FB CYC:12640
C90D 30 03    BMI $C912			A:00 X:25 Y:00 P:37 SP:FB CYC:12643
C90F 4C 16 C9 JMP $C916			A:00 X:25 Y:00 P:37 SP:FB CYC:12644
C916 EA       NOP 			A:00 X:25 Y:00 P:37 SP:FB CYC:12647
C917 18       CLC 			A:00 X:25 Y:00 P:37 SP:FB CYC:12649
C918 24 01    BIT $01			A:00 X:25 Y:00 P:36 SP:FB CYC:12651
C91A A9 00    LDA #$00			A:00 X:25 Y:00 P:F6 SP:FB CYC:12654
C91C 69 69    ADC #$69			A:00 X:25 Y:00 P:76 SP:FB CYC:12656
C91E 30 0B    BMI $C92B			A:69 X:25 Y:00 P:34 SP:FB CYC:12658
C920 B0 09    BCS $C92B			A:69 X:25 Y:00 P:34 SP:FB CYC:12661
C922 C9 69    CMP #$69			A:69 X:25 Y:00 P:34 SP:FB CYC:12662
C924 D0 05    BNE $C92B			A:69 X:25 Y:00 P:B4 SP:FB CYC:12664
C92B A2 1E    LDX #$1E			A:69 X:25 Y:00 P:B4 SP:FB CYC:12667
C92D 86 00    STX $00			A:69 X:1E Y:00 P:34 SP:FB CYC:12669
C92F EA       NOP 			A:69 X:1E Y:00 P:34 SP:FB CYC:12672
C930 38       SEC 			A:69 X:1E Y:00 P:34 SP:FB CYC:12674
C931 F8       SED 			A:69 X:1E Y:00 P:35 SP:FB CYC:12676
C932 24 01    BIT $01			A:69 X:1E Y:00 P:3D SP:FB CYC:12678
C934 A9 01    LDA #$01			A:69 X:1E Y:00 P:FD SP:FB CYC:12681
C936 69 69    ADC #$69			A:01 X:1E Y:00 P:7D SP:FB CYC:12683
C938 30 0B    BMI $C945			A:6B X:1E Y:00 P:3C SP:FB CYC:12685
C93A B0 09    BCS $C945			A:6B X:1E Y:00 P:3C SP:FB CYC:12688
C93C C9 6B    CMP #$6B			A:6B X:1E Y:00 P:3C SP:FB CYC:12689
C93E D0 05    BNE $C945			A:6B X:1E Y:00 P:BC SP:FB CYC:12691
C945 A2 1F    LDX #$1F			A:6B X:1E Y:00 P:BC SP:FB CYC:12694
C947 86 00    STX $00			A:6B X:1F Y:00 P:3C SP:FB CYC:12696
C949 EA       NOP 			A:6B X:1F Y:00 P:3C SP:FB CYC:12699
C94A D8       CLD 			A:6B X:1F Y:00 P:3C SP:FB CYC:12701
C94B 38       SEC 			A:6B X:1F Y:00 P:34 SP:FB CYC:12703
C94C B8       CLV 			A:6B X:1F Y:00 P:35 SP:FB CYC:12705
C94D A9 7F    LDA #$7F			A:6B X:1F Y:00 P:35 SP:FB CYC:12707
C94F 69 7F    ADC #$7F			A:7F X:1F Y:00 P:35 SP:FB CYC:12709
C951 10 0B    BPL $C95E			A:FF X:1F Y:00 P:F4 SP:FB CYC:12711
C953 B0 09    BCS $C95E			A:FF X:1F Y:00 P:F4 SP:FB CYC:12714
C955 C9 FF    CMP #$FF			A:FF X:1F Y:00 P:F4 SP:FB CYC:12715
C957 D0 05    BNE $C95E			A:FF X:1F Y:00 P:F4 SP:FB CYC:12717
C95E A2 20    LDX #$20			A:FF X:1F Y:00 P:F4 SP:FB CYC:12720
C960 86 00    STX $00			A:FF X:20 Y:00 P:74 SP:FB CYC:12722
C962 EA       NOP 			A:FF X:20 Y:00 P:74 SP:FB CYC:12725
C963 18       CLC 			A:FF X:20 Y:00 P:74 SP:FB CYC:12727
C964 24 01    BIT $01			A:FF X:20 Y:00 P:74 SP:FB CYC:12729
C966 A9 7F    LDA #$7F			A:FF X:20 Y:00 P:F4 SP:FB CYC:12732
C968 69 80    ADC #$80			A:7F X:20 Y:00 P:74 SP:FB CYC:12734
C96A 10 0B    BPL $C977			A:FF X:20 Y:00 P:B4 SP:FB CYC:12736
C96C B0 09    BCS $C977			A:FF X:20 Y:00 P:B4 SP:FB CYC:12739
C96E C9 FF    CMP #$FF			A:FF X:20 Y:00 P:B4 SP:FB CYC:12740
C970 D0 05    BNE $C977			A:FF X:20 Y:00 P:B4 SP:FB CYC:12742
C977 A2 21    LDX #$21			A:FF X:20 Y:00 P:B4 SP:FB CYC:12745
C979 86 00    STX $00			A:FF X:21 Y:00 P:34 SP:FB CYC:12747
C97B EA       NOP 			A:FF X:21 Y:00 P:34 SP:FB CYC:12750
C97C 38       SEC 			A:FF X:21 Y:00 P:34 SP:FB CYC:12752
C97D B8       CLV 			A:FF X:21 Y:00 P:35 SP:FB CYC:12754
C97E A9 7F    LDA #$7F			A:FF X:21 Y:00 P:35 SP:FB CYC:12756
C980 69 80    ADC #$80			A:7F X:21 Y:00 P:35 SP:FB CYC:12758
C982 D0 09    BNE $C98D			A:00 X:21 Y:00 P:37 SP:FB CYC:12760
C984 30 07    BMI $C98D			A:00 X:21 Y:00 P:37 SP:FB CYC:12763
C986 70 05    BVS $C98D			A:00 X:21 Y:00 P:37 SP:FB CYC:12764
C988 90 03    BCC $C98D			A:00 X:21 Y:00 P:37 SP:FB CYC:12767
C98A 4C 91 C9 JMP $C991			A:00 X:21 Y:00 P:37 SP:FB CYC:12768
C991 EA       NOP 			A:00 X:21 Y:00 P:37 SP:FB CYC:12771
C992 38       SEC 			A:00 X:21 Y:00 P:37 SP:FB CYC:12773
C993 B8       CLV 			A:00 X:21 Y:00 P:37 SP:FB CYC:12775
C994 A9 9F    LDA #$9F			A:00 X:21 Y:00 P:37 SP:FB CYC:12777
C996 F0 09    BEQ $C9A1			A:9F X:21 Y:00 P:B5 SP:FB CYC:12779
C998 10 07    BPL $C9A1			A:9F X:21 Y:00 P:B5 SP:FB CYC:12782
C99A 70 05    BVS $C9A1			A:9F X:21 Y:00 P:B5 SP:FB CYC:12783
C99C 90 03    BCC $C9A1			A:9F X:21 Y:00 P:B5 SP:FB CYC:12786
C99E 4C A5 C9 JMP $C9A5			A:9F X:21 Y:00 P:B5 SP:FB CYC:12787
C9A5 EA       NOP 			A:9F X:21 Y:00 P:B5 SP:FB CYC:12790
C9A6 18       CLC 			A:9F X:21 Y:00 P:B5 SP:FB CYC:12792
C9A7 24 01    BIT $01			A:9F X:21 Y:00 P:B4 SP:FB CYC:12794
C9A9 A9 00    LDA #$00			A:9F X:21 Y:00 P:F4 SP:FB CYC:12797
C9AB D0 09    BNE $C9B6			A:00 X:21 Y:00 P:76 SP:FB CYC:12799
C9AD 30 07    BMI $C9B6			A:00 X:21 Y:00 P:76 SP:FB CYC:12802
C9AF 50 05    BVC $C9B6			A:00 X:21 Y:00 P:76 SP:FB CYC:12803
C9B1 B0 03    BCS $C9B6			A:00 X:21 Y:00 P:76 SP:FB CYC:12806
C9B3 4C BA C9 JMP $C9BA			A:00 X:21 Y:00 P:76 SP:FB CYC:12807
C9BA EA       NOP 			A:00 X:21 Y:00 P:76 SP:FB CYC:12810
C9BB 24 01    BIT $01			A:00 X:21 Y:00 P:76 SP:FB CYC:12812
C9BD A9 40    LDA #$40			A:00 X:21 Y:00 P:F6 SP:FB CYC:12815
C9BF C9 40    CMP #$40			A:40 X:21 Y:00 P:74 SP:FB CYC:12817
C9C1 30 09    BMI $C9CC			A:40 X:21 Y:00 P:F4 SP:FB CYC:12819
C9CC A2 24    LDX #$24			A:40 X:21 Y:00 P:F4 SP:FB CYC:12822
C9CE 86 00    STX $00			A:40 X:24 Y:00 P:74 SP:FB CYC:12824
C9D0 EA       NOP 			A:40 X:24 Y:00 P:74 SP:FB CYC:12827
C9D1 B8       CLV 			A:40 X:24 Y:00 P:74 SP:FB CYC:12829
C9D2 C9 3F    CMP #$3F			A:40 X:24 Y:00 P:34 SP:FB CYC:12831
C9D4 F0 09    BEQ $C9DF			A:40 X:24 Y:00 P:37 SP:FB CYC:12833
C9DF A2 25    LDX #$25			A:40 X:24 Y:00 P:37 SP:FB CYC:12836
C9E1 86 00    STX $00			A:40 X:25 Y:00 P:35 SP:FB CYC:12838
C9E3 EA       NOP 			A:40 X:25 Y:00 P:35 SP:FB CYC:12841
C9E4 C9 41    CMP #$41			A:40 X:25 Y:00 P:35 SP:FB CYC:12843
C9E6 F0 07    BEQ $C9EF			A:40 X:25 Y:00 P:B4 SP:FB CYC:12845
C9E8 10 05    BPL $C9EF			A:40 X:25 Y:00 P:B4 SP:FB CYC:12848
C9EA 10 03    BPL $C9EF			A:40 X:25 Y:00 P:B4 SP:FB CYC:12849
C9EC 4C F3 C9 JMP $C9F3			A:40 X:25 Y:00 P:B4 SP:FB CYC:12851
C9F3 EA       NOP 			A:40 X:25 Y:00 P:B4 SP:FB CYC:12854
C9F4 A9 80    LDA #$80			A:40 X:25 Y:00 P:B4 SP:FB CYC:12856
C9F6 C9 00    CMP #$00			A:80 X:25 Y:00 P:B4 SP:FB CYC:12858
C9F8 F0 07    BEQ $CA01			A:80 X:25 Y:00 P:35 SP:FB CYC:12860
C9FA 10 05    BPL $CA01			A:80 X:25 Y:00 P:35 SP:FB CYC:12862
C903 A9 70    LDA #$70			A:80 X:25 Y:00 P:35 SP:FB CYC:12865
C905 49 70    EOR #$70			A:70 X:25 Y:00 P:35 SP:FB CYC:12867
C907 D0 09    BNE $C912			A:00 X:25 Y:00 P:37 SP:FB CYC:12869
C909 70 07    BVS $C912			A:00 X:25 Y:00 P:37 SP:FB CYC:12872
C90B 90 05    BCC $C912			A:00 X:25 Y:00 P:37 SP:FB CYC:12873
C90D 30 03    BMI $C912			A:00 X:25 Y:00 P:37 SP:FB CYC:12876
C90F 4C 16 C9 JMP $C916			A:00 X:25 Y:00 P:37 SP:FB CYC:12877
C916 EA       NOP 			A:00 X:25 Y:00 P:37 SP:FB CYC:12880
C917 18       CLC 			A:00 X:25 Y:00 P:37 SP:FB CYC:12882
C918 24 01    BIT $01			A:00 X:25 Y:00 P:36 SP:FB CYC:12884
C91A A9 00    LDA #$00			A:00 X:25 Y:00 P:F6 SP:FB CYC:12887
C91C 69 69    ADC #$69			A:00 X:25 Y:00 P:76 SP:FB CYC:12889
C91E 30 0B    BMI $C92B			A:69 X:25 Y:00 P:34 SP:FB CYC:12891
C920 B0 09    BCS $C92B			A:69 X:25 Y:00 P:34 SP:FB CYC:12894
C922 C9 69    CMP #$69			A:69 X:25 Y:00 P:34 SP:FB CYC:12895
C924 D0 05    BNE $C92B			A:69 X:25 Y:00 P:B4 SP:FB CYC:12897
C92B A2 1E    LDX #$1E			A:69 X:25 Y:00 P:B4 SP:FB CYC:12900
C92D 86 00    STX $00			A:69 X:1E Y:00 P:34 SP:FB CYC:12902
C92F EA       NOP 			A:69 X:1E Y:00 P:34 SP:FB CYC:12905
C930 38       SEC 			A:69 X:1E Y:00 P:34 SP:FB CYC:12907
C931 F8       SED 			A:69 X:1E Y:00 P:35 SP:FB CYC:12909
C932 24 01    BIT $01			A:69 X:1E Y:00 P:3D SP:FB CYC:12911
C934 A9 01    LDA #$01			A:69 X:1E Y:00 P:FD SP:FB CYC:12914
C936 69 69    ADC #$69			A:01 X:1E Y:00 P:7D SP:FB CYC:12916
C938 30 0B    BMI $C945			A:6B X:1E Y:00 P:3C SP:FB CYC:12918
C93A B0 09    BCS $C945			A:6B X:1E Y:00 P:3C SP:FB CYC:12921
C93C C9 6B    CMP #$6B			A:6B X:1E Y:00 P:3C SP:FB CYC:12922
C93E D0 05    BNE $C945			A:6B X:1E Y:00 P:BC SP:FB CYC:12924
C945 A2 1F    LDX #$1F			A:6B X:1E Y:00 P:BC SP:FB CYC:12927
C947 86 00    STX $00			A:6B X:1F Y:00 P:3C SP:FB CYC:12929
C949 EA       NOP 			A:6B X:1F Y:00 P:3C SP:FB CYC:12932
C94A D8       CLD 			A:6B X:1F Y:00 P:3C SP:FB CYC:12934
C94B 38       SEC 			A:6B X:1F Y:00 P:34 SP:FB CYC:12936
C94C B8       CLV 			A:6B X:1F Y:00 P:35 SP:FB CYC:12938
C94D A9 7F    LDA #$7F			A:6B X:1F Y:00 P:35 SP:FB CYC:12940
C94F 69 7F    ADC #$7F			A:7F X:1F Y:00 P:35 SP:FB CYC:12942
C951 10 0B    BPL $C95E			A:FF X:1F Y:00 P:F4 SP:FB CYC:12944
C953 B0 09    BCS $C95E			A:FF X:1F Y:00 P:F4 SP:FB CYC:12947
C955 C9 FF    CMP #$FF			A:FF X:1F Y:00 P:F4 SP:FB CYC:12948
C957 D0 05    BNE $C95E			A:FF X:1F Y:00 P:F4 SP:FB CYC:12950
C95E A2 20    LDX #$20			A:FF X:1F Y:00 P:F4 SP:FB CYC:12953
C960 86 00    STX $00			A:FF X:20 Y:00 P:74 SP:FB CYC:12955
C962 EA       NOP 			A:FF X:20 Y:00 P:74 SP:FB CYC:12958
C963 18       CLC 			A:FF X:20 Y:00 P:74 SP:FB CYC:12960
C964 24 01    BIT $01			A:FF X:20 Y:00 P:74 SP:FB CYC:12962
C966 A9 7F    LDA #$7F			A:FF X:20 Y:00 P:F4 SP:FB CYC:12965
C968 69 80    ADC #$80			A:7F X:20 Y:00 P:74 SP:FB CYC:12967
C96A 10 0B    BPL $C977			A:FF X:20 Y:00 P:B4 SP:FB CYC:12969
C96C B0 09    BCS $C977			A:FF X:20 Y:00 P:B4 SP:FB CYC:12972
C96E C9 FF    CMP #$FF			A:FF X:20 Y:00 P:B4 SP:FB CYC:12973
C970 D0 05    BNE $C977			A:FF X:20 Y:00 P:B4 SP:FB CYC:12975
C977 A2 21    LDX #$21			A:FF X:20 Y:00 P:B4 SP:FB CYC:12978
C979 86 00    STX $00			A:FF X:21 Y:00 P:34 SP:FB CYC:12980
C97B EA       NOP 			A:FF X:21 Y:00 P:34 SP:FB CYC:12983
C97C 38       SEC 			A:FF X:21 Y:00 P:34 SP:FB CYC:12985
C97D B8       CLV 			A:FF X:21 Y:00 P:35 SP:FB CYC:12987
C97E A9 7F    LDA #$7F			A:FF X:21 Y:00 P:35 SP:FB CYC:12989
C980 69 80    ADC #$80			A:7F X:21 Y:00 P:35 SP:FB CYC:12991
C982 D0 09    BNE $C98D			A:00 X:21 Y:00 P:37 SP:FB CYC:12993
C984 30 07    BMI $C98D			A:00 X:21 Y:00 P:37 SP:FB CYC:12996
C986 70 05    BVS $C98D			A:00 X:21 Y:00 P:37 SP:FB CYC:12997
C988 90 03    BCC $C98D			A:00 X:21 Y:00 P:37 SP:FB CYC:13000
C98A 4C 91 C9 JMP $C991			A:00 X:21 Y:00 P:37 SP:FB CYC:13001
C991 EA       NOP 			A:00 X:21 Y:00 P:37 SP:FB CYC:13004
C992 38       SEC 			A:00 X:21 Y:00 P:37 SP:FB CYC:13006
C993 B8       CLV 			A:00 X:21 Y:00 P:37 SP:FB CYC:13008
C994 A9 9F    LDA #$9F			A:00 X:21 Y:00 P:37 SP:FB CYC:13010
C996 F0 09    BEQ $C9A1			A:9F X:21 Y:00 P:B5 SP:FB CYC:13012
C998 10 07    BPL $C9A1			A:9F X:21 Y:00 P:B5 SP:FB CYC:13015
C99A 70 05    BVS $C9A1			A:9F X:21 Y:00 P:B5 SP:FB CYC:13016
C99C 90 03    BCC $C9A1			A:9F X:21 Y:00 P:B5 SP:FB CYC:13019
C99E 4C A5 C9 JMP $C9A5			A:9F X:21 Y:00 P:B5 SP:FB CYC:13020
C9A5 EA       NOP 			A:9F X:21 Y:00 P:B5 SP:FB CYC:13023
C9A6 18       CLC 			A:9F X:21 Y:00 P:B5 SP:FB CYC:13025
C9A7 24 01    BIT $01			A:9F X:21 Y:00 P:B4 SP:FB CYC:13027
C9A9 A9 00    LDA #$00			A:9F X:21 Y:00 P:F4 SP:FB CYC:13030
C9AB D0 09    BNE $C9B6			A:00 X:21 Y:00 P:76 SP:FB CYC:13032
C9AD 30 07    BMI $C9B6			A:00 X:21 Y:00 P:76 SP:FB CYC:13035
C9AF 50 05    BVC $C9B6			A:00 X:21 Y:00 P:76 SP:FB CYC:13036
C9B1 B0 03    BCS $C9B6			A:00 X:21 Y:00 P:76 SP:FB CYC:13039
C9B3 4C BA C9 JMP $C9BA			A:00 X:21 Y:00 P:76 SP:FB CYC:13040
C9BA EA       NOP 			A:00 X:21 Y:00 P:76 SP:FB CYC:13043
C9BB 24 01    BIT $01			A:00 X:21 Y:00 P:76 SP:FB CYC:13045
C9BD A9 40    LDA #$40			A:00 X:21 Y:00 P:F6 SP:FB CYC:13048
C9BF C9 40    CMP #$40			A:40 X:21 Y:00 P:74 SP:FB CYC:13050
C9C1 30 09    BMI $C9CC			A:40 X:21 Y:00 P:F4 SP:FB CYC:13052
C9CC A2 24    LDX #$24			A:40 X:21 Y:00 P:F4 SP:FB CYC:13055
C9CE 86 00    STX $00			A:40 X:24 Y:00 P:74 SP:FB CYC:13057
C9D0 EA       NOP 			A:40 X:24 Y:00 P:74 SP:FB CYC:13060
C9D1 B8       CLV 			A:40 X:24 Y:00 P:74 SP:FB CYC:13062
C9D2 C9 3F    CMP #$3F			A:40 X:24 Y:00 P:34 SP:FB CYC:13064
C9D4 F0 09    BEQ $C9DF			A:40 X:24 Y:00 P:37 SP:FB CYC:13066
C9DF A2 25    LDX #$25			A:40 X:24 Y:00 P:37 SP:FB CYC:13069
C9E1 86 00    STX $00			A:40 X:25 Y:00 P:35 SP:FB CYC:13071
C9E3 EA       NOP 			A:40 X:25 Y:00 P:35 SP:FB CYC:13074
C9E4 C9 41    CMP #$41			A:40 X:25 Y:00 P:35 SP:FB CYC:13076
C9E6 F0 07    BEQ $C9EF			A:40 X:25 Y:00 P:B4 SP:FB CYC:13078
C9E8 10 05    BPL $C9EF			A:40 X:25 Y:00 P:B4 SP:FB CYC:13081
C9EA 10 03    BPL $C9EF			A:40 X:25 Y:00 P:B4 SP:FB CYC:13082
C9EC 4C F3 C9 JMP $C9F3			A:40 X:25 Y:00 P:B4 SP:FB CYC:13084
C9F3 EA       NOP 			A:40 X:25 Y:00 P:B4 SP:FB CYC:13087
C9F4 A9 80    LDA #$80			A:40 X:25 Y:00 P:B4 SP:FB CYC:13089
C9F6 C9 00    CMP #$00			A:80 X:25 Y:00 P:B4 SP:FB CYC:13091
C9F8 F0 07    BEQ $CA01			A:80 X:25 Y:00 P:35 SP:FB CYC:13093
C9FA 10 05    BPL $CA01			A:80 X:25 Y:00 P:35 SP:FB CYC:13095
C903 A9 70    LDA #$70			A:80 X:25 Y:00 P:35 SP:FB CYC:13098
C905 49 70    EOR #$70			A:70 X:25 Y:00 P:35 SP:FB CYC:13100
C907 D0 09    BNE $C912			A:00 X:25 Y:00 P:37 SP:FB CYC:13102
C909 70 07    BVS $C912			A:00 X:25 Y:00 P:37 SP:FB CYC:13105
C90B 90 05    BCC $C912			A:00 X:25 Y:00 P:37 SP:FB CYC:13106
C90D 30 03    BMI $C912			A:00 X:25 Y:00 P:37 SP:FB CYC:13109
C90F 4C 16 C9 JMP $C916			A:00 X:25 Y:00 P:37 SP:FB CYC:13110
C916 EA       NOP 			A:00 X:25 Y:00 P:37 SP:FB CYC:13113
C917 18       CLC 			A:00 X:25 Y:00 P:37 SP:FB CYC:13115
C918 24 01    BIT $01			A:00 X:25 Y:00 P:36 SP:FB CYC:13117
C91A A9 00    LDA #$00			A:00 X:25 Y:00 P:F6 SP:FB CYC:13120
C91C 69 69    ADC #$69			A:00 X:25 Y:00 P:76 SP:FB CYC:13122
C91E 30 0B    BMI $C92B			A:69 X:25 Y:00 P:34 SP:FB CYC:13124
C920 B0 09    BCS $C92B			A:69 X:25 Y:00 P:34 SP:FB CYC:13127
C922 C9 69    CMP #$69			A:69 X:25 Y:00 P:34 SP:FB CYC:13128
C924 D0 05    BNE $C92B			A:69 X:25 Y:00 P:B4 SP:FB CYC:13130
C92B A2 1E    LDX #$1E			A:69 X:25 Y:00 P:B4 SP:FB CYC:13133
C92D 86 00    STX $00			A:69 X:1E Y:00 P:34 SP:FB CYC:13135
C92F EA       NOP 			A:69 X:1E Y:00 P:34 SP:FB CYC:13138
C930 38       SEC 			A:69 X:1E Y:00 P:34 SP:FB CYC:13140
C931 F8       SED 			A:69 X:1E Y:00 P:35 SP:FB CYC:13142
C932 24 01    BIT $01			A:69 X:1E Y:00 P:3D SP:FB CYC:13144
C934 A9 01    LDA #$01			A:69 X:1E Y:00 P:FD SP:FB CYC:13147
C936 69 69    ADC #$69			A:01 X:1E Y:00 P:7D SP:FB CYC:13149
C938 30 0B    BMI $C945			A:6B X:1E Y:00 P:3C SP:FB CYC:13151
C93A B0 09    BCS $C945			A:6B X:1E Y:00 P:3C SP:FB CYC:13154
C93C C9 6B    CMP #$6B			A:6B X:1E Y:00 P:3C SP:FB CYC:13155
C93E D0 05    BNE $C945			A:6B X:1E Y:00 P:BC SP:FB CYC:13157
C945 A2 1F    LDX #$1F			A:6B X:1E Y:00 P:BC SP:FB CYC:13160
C947 86 00    STX $00			A:6B X:1F Y:00 P:3C SP:FB CYC:13162
C949 EA       NOP 			A:6B X:1F Y:00 P:3C SP:FB CYC:13165
C94A D8       CLD 			A:6B X:1F Y:00 P:3C SP:FB CYC:13167
C94B 38       SEC 			A:6B X:1F Y:00 P:34 SP:FB CYC:13169
C94C B8       CLV 			A:6B X:1F Y:00 P:35 SP:FB CYC:13171
C94D A9 7F    LDA #$7F			A:6B X:1F Y:00 P:35 SP:FB CYC:13173
C94F 69 7F    ADC #$7F			A:7F X:1F Y:00 P:35 SP:FB CYC:13175
C951 10 0B    BPL $C95E			A:FF X:1F Y:00 P:F4 SP:FB CYC:13177
C953 B0 09    BCS $C95E			A:FF X:1F Y:00 P:F4 SP:FB CYC:13180
C955 C9 FF    CMP #$FF			A:FF X:1F Y:00 P:F4 SP:FB CYC:13181
C957 D0 05    BNE $C95E			A:FF X:1F Y:00 P:F4 SP:FB CYC:13183
C95E A2 20    LDX #$20			A:FF X:1F Y:00 P:F4 SP:FB CYC:13186
C960 86 00    STX $00			A:FF X:20 Y:00 P:74 SP:FB CYC:13188
C962 EA       NOP 			A:FF X:20 Y:00 P:74 SP:FB CYC:13191
C963 18       CLC 			A:FF X:20 Y:00 P:74 SP:FB CYC:13193
C964 24 01    BIT $01			A:FF X:20 Y:00 P:74 SP:FB CYC:13195
C966 A9 7F    LDA #$7F			A:FF X:20 Y:00 P:F4 SP:FB CYC:13198
C968 69 80    ADC #$80			A:7F X:20 Y:00 P:74 SP:FB CYC:13200
C96A 10 0B    BPL $C977			A:FF X:20 Y:00 P:B4 SP:FB CYC:13202
C96C B0 09    BCS $C977			A:FF X:20 Y:00 P:B4 SP:FB CYC:13205
C96E C9 FF    CMP #$FF			A:FF X:20 Y:00 P:B4 SP:FB CYC:13206
C970 D0 05    BNE $C977			A:FF X:20 Y:00 P:B4 SP:FB CYC:13208
C977 A2 21    LDX #$21			A:FF X:20 Y:00 P:B4 SP:FB CYC:13211
C979 86 00    STX $00			A:FF X:21 Y:00 P:34 SP:FB CYC:13213
C97B EA       NOP 			A:FF X:21 Y:00 P:34 SP:FB CYC:13216
C97C 38       SEC 			A:FF X:21 Y:00 P:34 SP:FB CYC:13218
C97D B8       CLV 			A:FF X:21 Y:00 P:35 SP:FB CYC:13220
C97E A9 7F    LDA #$7F			A:FF X:21 Y:00 P:35 SP:FB CYC:13222
C980 69 80    ADC #$80			A:7F X:21 Y:00 P:35 SP:FB CYC:13224
C982 D0 09    BNE $C98D			A:00 X:21 Y:00 P:37 SP:FB CYC:13226
C984 30 07    BMI $C98D			A:00 X:21 Y:00 P:37 SP:FB CYC:13229
C986 70 05    BVS $C98D			A:00 X:21 Y:00 P:37 SP:FB CYC:13230
C988 90 03    BCC $C98D			A:00 X:21 Y:00 P:37 SP:FB CYC:13233
C98A 4C 91 C9 JMP $C991			A:00 X:21 Y:00 P:37 SP:FB CYC:13234
C991 EA       NOP 			A:00 X:21 Y:00 P:37 SP:FB CYC:13237
C992 38       SEC 			A:00 X:21 Y:00 P:37 SP:FB CYC:13239
C993 B8       CLV 			A:00 X:21 Y:00 P:37 SP:FB CYC:13241
C994 A9 9F    LDA #$9F			A:00 X:21 Y:00 P:37 SP:FB CYC:13243
C996 F0 09    BEQ $C9A1			A:9F X:21 Y:00 P:B5 SP:FB CYC:13245
C998 10 07    BPL $C9A1			A:9F X:21 Y:00 P:B5 SP:FB CYC:13248
C99A 70 05    BVS $C9A1			A:9F X:21 Y:00 P:B5 SP:FB CYC:13249
C99C 90 03    BCC $C9A1			A:9F X:21 Y:00 P:B5 SP:FB CYC:13252
C99E 4C A5 C9 JMP $C9A5			A:9F X:21 Y:00 P:B5 SP:FB CYC:13253
C9A5 EA       NOP 			A:9F X:21 Y:00 P:B5 SP:FB CYC:13256
C9A6 18       CLC 			A:9F X:21 Y:00 P:B5 SP:FB CYC:13258
C9A7 24 01    BIT $01			A:9F X:21 Y:00 P:B4 SP:FB CYC:13260
C9A9 A9 00    LDA #$00			A:9F X:21 Y:00 P:F4 SP:FB CYC:13263
C9AB D0 09    BNE $C9B6			A:00 X:21 Y:00 P:76 SP:FB CYC:13265
C9AD 30 07    BMI $C9B6			A:00 X:21 Y:00 P:76 SP:FB CYC:13268
C9AF 50 05    BVC $C9B6			A:00 X:21 Y:00 P:76 SP:FB CYC:13269
C9B1 B0 03    BCS $C9B6			A:00 X:21 Y:00 P:76 SP:FB CYC:13272
C9B3 4C BA C9 JMP $C9BA			A:00 X:21 Y:00 P:76 SP:FB CYC:13273
C9BA EA       NOP 			A:00 X:21 Y:00 P:76 SP:FB CYC:13276
C9BB 24 01    BIT $01			A:00 X:21 Y:00 P:76 SP:FB CYC:13278
C9BD A9 40    LDA #$40			A:00 X:21 Y:00 P:F6 SP:FB CYC:13281
C9BF C9 40    CMP #$40			A:40 X:21 Y:00 P:74 SP:FB CYC:13283
C9C1 30 09    BMI $C9CC			A:40 X:21 Y:00 P:F4 SP:FB CYC:13285
C9CC A2 24    LDX #$24			A:40 X:21 Y:00 P:F4 SP:FB CYC:13288
C9CE 86 00    STX $00			A:40 X:24 Y:00 P:74 SP:FB CYC:13290
C9D0 EA       NOP 			A:40 X:24 Y:00 P:74 SP:FB CYC:13293
C9D1 B8       CLV 			A:40 X:24 Y:00 P:74 SP:FB CYC:13295
C9D2 C9 3F    CMP #$3F			A:40 X:24 Y:00 P:34 SP:FB CYC:13297
C9D4 F0 09    BEQ $C9DF			A:40 X:24 Y:00 P:37 SP:FB CYC:13299
C9DF A2 25    LDX #$25			A:40 X:24 Y:00 P:37 SP:FB CYC:13302
C9E1 86 00    STX $00			A:40 X:25 Y:00 P:35 SP:FB CYC:13304
C9E3 EA       NOP 			A:40 X:25 Y:00 P:35 SP:FB CYC:13307
C9E4 C9 41    CMP #$41			A:40 X:25 Y:00 P:35 SP:FB CYC:13309
C9E6 F0 07    BEQ $C9EF			A:40 X:25 Y:00 P:B4 SP:FB CYC:13311
C9E8 10 05    BPL $C9EF			A:40 X:25 Y:00 P:B4 SP:FB CYC:13314
C9EA 10 03    BPL $C9EF			A:40 X:25 Y:00 P:B4 SP:FB CYC:13315
C9EC 4C F3 C9 JMP $C9F3			A:40 X:25 Y:00 P:B4 SP:FB CYC:13317
C9F3 EA       NOP 			A:40 X:25 Y:00 P:B4 SP:FB CYC:13320
C9F4 A9 80    LDA #$80			A:40 X:25 Y:00 P:B4 SP:FB CYC:13322
C9F6 C9 00    CMP #$00			A:80 X:25 Y:00 P:B4 SP:FB CYC:13324
C9F8 F0 07    BEQ $CA01			A:80 X:25 Y:00 P:35 SP:FB CYC:13326
C9FA 10 05    BPL $CA01			A:80 X:25 Y:00 P:35 SP:FB CYC:13328
C903 A9 70    LDA #$70			A:80 X:25 Y:00 P:35 SP:FB CYC:13331
C905 49 70    EOR #$70			A:70 X:25 Y:00 P:35 SP:FB CYC:13333
C907 D0 09    BNE $C912			A:00 X:25 Y:00 P:37 SP:FB CYC:13335
C909 70 07    BVS $C912			A:00 X:25 Y:00 P:37 SP:FB CYC:13338
C90B 90 05    BCC $C912			A:00 X:25 Y:00 P:37 SP:FB CYC:13339
C90D 30 03    BMI $C912			A:00 X:25 Y:00 P:37 SP:FB CYC:13342
C90F 4C 16 C9 JMP $C916			A:00 X:25 Y:00 P:37 SP:FB CYC:13343
C916 EA       NOP 			A:00 X:25 Y:00 P:37 SP:FB CYC:13346
C917 18       CLC 			A:00 X:25 Y:00 P:37 SP:FB CYC:13348
C918 24 01    BIT $01			A:00 X:25 Y:00 P:36 SP:FB CYC:13350
C91A A9 00    LDA #$00			A:00 X:25 Y:00 P:F6 SP:FB CYC:13353
C91C 69 69    ADC #$69			A:00 X:25 Y:00 P:76 SP:FB CYC:13355
C91E 30 0B    BMI $C92B			A:69 X:25 Y:00 P:34 SP:FB CYC:13357
C920 B0 09    BCS $C92B			A:69 X:25 Y:00 P:34 SP:FB CYC:13360
C922 C9 69    CMP #$69			A:69 X:25 Y:00 P:34 SP:FB CYC:13361
C924 D0 05    BNE $C92B			A:69 X:25 Y:00 P:B4 SP:FB CYC:13363
C92B A2 1E    LDX #$1E			A:69 X:25 Y:00 P:B4 SP:FB CYC:13366
C92D 86 00    STX $00			A:69 X:1E Y:00 P:34 SP:FB CYC:13368
C92F EA       NOP 			A:69 X:1E Y:00 P:34 SP:FB CYC:13371
C930 38       SEC 			A:69 X:1E Y:00 P:34 SP:FB CYC:13373
C931 F8       SED 			A:69 X:1E Y:00 P:35 SP:FB CYC:13375
C932 24 01    BIT $01			A:69 X:1E Y:00 P:3D SP:FB CYC:13377
C934 A9 01    LDA #$01			A:69 X:1E Y:00 P:FD SP:FB CYC:13380
C936 69 69    ADC #$69			A:01 X:1E Y:00 P:7D SP:FB CYC:13382
C938 30 0B    BMI $C945			A:6B X:1E Y:00 P:3C SP:FB CYC:13384
C93A B0 09    BCS $C945			A:6B X:1E Y:00 P:3C SP:FB CYC:13387
C93C C9 6B    CMP #$6B			A:6B X:1E Y:00 P:3C SP:FB CYC:13388
C93E D0 05    BNE $C945			A:6B X:1E Y:00 P:BC SP:FB CYC:13390
C945 A2 1F    LDX #$1F			A:6B X:1E Y:00 P:BC SP:FB CYC:13393
C947 86 00    STX $00			A:6B X:1F Y:00 P:3C SP:FB CYC:13395
C949 EA       NOP 			A:6B X:1F Y:00 P:3C SP:FB CYC:13398
C94A D8       CLD 			A:6B X:1F Y:00 P:3C SP:FB CYC:13400
C94B 38       SEC 			A:6B X:1F Y:00 P:34 SP:FB CYC:13402
C94C B8       CLV 			A:6B X:1F Y:00 P:35 SP:FB CYC:13404
C94D A9 7F    LDA #$7F			A:6B X:1F Y:00 P:35 SP:FB CYC:13406
C94F 69 7F    ADC #$7F			A:7F X:1F Y:00 P:35 SP:FB CYC:13408
C951 10 0B    BPL $C95E			A:FF X:1F Y:00 P:F4 SP:FB CYC:13410
C953 B0 09    BCS $C95E			A:FF X:1F Y:00 P:F4 SP:FB CYC:13413
C955 C9 FF    CMP #$FF			A:FF X:1F Y:00 P:F4 SP:FB CYC:13414
C957 D0 05    BNE $C95E			A:FF X:1F Y:00 P:F4 SP:FB CYC:13416
C95E A2 20    LDX #$20			A:FF X:1F Y:00 P:F4 SP:FB CYC:13419
C960 86 00    STX $00			A:FF X:20 Y:00 P:74 SP:FB CYC:13421
C962 EA       NOP 			A:FF X:20 Y:00 P:74 SP:FB CYC:13424
C963 18       CLC 			A:FF X:20 Y:00 P:74 SP:FB CYC:13426
C964 24 01    BIT $01			A:FF X:20 Y:00 P:74 SP:FB CYC:13428
C966 A9 7F    LDA #$7F			A:FF X:20 Y:00 P:F4 SP:FB CYC:13431
C968 69 80    ADC #$80			A:7F X:20 Y:00 P:74 SP:FB CYC:13433
C96A 10 0B    BPL $C977			A:FF X:20 Y:00 P:B4 SP:FB CYC:13435
C96C B0 09    BCS $C977			A:FF X:20 Y:00 P:B4 SP:FB CYC:13438
C96E C9 FF    CMP #$FF			A:FF X:20 Y:00 P:B4 SP:FB CYC:13439
C970 D0 05    BNE $C977			A:FF X:20 Y:00 P:B4 SP:FB CYC:13441
C977 A2 21    LDX #$21			A:FF X:20 Y:00 P:B4 SP:FB CYC:13444
C979 86 00    STX $00			A:FF X:21 Y:00 P:34 SP:FB CYC:13446
C97B EA       NOP 			A:FF X:21 Y:00 P:34 SP:FB CYC:13449
C97C 38       SEC 			A:FF X:21 Y:00 P:34 SP:FB CYC:13451
C97D B8       CLV 			A:FF X:21 Y:00 P:35 SP:FB CYC:13453
C97E A9 7F    LDA #$7F			A:FF X:21 Y:00 P:35 SP:FB CYC:13455
C980 69 80    ADC #$80			A:7F X:21 Y:00 P:35 SP:FB CYC:13457
C982 D0 09    BNE $C98D			A:00 X:21 Y:00 P:37 SP:FB CYC:13459
C984 30 07    BMI $C98D			A:00 X:21 Y:00 P:37 SP:FB CYC:13462
C986 70 05    BVS $C98D			A:00 X:21 Y:00 P:37 SP:FB CYC:13463
C988 90 03    BCC $C98D			A:00 X:21 Y:00 P:37 SP:FB CYC:13466
C98A 4C 91 C9 JMP $C991			A:00 X:21 Y:00 P:37 SP:FB CYC:13467
C991 EA       NOP 			A:00 X:21 Y:00 P:37 SP:FB CYC:13470
C992 38       SEC 			A:00 X:21 Y:00 P:37 SP:FB CYC:13472
C993 B8       CLV 			A:00 X:21 Y:00 P:37 SP:FB CYC:13474
C994 A9 9F    LDA #$9F			A:00 X:21 Y:00 P:37 SP:FB CYC:13476
C996 F0 09    BEQ $C9A1			A:9F X:21 Y:00 P:B5 SP:FB CYC:13478
C998 10 07    BPL $C9A1			A:9F X:21 Y:00 P:B5 SP:FB CYC:13481
C99A 70 05    BVS $C9A1			A:9F X:21 Y:00 P:B5 SP:FB CYC:13482
C99C 90 03    BCC $C9A1			A:9F X:21 Y:00 P:B5 SP:FB CYC:13485
C99E 4C A5 C9 JMP $C9A5			A:9F X:21 Y:00 P:B5 SP:FB CYC:13486
C9A5 EA       NOP 			A:9F X:21 Y:00 P:B5 SP:FB CYC:13489
C9A6 18       CLC 			A:9F X:21 Y:00 P:B5 SP:FB CYC:13491
C9A7 24 01    BIT $01			A:9F X:21 Y:00 P:B4 SP:FB CYC:13493
C9A9 A9 00    LDA #$00			A:9F X:21 Y:00 P:F4 SP:FB CYC:13496
C9AB D0 09    BNE $C9B6			A:00 X:21 Y:00 P:76 SP:FB CYC:13498
C9AD 30 07    BMI $C9B6			A:00 X:21 Y:00 P:76 SP:FB CYC:13501
C9AF 50 05    BVC $C9B6			A:00 X:21 Y:00 P:76 SP:FB CYC:13502
C9B1 B0 03    BCS $C9B6			A:00 X:21 Y:00 P:76 SP:FB CYC:13505
C9B3 4C BA C9 JMP $C9BA			A:00 X:21 Y:00 P:76 SP:FB CYC:13506
C9BA EA       NOP 			A:00 X:21 Y:00 P:76 SP:FB CYC:13509
C9BB 24 01    BIT $01			A:00 X:21 Y:00 P:76 SP:FB CYC:13511
C9BD A9 40    LDA #$40			A:00 X:21 Y:00 P:F6 SP:FB CYC:13514
C9BF C9 40    CMP #$40			A:40 X:21 Y:00 P:74 SP:FB CYC:13516
C9C1 30 09    BMI $C9CC			A:40 X:21 Y:00 P:F4 SP:FB CYC:13518
C9CC A2 24    LDX #$24			A:40 X:21 Y:00 P:F4 SP:FB CYC:13521
C9CE 86 00    STX $00			A:40 X:24 Y:00 P:74 SP:FB CYC:13523
C9D0 EA       NOP 			A:40 X:24 Y:00 P:74 SP:FB CYC:13526
C9D1 B8       CLV 			A:40 X:24 Y:00 P:74 SP:FB CYC:13528
C9D2 C9 3F    CMP #$3F			A:40 X:24 Y:00 P:34 SP:FB CYC:13530
C9D4 F0 09    BEQ $C9DF			A:40 X:24 Y:00 P:37 SP:FB CYC:13532
C9DF A2 25    LDX #$25			A:40 X:24 Y:00 P:37 SP:FB CYC:13535
C9E1 86 00    STX $00			A:40 X:25 Y:00 P:35 SP:FB CYC:13537
C9E3 EA       NOP 			A:40 X:25 Y:00 P:35 SP:FB CYC:13540
C9E4 C9 41    CMP #$41			A:40 X:25 Y:00 P:35 SP:FB CYC:13542
C9E6 F0 07    BEQ $C9EF			A:40 X:25 Y:00 P:B4 SP:FB CYC:13544
C9E8 10 05    BPL $C9EF			A:40 X:25 Y:00 P:B4 SP:FB CYC:13547
C9EA 10 03    BPL $C9EF			A:40 X:25 Y:00 P:B4 SP:FB CYC:13548
C9EC 4C F3 C9 JMP $C9F3			A:40 X:25 Y:00 P:B4 SP:FB CYC:13550
C9F3 EA       NOP 			A:40 X:25 Y:00 P:B4 SP:FB CYC:13553
C9F4 A9 80    LDA #$80			A:40 X:25 Y:00 P:B4 SP:FB CYC:13555
C9F6 C9 00    CMP #$00			A:80 X:25 Y:00 P:B4 SP:FB CYC:13557
C9F8 F0 07    BEQ $CA01			A:80 X:25 Y:00 P:35 SP:FB CYC:13559
C9FA 10 05    BPL $CA01			A:80 X:25 Y:00 P:35 SP:FB CYC:13561
C903 A9 70    LDA #$70			A:80 X:25 Y:00 P:35 SP:FB CYC:13564
C905 49 70    EOR #$70			A:70 X:25 Y:00 P:35 SP:FB CYC:13566
C907 D0 09    BNE $C912			A:00 X:25 Y:00 P:37 SP:FB CYC:13568
C909 70 07    BVS $C912			A:00 X:25 Y:00 P:37 SP:FB CYC:13571
C90B 90 05    BCC $C912			A:00 X:25 Y:00 P:37 SP:FB CYC:13572
C90D 30 03    BMI $C912			A:00 X:25 Y:00 P:37 SP:FB CYC:13575
C90F 4C 16 C9 JMP $C916			A:00 X:25 Y:00 P:37 SP:FB CYC:13576
C916 EA       NOP 			A:00 X:25 Y:00 P:37 SP:FB CYC:13579
C917 18       CLC 			A:00 X:25 Y:00 P:37 SP:FB CYC:13581
C918 24 01    BIT $01			A:00 X:25 Y:00 P:36 SP:FB CYC:13583
C91A A9 00    LDA #$00			A:00 X:25 Y:00 P:F6 SP:FB CYC:13586
C91C 69 69    ADC #$69			A:00 X:25 Y:00 P:76 SP:FB CYC:13588
C91E 30 0B    BMI $C92B			A:69 X:25 Y:00 P:34 SP:FB CYC:13590
C920 B0 09    BCS $C92B			A:69 X:25 Y:00 P:34 SP:FB CYC:13593
C922 C9 69    CMP #$69			A:69 X:25 Y:00 P:34 SP:FB CYC:13594
C924 D0 05    BNE $C92B			A:69 X:25 Y:00 P:B4 SP:FB CYC:13596
C92B A2 1E    LDX #$1E			A:69 X:25 Y:00 P:B4 SP:FB CYC:13599
C92D 86 00    STX $00			A:69 X:1E Y:00 P:34 SP:FB CYC:13601
C92F EA       NOP 			A:69 X:1E Y:00 P:34 SP:FB CYC:13604
C930 38       SEC 			A:69 X:1E Y:00 P:34 SP:FB CYC:13606
C931 F8       SED 			A:69 X:1E Y:00 P:35 SP:FB CYC:13608
C932 24 01    BIT $01			A:69 X:1E Y:00 P:3D SP:FB CYC:13610
C934 A9 01    LDA #$01			A:69 X:1E Y:00 P:FD SP:FB CYC:13613
C936 69 69    ADC #$69			A:01 X:1E Y:00 P:7D SP:FB CYC:13615
C938 30 0B    BMI $C945			A:6B X:1E Y:00 P:3C SP:FB CYC:13617
C93A B0 09    BCS $C945			A:6B X:1E Y:00 P:3C SP:FB CYC:13620
C93C C9 6B    CMP #$6B			A:6B X:1E Y:00 P:3C SP:FB CYC:13621
C93E D0 05    BNE $C945			A:6B X:1E Y:00 P:BC SP:FB CYC:13623
C945 A2 1F    LDX #$1F			A:6B X:1E Y:00 P:BC SP:FB CYC:13626
C947 86 00    STX $00			A:6B X:1F Y:00 P:3C SP:FB CYC:13628
C949 EA       NOP 			A:6B X:1F Y:00 P:3C SP:FB CYC:13631
C94A D8       CLD 			A:6B X:1F Y:00 P:3C SP:FB CYC:13633
C94B 38       SEC 			A:6B X:1F Y:00 P:34 SP:FB CYC:13635
C94C B8       CLV 			A:6B X:1F Y:00 P:35 SP:FB CYC:13637
C94D A9 7F    LDA #$7F			A:6B X:1F Y:00 P:35 SP:FB CYC:13639
C94F 69 7F    ADC #$7F			A:7F X:1F Y:00 P:35 SP:FB CYC:13641
C951 10 0B    BPL $C95E			A:FF X:1F Y:00 P:F4 SP:FB CYC:13643
C953 B0 09    BCS $C95E			A:FF X:1F Y:00 P:F4 SP:FB CYC:13646
C955 C9 FF    CMP #$FF			A:FF X:1F Y:00 P:F4 SP:FB CYC:13647
C957 D0 05    BNE $C95E			A:FF X:1F Y:00 P:F4 SP:FB CYC:13649
C95E A2 20    LDX #$20			A:FF X:1F Y:00 P:F4 SP:FB CYC:13652
C960 86 00    STX $00			A:FF X:20 Y:00 P:74 SP:FB CYC:13654
C962 EA       NOP 			A:FF X:20 Y:00 P:74 SP:FB CYC:13657
C963 18       CLC 			A:FF X:20 Y:00 P:74 SP:FB CYC:13659
C964 24 01    BIT $01			A:FF X:20 Y:00 P:74 SP:FB CYC:13661
C966 A9 7F    LDA #$7F			A:FF X:20 Y:00 P:F4 SP:FB CYC:13664
C968 69 80    ADC #$80			A:7F X:20 Y:00 P:74 SP:FB CYC:13666
C96A 10 0B    BPL $C977			A:FF X:20 Y:00 P:B4 SP:FB CYC:13668
C96C B0 09    BCS $C977			A:FF X:20 Y:00 P:B4 SP:FB CYC:13671
C96E C9 FF    CMP #$FF			A:FF X:20 Y:00 P:B4 SP:FB CYC:13672
C970 D0 05    BNE $C977			A:FF X:20 Y:00 P:B4 SP:FB CYC:13674
C977 A2 21    LDX #$21			A:FF X:20 Y:00 P:B4 SP:FB CYC:13677
C979 86 00    STX $00			A:FF X:21 Y:00 P:34 SP:FB CYC:13679
C97B EA       NOP 			A:FF X:21 Y:00 P:34 SP:FB CYC:13682
C97C 38       SEC 			A:FF X:21 Y:00 P:34 SP:FB CYC:13684
C97D B8       CLV 			A:FF X:21 Y:00 P:35 SP:FB CYC:13686
C97E A9 7F    LDA #$7F			A:FF X:21 Y:00 P:35 SP:FB CYC:13688
C980 69 80    ADC #$80			A:7F X:21 Y:00 P:35 SP:FB CYC:13690
C982 D0 09    BNE $C98D			A:00 X:21 Y:00 P:37 SP:FB CYC:13692
C984 30 07    BMI $C98D			A:00 X:21 Y:00 P:37 SP:FB CYC:13695
C986 70 05    BVS $C98D			A:00 X:21 Y:00 P:37 SP:FB CYC:13696
C988 90 03    BCC $C98D			A:00 X:21 Y:00 P:37 SP:FB CYC:13699
C98A 4C 91 C9 JMP $C991			A:00 X:21 Y:00 P:37 SP:FB CYC:13700
C991 EA       NOP 			A:00 X:21 Y:00 P:37 SP:FB CYC:13703
C992 38       SEC 			A:00 X:21 Y:00 P:37 SP:FB CYC:13705
C993 B8       CLV 			A:00 X:21 Y:00 P:37 SP:FB CYC:13707
C994 A9 9F    LDA #$9F			A:00 X:21 Y:00 P:37 SP:FB CYC:13709
C996 F0 09    BEQ $C9A1			A:9F X:21 Y:00 P:B5 SP:FB CYC:13711
C998 10 07    BPL $C9A1			A:9F X:21 Y:00 P:B5 SP:FB CYC:13714
C99A 70 05    BVS $C9A1			A:9F X:21 Y:00 P:B5 SP:FB CYC:13715
C99C 90 03    BCC $C9A1			A:9F X:21 Y:00 P:B5 SP:FB CYC:13718
C99E 4C A5 C9 JMP $C9A5			A:9F X:21 Y:00 P:B5 SP:FB CYC:13719
C9A5 EA       NOP 			A:9F X:21 Y:00 P:B5 SP:FB CYC:13722
C9A6 18       CLC 			A:9F X:21 Y:00 P:B5 SP:FB CYC:13724
C9A7 24 01    BIT $01			A:9F X:21 Y:00 P:B4 SP:FB CYC:13726
C9A9 A9 00    LDA #$00			A:9F X:21 Y:00 P:F4 SP:FB CYC:13729
C9AB D0 09    BNE $C9B6			A:00 X:21 Y:00 P:76 SP:FB CYC:13731
C9AD 30 07    BMI $C9B6			A:00 X:21 Y:00 P:76 SP:FB CYC:13734
C9AF 50 05    BVC $C9B6			A:00 X:21 Y:00 P:76 SP:FB CYC:13735
C9B1 B0 03    BCS $C9B6			A:00 X:21 Y:00 P:76 SP:FB CYC:13738
C9B3 4C BA C9 JMP $C9BA			A:00 X:21 Y:00 P:76 SP:FB CYC:13739
C9BA EA       NOP 			A:00 X:21 Y:00 P:76 SP:FB CYC:13742
C9BB 24 01    BIT $01			A:00 X:21 Y:00 P:76 SP:FB CYC:13744
C9BD A9 40    LDA #$40			A:00 X:21 Y:00 P:F6 SP:FB CYC:13747
C9BF C9 40    CMP #$40			A:40 X:21 Y:00 P:74 SP:FB CYC:13749
C9C1 30 09    BMI $C9CC			A:40 X:21 Y:00 P:F4 SP:FB CYC:13751
C9CC A2 24    LDX #$24			A:40 X:21 Y:00 P:F4 SP:FB CYC:13754
C9CE 86 00    STX $00			A:40 X:24 Y:00 P:74 SP:FB CYC:13756
C9D0 EA       NOP 			A:40 X:24 Y:00 P:74 SP:FB CYC:13759
C9D1 B8       CLV 			A:40 X:24 Y:00 P:74 SP:FB CYC:13761
C9D2 C9 3F    CMP #$3F			A:40 X:24 Y:00 P:34 SP:FB CYC:13763
C9D4 F0 09    BEQ $C9DF			A:40 X:24 Y:00 P:37 SP:FB CYC:13765
C9DF A2 25    LDX #$25			A:40 X:24 Y:00 P:37 SP:FB CYC:13768
C9E1 86 00    STX $00			A:40 X:25 Y:00 P:35 SP:FB CYC:13770
C9E3 EA       NOP 			A:40 X:25 Y:00 P:35 SP:FB CYC:13773
C9E4 C9 41    CMP #$41			A:40 X:25 Y:00 P:35 SP:FB CYC:13775
C9E6 F0 07    BEQ $C9EF			A:40 X:25 Y:00 P:B4 SP:FB CYC:13777
C9E8 10 05    BPL $C9EF			A:40 X:25 Y:00 P:B4 SP:FB CYC:13780
C9EA 10 03    BPL $C9EF			A:40 X:25 Y:00 P:B4 SP:FB CYC:13781
C9EC 4C F3 C9 JMP $C9F3			A:40 X:25 Y:00 P:B4 SP:FB CYC:13783
C9F3 EA       NOP 			A:40 X:25 Y:00 P:B4 SP:FB CYC:13786
C9F4 A9 80    LDA #$80			A:40 X:25 Y:00 P:B4 SP:FB CYC:13788
C9F6 C9 00    CMP #$00			A:80 X:25 Y:00 P:B4 SP:FB CYC:13790
C9F8 F0 07    BEQ $CA01			A:80 X:25 Y:00 P:35 SP:FB CYC:13792
C9FA 10 05    BPL $CA01			A:80 X:25 Y:00 P:35 SP:FB CYC:13794
C903 A9 70    LDA #$70			A:80 X:25 Y:00 P:35 SP:FB CYC:13797
C905 49 70    EOR #$70			A:70 X:25 Y:00 P:35 SP:FB CYC:13799
C907 D0 09    BNE $C912			A:00 X:25 Y:00 P:37 SP:FB CYC:13801
C909 70 07    BVS $C912			A:00 X:25 Y:00 P:37 SP:FB CYC:13804
C90B 90 05    BCC $C912			A:00 X:25 Y:00 P:37 SP:FB CYC:13805
C90D 30 03    BMI $C912			A:00 X:25 Y:00 P:37 SP:FB CYC:13808
C90F 4C 16 C9 JMP $C916			A:00 X:25 Y:00 P:37 SP:FB CYC:13809
C916 EA       NOP 			A:00 X:25 Y:00 P:37 SP:FB CYC:13812
C917 18       CLC 			A:00 X:25 Y:00 P:37 SP:FB CYC:13814
C918 24 01    BIT $01			A:00 X:25 Y:00 P:36 SP:FB CYC:13816
C91A A9 00    LDA #$00			A:00 X:25 Y:00 P:F6 SP:FB CYC:13819
C91C 69 69    ADC #$69			A:00 X:25 Y:00 P:76 SP:FB CYC:13821
C91E 30 0B    BMI $C92B			A:69 X:25 Y:00 P:34 SP:FB CYC:13823
C920 B0 09    BCS $C92B			A:69 X:25 Y:00 P:34 SP:FB CYC:13826
C922 C9 69    CMP #$69			A:69 X:25 Y:00 P:34 SP:FB CYC:13827
C924 D0 05    BNE $C92B			A:69 X:25 Y:00 P:B4 SP:FB CYC:13829
C92B A2 1E    LDX #$1E			A:69 X:25 Y:00 P:B4 SP:FB CYC:13832
C92D 86 00    STX $00			A:69 X:1E Y:00 P:34 SP:FB CYC:13834
C92F EA       NOP 			A:69 X:1E Y:00 P:34 SP:FB CYC:13837
C930 38       SEC 			A:69 X:1E Y:00 P:34 SP:FB CYC:13839
C931 F8       SED 			A:69 X:1E Y:00 P:35 SP:FB CYC:13841
C932 24 01    BIT $01			A:69 X:1E Y:00 P:3D SP:FB CYC:13843
C934 A9 01    LDA #$01			A:69 X:1E Y:00 P:FD SP:FB CYC:13846
C936 69 69    ADC #$69			A:01 X:1E Y:00 P:7D SP:FB CYC:13848
C938 30 0B    BMI $C945			A:6B X:1E Y:00 P:3C SP:FB CYC:13850
C93A B0 09    BCS $C945			A:6B X:1E Y:00 P:3C SP:FB CYC:13853
C93C C9 6B    CMP #$6B			A:6B X:1E Y:00 P:3C SP:FB CYC:13854
C93E D0 05    BNE $C945			A:6B X:1E Y:00 P:BC SP:FB CYC:13856
C945 A2 1F    LDX #$1F			A:6B X:1E Y:00 P:BC SP:FB CYC:13859
C947 86 00    STX $00			A:6B X:1F Y:00 P:3C SP:FB CYC:13861
C949 EA       NOP 			A:6B X:1F Y:00 P:3C SP:FB CYC:13864
C94A D8       CLD 			A:6B X:1F Y:00 P:3C SP:FB CYC:13866
C94B 38       SEC 			A:6B X:1F Y:00 P:34 SP:FB CYC:13868
C94C B8       CLV 			A:6B X:1F Y:00 P:35 SP:FB CYC:13870
C94D A9 7F    LDA #$7F			A:6B X:1F Y:00 P:35 SP:FB CYC:13872
C94F 69 7F    ADC #$7F			A:7F X:1F Y:00 P:35 SP:FB CYC:13874
C951 10 0B    BPL $C95E			A:FF X:1F Y:00 P:F4 SP:FB CYC:13876
C953 B0 09    BCS $C95E			A:FF X:1F Y:00 P:F4 SP:FB CYC:13879
C955 C9 FF    CMP #$FF			A:FF X:1F Y:00 P:F4 SP:FB CYC:13880
C957 D0 05    BNE $C95E			A:FF X:1F Y:00 P:F4 SP:FB CYC:13882
C95E A2 20    LDX #$20			A:FF X:1F Y:00 P:F4 SP:FB CYC:13885
C960 86 00    STX $00			A:FF X:20 Y:00 P:74 SP:FB CYC:13887
C962 EA       NOP 			A:FF X:20 Y:00 P:74 SP:FB CYC:13890
C963 18       CLC 			A:FF X:20 Y:00 P:74 SP:FB CYC:13892
C964 24 01    BIT $01			A:FF X:20 Y:00 P:74 SP:FB CYC:13894
C966 A9 7F    LDA #$7F			A:FF X:20 Y:00 P:F4 SP:FB CYC:13897
C968 69 80    ADC #$80			A:7F X:20 Y:00 P:74 SP:FB CYC:13899
C96A 10 0B    BPL $C977			A:FF X:20 Y:00 P:B4 SP:FB CYC:13901
C96C B0 09    BCS $C977			A:FF X:20 Y:00 P:B4 SP:FB CYC:13904
C96E C9 FF    CMP #$FF			A:FF X:20 Y:00 P:B4 SP:FB CYC:13905
C970 D0 05    BNE $C977			A:FF X:20 Y:00 P:B4 SP:FB CYC:13907
C977 A2 21    LDX #$21			A:FF X:20 Y:00 P:B4 SP:FB CYC:13910
C979 86 00    STX $00			A:FF X:21 Y:00 P:34 SP:FB CYC:13912
C97B EA       NOP 			A:FF X:21 Y:00 P:34 SP:FB CYC:13915
C97C 38       SEC 			A:FF X:21 Y:00 P:34 SP:FB CYC:13917
C97D B8       CLV 			A:FF X:21 Y:00 P:35 SP:FB CYC:13919
C97E A9 7F    LDA #$7F			A:FF X:21 Y:00 P:35 SP:FB CYC:13921
C980 69 80    ADC #$80			A:7F X:21 Y:00 P:35 SP:FB CYC:13923
C982 D0 09    BNE $C98D			A:00 X:21 Y:00 P:37 SP:FB CYC:13925
C984 30 07    BMI $C98D			A:00 X:21 Y:00 P:37 SP:FB CYC:13928
C986 70 05    BVS $C98D			A:00 X:21 Y:00 P:37 SP:FB CYC:13929
C988 90 03    BCC $C98D			A:00 X:21 Y:00 P:37 SP:FB CYC:13932
C98A 4C 91 C9 JMP $C991			A:00 X:21 Y:00 P:37 SP:FB CYC:13933
C991 EA       NOP 			A:00 X:21 Y:00 P:37 SP:FB CYC:13936
C992 38       SEC 			A:00 X:21 Y:00 P:37 SP:FB CYC:13938
C993 B8       CLV 			A:00 X:21 Y:00 P:37 SP:FB CYC:13940
C994 A9 9F    LDA #$9F			A:00 X:21 Y:00 P:37 SP:FB CYC:13942
C996 F0 09    BEQ $C9A1			A:9F X:21 Y:00 P:B5 SP:FB CYC:13944
C998 10 07    BPL $C9A1			A:9F X:21 Y:00 P:B5 SP:FB CYC:13947
C99A 70 05    BVS $C9A1			A:9F X:21 Y:00 P:B5 SP:FB CYC:13948
C99C 90 03    BCC $C9A1			A:9F X:21 Y:00 P:B5 SP:FB CYC:13951
C99E 4C A5 C9 JMP $C9A5			A:9F X:21 Y:00 P:B5 SP:FB CYC:13952
C9A5 EA       NOP 			A:9F X:21 Y:00 P:B5 SP:FB CYC:13955
C9A6 18       CLC 			A:9F X:21 Y:00 P:B5 SP:FB CYC:13957
C9A7 24 01    BIT $01			A:9F X:21 Y:00 P:B4 SP:FB CYC:13959
C9A9 A9 00    LDA #$00			A:9F X:21 Y:00 P:F4 SP:FB CYC:13962
C9AB D0 09    BNE $C9B6			A:00 X:21 Y:00 P:76 SP:FB CYC:13964
C9AD 30 07    BMI $C9B6			A:00 X:21 Y:00 P:76 SP:FB CYC:13967
C9AF 50 05    BVC $C9B6			A:00 X:21 Y:00 P:76 SP:FB CYC:13968
C9B1 B0 03    BCS $C9B6			A:00 X:21 Y:00 P:76 SP:FB CYC:13971
C9B3 4C BA C9 JMP $C9BA			A:00 X:21 Y:00 P:76 SP:FB CYC:13972
C9BA EA       NOP 			A:00 X:21 Y:00 P:76 SP:FB CYC:13975
C9BB 24 01    BIT $01			A:00 X:21 Y:00 P:76 SP:FB CYC:13977
C9BD A9 40    LDA #$40			A:00 X:21 Y:00 P:F6 SP:FB CYC:13980
C9BF C9 40    CMP #$40			A:40 X:21 Y:00 P:74 SP:FB CYC:13982
C9C1 30 09    BMI $C9CC			A:40 X:21 Y:00 P:F4 SP:FB CYC:13984
C9CC A2 24    LDX #$24			A:40 X:21 Y:00 P:F4 SP:FB CYC:13987
C9CE 86 00    STX $00			A:40 X:24 Y:00 P:74 SP:FB CYC:13989
C9D0 EA       NOP 			A:40 X:24 Y:00 P:74 SP:FB CYC:13992
C9D1 B8       CLV 			A:40 X:24 Y:00 P:74 SP:FB CYC:13994
C9D2 C9 3F    CMP #$3F			A:40 X:24 Y:00 P:34 SP:FB CYC:13996
C9D4 F0 09    BEQ $C9DF			A:40 X:24 Y:00 P:37 SP:FB CYC:13998
C9DF A2 25    LDX #$25			A:40 X:24 Y:00 P:37 SP:FB CYC:14001
C9E1 86 00    STX $00			A:40 X:25 Y:00 P:35 SP:FB CYC:14003
C9E3 EA       NOP 			A:40 X:25 Y:00 P:35 SP:FB CYC:14006
C9E4 C9 41    CMP #$41			A:40 X:25 Y:00 P:35 SP:FB CYC:14008
C9E6 F0 07    BEQ $C9EF			A:40 X:25 Y:00 P:B4 SP:FB CYC:14010
C9E8 10 05    BPL $C9EF			A:40 X:25 Y:00 P:B4 SP:FB CYC:14013
C9EA 10 03    BPL $C9EF			A:40 X:25 Y:00 P:B4 SP:FB CYC:14014
C9EC 4C F3 C9 JMP $C9F3			A:40 X:25 Y:00 P:B4 SP:FB CYC:14016
C9F3 EA       NOP 			A:40 X:25 Y:00 P:B4 SP:FB CYC:14019
C9F4 A9 80    LDA #$80			A:40 X:25 Y:00 P:B4 SP:FB CYC:14021
C9F6 C9 00    CMP #$00			A:80 X:25 Y:00 P:B4 SP:FB CYC:14023
C9F8 F0 07    BEQ $CA01			A:80 X:25 Y:00 P:35 SP:FB CYC:14025
C9FA 10 05    BPL $CA01			A:80 X:25 Y:00 P:35 SP:FB CYC:14027
C903 A9 70    LDA #$70			A:80 X:25 Y:00 P:35 SP:FB CYC:14030
C905 49 70    EOR #$70			A:70 X:25 Y:00 P:35 SP:FB CYC:14032
C907 D0 09    BNE $C912			A:00 X:25 Y:00 P:37 SP:FB CYC:14034
C909 70 07    BVS $C912			A:00 X:25 Y:00 P:37 SP:FB CYC:14037
C90B 90 05    BCC $C912			A:00 X:25 Y:00 P:37 SP:FB CYC:14038
C90D 30 03    BMI $C912			A:00 X:25 Y:00 P:37 SP:FB CYC:14041
C90F 4C 16 C9 JMP $C916			A:00 X:25 Y:00 P:37 SP:FB CYC:14042
C916 EA       NOP 			A:00 X:25 Y:00 P:37 SP:FB CYC:14045
C917 18       CLC 			A:00 X:25 Y:00 P:37 SP:FB CYC:14047
C918 24 01    BIT $01			A:00 X:25 Y:00 P:36 SP:FB CYC:14049
C91A A9 00    LDA #$00			A:00 X:25 Y:00 P:F6 SP:FB CYC:14052
C91C 69 69    ADC #$69			A:00 X:25 Y:00 P:76 SP:FB CYC:14054
C91E 30 0B    BMI $C92B			A:69 X:25 Y:00 P:34 SP:FB CYC:14056
C920 B0 09    BCS $C92B			A:69 X:25 Y:00 P:34 SP:FB CYC:14059
C922 C9 69    CMP #$69			A:69 X:25 Y:00 P:34 SP:FB CYC:14060
C924 D0 05    BNE $C92B			A:69 X:25 Y:00 P:B4 SP:FB CYC:14062
C92B A2 1E    LDX #$1E			A:69 X:25 Y:00 P:B4 SP:FB CYC:14065
C92D 86 00    STX $00			A:69 X:1E Y:00 P:34 SP:FB CYC:14067
C92F EA       NOP 			A:69 X:1E Y:00 P:34 SP:FB CYC:14070
C930 38       SEC 			A:69 X:1E Y:00 P:34 SP:FB CYC:14072
C931 F8       SED 			A:69 X:1E Y:00 P:35 SP:FB CYC:14074
C932 24 01    BIT $01			A:69 X:1E Y:00 P:3D SP:FB CYC:14076
C934 A9 01    LDA #$01			A:69 X:1E Y:00 P:FD SP:FB CYC:14079
C936 69 69    ADC #$69			A:01 X:1E Y:00 P:7D SP:FB CYC:14081
C938 30 0B    BMI $C945			A:6B X:1E Y:00 P:3C SP:FB CYC:14083
C93A B0 09    BCS $C945			A:6B X:1E Y:00 P:3C SP:FB CYC:14086
C93C C9 6B    CMP #$6B			A:6B X:1E Y:00 P:3C SP:FB CYC:14087
C93E D0 05    BNE $C945			A:6B X:1E Y:00 P:BC SP:FB CYC:14089
C945 A2 1F    LDX #$1F			A:6B X:1E Y:00 P:BC SP:FB CYC:14092
C947 86 00    STX $00			A:6B X:1F Y:00 P:3C SP:FB CYC:14094
C949 EA       NOP 			A:6B X:1F Y:00 P:3C SP:FB CYC:14097
C94A D8       CLD 			A:6B X:1F Y:00 P:3C SP:FB CYC:14099
C94B 38       SEC 			A:6B X:1F Y:00 P:34 SP:FB CYC:14101
C94C B8       CLV 			A:6B X:1F Y:00 P:35 SP:FB CYC:14103
C94D A9 7F    LDA #$7F			A:6B X:1F Y:00 P:35 SP:FB CYC:14105
C94F 69 7F    ADC #$7F			A:7F X:1F Y:00 P:35 SP:FB CYC:14107
C951 10 0B    BPL $C95E			A:FF X:1F Y:00 P:F4 SP:FB CYC:14109
C953 B0 09    BCS $C95E			A:FF X:1F Y:00 P:F4 SP:FB CYC:14112
C955 C9 FF    CMP #$FF			A:FF X:1F Y:00 P:F4 SP:FB CYC:14113
C957 D0 05    BNE $C95E			A:FF X:1F Y:00 P:F4 SP:FB CYC:14115
C95E A2 20    LDX #$20			A:FF X:1F Y:00 P:F4 SP:FB CYC:14118
C960 86 00    STX $00			A:FF X:20 Y:00 P:74 SP:FB CYC:14120
C962 EA       NOP 			A:FF X:20 Y:00 P:74 SP:FB CYC:14123
C963 18       CLC 			A:FF X:20 Y:00 P:74 SP:FB CYC:14125
C964 24 01    BIT $01			A:FF X:20 Y:00 P:74 SP:FB CYC:14127
C966 A9 7F    LDA #$7F			A:FF X:20 Y:00 P:F4 SP:FB CYC:14130
C968 69 80    ADC #$80			A:7F X:20 Y:00 P:74 SP:FB CYC:14132
C96A 10 0B    BPL $C977			A:FF X:20 Y:00 P:B4 SP:FB CYC:14134
C96C B0 09    BCS $C977			A:FF X:20 Y:00 P:B4 SP:FB CYC:14137
C96E C9 FF    CMP #$FF			A:FF X:20 Y:00 P:B4 SP:FB CYC:14138
C970 D0 05    BNE $C977			A:FF X:20 Y:00 P:B4 SP:FB CYC:14140
C977 A2 21    LDX #$21			A:FF X:20 Y:00 P:B4 SP:FB CYC:14143
C979 86 00    STX $00			A:FF X:21 Y:00 P:34 SP:FB CYC:14145
C97B EA       NOP 			A:FF X:21 Y:00 P:34 SP:FB CYC:14148
C97C 38       SEC 			A:FF X:21 Y:00 P:34 SP:FB CYC:14150
C97D B8       CLV 			A:FF X:21 Y:00 P:35 SP:FB CYC:14152
C97E A9 7F    LDA #$7F			A:FF X:21 Y:00 P:35 SP:FB CYC:14154
C980 69 80    ADC #$80			A:7F X:21 Y:00 P:35 SP:FB CYC:14156
C982 D0 09    BNE $C98D			A:00 X:21 Y:00 P:37 SP:FB CYC:14158
C984 30 07    BMI $C98D			A:00 X:21 Y:00 P:37 SP:FB CYC:14161
C986 70 05    BVS $C98D			A:00 X:21 Y:00 P:37 SP:FB CYC:14162
C988 90 03    BCC $C98D			A:00 X:21 Y:00 P:37 SP:FB CYC:14165
C98A 4C 91 C9 JMP $C991			A:00 X:21 Y:00 P:37 SP:FB CYC:14166
C991 EA       NOP 			A:00 X:21 Y:00 P:37 SP:FB CYC:14169
C992 38       SEC 			A:00 X:21 Y:00 P:37 SP:FB CYC:14171
C993 B8       CLV 			A:00 X:21 Y:00 P:37 SP:FB CYC:14173
C994 A9 9F    LDA #$9F			A:00 X:21 Y:00 P:37 SP:FB CYC:14175
C996 F0 09    BEQ $C9A1			A:9F X:21 Y:00 P:B5 SP:FB CYC:14177
C998 10 07    BPL $C9A1			A:9F X:21 Y:00 P:B5 SP:FB CYC:14180
C99A 70 05    BVS $C9A1			A:9F X:21 Y:00 P:B5 SP:FB CYC:14181
C99C 90 03    BCC $C9A1			A:9F X:21 Y:00 P:B5 SP:FB CYC:14184
C99E 4C A5 C9 JMP $C9A5			A:9F X:21 Y:00 P:B5 SP:FB CYC:14185
C9A5 EA       NOP 			A:9F X:21 Y:00 P:B5 SP:FB CYC:14188
C9A6 18       CLC 			A:9F X:21 Y:00 P:B5 SP:FB CYC:14190
C9A7 24 01    BIT $01			A:9F X:21 Y:00 P:B4 SP:FB CYC:14192
C9A9 A9 00    LDA #$00			A:9F X:21 Y:00 P:F4 SP:FB CYC:14195
C9AB D0 09    BNE $C9B6			A:00 X:21 Y:00 P:76 SP:FB CYC:14197
C9AD 30 07    BMI $C9B6			A:00 X:21 Y:00 P:76 SP:FB CYC:14200
C9AF 50 05    BVC $C9B6			A:00 X:21 Y:00 P:76 SP:FB CYC:14201
C9B1 B0 03    BCS $C9B6			A:00 X:21 Y:00 P:76 SP:FB CYC:14204
C9B3 4C BA C9 JMP $C9BA			A:00 X:21 Y:00 P:76 SP:FB CYC:14205
C9BA EA       NOP 			A:00 X:21 Y:00 P:76 SP:FB CYC:14208
C9BB 24 01    BIT $01			A:00 X:21 Y:00 P:76 SP:FB CYC:14210
C9BD A9 40    LDA #$40			A:00 X:21 Y:00 P:F6 SP:FB CYC:14213
C9BF C9 40    CMP #$40			A:40 X:21 Y:00 P:74 SP:FB CYC:14215
C9C1 30 09    BMI $C9CC			A:40 X:21 Y:00 P:F4 SP:FB CYC:14217
C9CC A2 24    LDX #$24			A:40 X:21 Y:00 P:F4 SP:FB CYC:14220
C9CE 86 00    STX $00			A:40 X:24 Y:00 P:74 SP:FB CYC:14222
C9D0 EA       NOP 			A:40 X:24 Y:00 P:74 SP:FB CYC:14225
C9D1 B8       CLV 			A:40 X:24 Y:00 P:74 SP:FB CYC:14227
C9D2 C9 3F    CMP #$3F			A:40 X:24 Y:00 P:34 SP:FB CYC:14229
C9D4 F0 09    BEQ $C9DF			A:40 X:24 Y:00 P:37 SP:FB CYC:14231
C9DF A2 25    LDX #$25			A:40 X:24 Y:00 P:37 SP:FB CYC:14234
C9E1 86 00    STX $00			A:40 X:25 Y:00 P:35 SP:FB CYC:14236
C9E3 EA       NOP 			A:40 X:25 Y:00 P:35 SP:FB CYC:14239
C9E4 C9 41    CMP #$41			A:40 X:25 Y:00 P:35 SP:FB CYC:14241
C9E6 F0 07    BEQ $C9EF			A:40 X:25 Y:00 P:B4 SP:FB CYC:14243
C9E8 10 05    BPL $C9EF			A:40 X:25 Y:00 P:B4 SP:FB CYC:14246
C9EA 10 03    BPL $C9EF			A:40 X:25 Y:00 P:B4 SP:FB CYC:14247
C9EC 4C F3 C9 JMP $C9F3			A:40 X:25 Y:00 P:B4 SP:FB CYC:14249
C9F3 EA       NOP 			A:40 X:25 Y:00 P:B4 SP:FB CYC:14252
C9F4 A9 80    LDA #$80			A:40 X:25 Y:00 P:B4 SP:FB CYC:14254
C9F6 C9 00    CMP #$00			A:80 X:25 Y:00 P:B4 SP:FB CYC:14256
C9F8 F0 07    BEQ $CA01			A:80 X:25 Y:00 P:35 SP:FB CYC:14258
C9FA 10 05    BPL $CA01			A:80 X:25 Y:00 P:35 SP:FB CYC:14260
C903 A9 70    LDA #$70			A:80 X:25 Y:00 P:35 SP:FB CYC:14263
C905 49 70    EOR #$70			A:70 X:25 Y:00 P:35 SP:FB CYC:14265
C907 D0 09    BNE $C912			A:00 X:25 Y:00 P:37 SP:FB CYC:14267
C909 70 07    BVS $C912			A:00 X:25 Y:00 P:37 SP:FB CYC:14270
C90B 90 05    BCC $C912			A:00 X:25 Y:00 P:37 SP:FB CYC:14271
C90D 30 03    BMI $C912			A:00 X:25 Y:00 P:37 SP:FB CYC:14274
C90F 4C 16 C9 JMP $C916			A:00 X:25 Y:00 P:37 SP:FB CYC:14275
C916 EA       NOP 			A:00 X:25 Y:00 P:37 SP:FB CYC:14278
C917 18       CLC 			A:00 X:25 Y:00 P:37 SP:FB CYC:14280
C918 24 01    BIT $01			A:00 X:25 Y:00 P:36 SP:FB CYC:14282
C91A A9 00    LDA #$00			A:00 X:25 Y:00 P:F6 SP:FB CYC:14285
C91C 69 69    ADC #$69			A:00 X:25 Y:00 P:76 SP:FB CYC:14287
C91E 30 0B    BMI $C92B			A:69 X:25 Y:00 P:34 SP:FB CYC:14289
C920 B0 09    BCS $C92B			A:69 X:25 Y:00 P:34 SP:FB CYC:14292
C922 C9 69    CMP #$69			A:69 X:25 Y:00 P:34 SP:FB CYC:14293
C924 D0 05    BNE $C92B			A:69 X:25 Y:00 P:B4 SP:FB CYC:14295
C92B A2 1E    LDX #$1E			A:69 X:25 Y:00 P:B4 SP:FB CYC:14298
C92D 86 00    STX $00			A:69 X:1E Y:00 P:34 SP:FB CYC:14300
C92F EA       NOP 			A:69 X:1E Y:00 P:34 SP:FB CYC:14303
C930 38       SEC 			A:69 X:1E Y:00 P:34 SP:FB CYC:14305
C931 F8       SED 			A:69 X:1E Y:00 P:35 SP:FB CYC:14307
C932 24 01    BIT $01			A:69 X:1E Y:00 P:3D SP:FB CYC:14309
C934 A9 01    LDA #$01			A:69 X:1E Y:00 P:FD SP:FB CYC:14312
C936 69 69    ADC #$69			A:01 X:1E Y:00 P:7D SP:FB CYC:14314
C938 30 0B    BMI $C945			A:6B X:1E Y:00 P:3C SP:FB CYC:14316
C93A B0 09    BCS $C945			A:6B X:1E Y:00 P:3C SP:FB CYC:14319
C93C C9 6B    CMP #$6B			A:6B X:1E Y:00 P:3C SP:FB CYC:14320
C93E D0 05    BNE $C945			A:6B X:1E Y:00 P:BC SP:FB CYC:14322
C945 A2 1F    LDX #$1F			A:6B X:1E Y:00 P:BC SP:FB CYC:14325
C947 86 00    STX $00			A:6B X:1F Y:00 P:3C SP:FB CYC:14327
C949 EA       NOP 			A:6B X:1F Y:00 P:3C SP:FB CYC:14330
C94A D8       CLD 			A:6B X:1F Y:00 P:3C SP:FB CYC:14332
C94B 38       SEC 			A:6B X:1F Y:00 P:34 SP:FB CYC:14334
C94C B8       CLV 			A:6B X:1F Y:00 P:35 SP:FB CYC:14336
C94D A9 7F    LDA #$7F			A:6B X:1F Y:00 P:35 SP:FB CYC:14338
C94F 69 7F    ADC #$7F			A:7F X:1F Y:00 P:35 SP:FB CYC:14340
C951 10 0B    BPL $C95E			A:FF X:1F Y:00 P:F4 SP:FB CYC:14342
C953 B0 09    BCS $C95E			A:FF X:1F Y:00 P:F4 SP:FB CYC:14345
C955 C9 FF    CMP #$FF			A:FF X:1F Y:00 P:F4 SP:FB CYC:14346
C957 D0 05    BNE $C95E			A:FF X:1F Y:00 P:F4 SP:FB CYC:14348
C95E A2 20    LDX #$20			A:FF X:1F Y:00 P:F4 SP:FB CYC:14351
C960 86 00    STX $00			A:FF X:20 Y:00 P:74 SP:FB CYC:14353
C962 EA       NOP 			A:FF X:20 Y:00 P:74 SP:FB CYC:14356
C963 18       CLC 			A:FF X:20 Y:00 P:74 SP:FB CYC:14358
C964 24 01    BIT $01			A:FF X:20 Y:00 P:74 SP:FB CYC:14360
C966 A9 7F    LDA #$7F			A:FF X:20 Y:00 P:F4 SP:FB CYC:14363
C968 69 80    ADC #$80			A:7F X:20 Y:00 P:74 SP:FB CYC:14365
C96A 10 0B    BPL $C977			A:FF X:20 Y:00 P:B4 SP:FB CYC:14367
C96C B0 09    BCS $C977			A:FF X:20 Y:00 P:B4 SP:FB CYC:14370
C96E C9 FF    CMP #$FF			A:FF X:20 Y:00 P:B4 SP:FB CYC:14371
C970 D0 05    BNE $C977			A:FF X:20 Y:00 P:B4 SP:FB CYC:14373
C977 A2 21    LDX #$21			A:FF X:20 Y:00 P:B4 SP:FB CYC:14376
C979 86 00    STX $00			A:FF X:21 Y:00 P:34 SP:FB CYC:14378
C97B EA       NOP 			A:FF X:21 Y:00 P:34 SP:FB CYC:14381
C97C 38       SEC 			A:FF X:21 Y:00 P:34 SP:FB CYC:14383
C97D B8       CLV 			A:FF X:21 Y:00 P:35 SP:FB CYC:14385
C97E A9 7F    LDA #$7F			A:FF X:21 Y:00 P:35 SP:FB CYC:14387
C980 69 80    ADC #$80			A:7F X:21 Y:00 P:35 SP:FB CYC:14389
C982 D0 09    BNE $C98D			A:00 X:21 Y:00 P:37 SP:FB CYC:14391
C984 30 07    BMI $C98D			A:00 X:21 Y:00 P:37 SP:FB CYC:14394
C986 70 05    BVS $C98D			A:00 X:21 Y:00 P:37 SP:FB CYC:14395
C988 90 03    BCC $C98D			A:00 X:21 Y:00 P:37 SP:FB CYC:14398
C98A 4C 91 C9 JMP $C991			A:00 X:21 Y:00 P:37 SP:FB CYC:14399
C991 EA       NOP 			A:00 X:21 Y:00 P:37 SP:FB CYC:14402
C992 38       SEC 			A:00 X:21 Y:00 P:37 SP:FB CYC:14404
C993 B8       CLV 			A:00 X:21 Y:00 P:37 SP:FB CYC:14406
C994 A9 9F    LDA #$9F			A:00 X:21 Y:00 P:37 SP:FB CYC:14408
C996 F0 09    BEQ $C9A1			A:9F X:21 Y:00 P:B5 SP:FB CYC:14410
C998 10 07    BPL $C9A1			A:9F X:21 Y:00 P:B5 SP:FB CYC:14413
C99A 70 05    BVS $C9A1			A:9F X:21 Y:00 P:B5 SP:FB CYC:14414
C99C 90 03    BCC $C9A1			A:9F X:21 Y:00 P:B5 SP:FB CYC:14417
C99E 4C A5 C9 JMP $C9A5			A:9F X:21 Y:00 P:B5 SP:FB CYC:14418
C9A5 EA       NOP 			A:9F X:21 Y:00 P:B5 SP:FB CYC:14421
C9A6 18       CLC 			A:9F X:21 Y:00 P:B5 SP:FB CYC:14423
C9A7 24 01    BIT $01			A:9F X:21 Y:00 P:B4 SP:FB CYC:14425
C9A9 A9 00    LDA #$00			A:9F X:21 Y:00 P:F4 SP:FB CYC:14428
C9AB D0 09    BNE $C9B6			A:00 X:21 Y:00 P:76 SP:FB CYC:14430
C9AD 30 07    BMI $C9B6			A:00 X:21 Y:00 P:76 SP:FB CYC:14433
C9AF 50 05    BVC $C9B6			A:00 X:21 Y:00 P:76 SP:FB CYC:14434
C9B1 B0 03    BCS $C9B6			A:00 X:21 Y:00 P:76 SP:FB CYC:14437
C9B3 4C BA C9 JMP $C9BA			A:00 X:21 Y:00 P:76 SP:FB CYC:14438
C9BA EA       NOP 			A:00 X:21 Y:00 P:76 SP:FB CYC:14441
C9BB 24 01    BIT $01			A:00 X:21 Y:00 P:76 SP:FB CYC:14443
C9BD A9 40    LDA #$40			A:00 X:21 Y:00 P:F6 SP:FB CYC:14446
C9BF C9 40    CMP #$40			A:40 X:21 Y:00 P:74 SP:FB CYC:14448
C9C1 30 09    BMI $C9CC			A:40 X:21 Y:00 P:F4 SP:FB CYC:14450
C9CC A2 24    LDX #$24			A:40 X:21 Y:00 P:F4 SP:FB CYC:14453
C9CE 86 00    STX $00			A:40 X:24 Y:00 P:74 SP:FB CYC:14455
C9D0 EA       NOP 			A:40 X:24 Y:00 P:74 SP:FB CYC:14458
C9D1 B8       CLV 			A:40 X:24 Y:00 P:74 SP:FB CYC:14460
C9D2 C9 3F    CMP #$3F			A:40 X:24 Y:00 P:34 SP:FB CYC:14462
C9D4 F0 09    BEQ $C9DF			A:40 X:24 Y:00 P:37 SP:FB CYC:14464
C9DF A2 25    LDX #$25			A:40 X:24 Y:00 P:37 SP:FB CYC:14467
C9E1 86 00    STX $00			A:40 X:25 Y:00 P:35 SP:FB CYC:14469
C9E3 EA       NOP 			A:40 X:25 Y:00 P:35 SP:FB CYC:14472
C9E4 C9 41    CMP #$41			A:40 X:25 Y:00 P:35 SP:FB CYC:14474
C9E6 F0 07    BEQ $C9EF			A:40 X:25 Y:00 P:B4 SP:FB CYC:14476
C9E8 10 05    BPL $C9EF			A:40 X:25 Y:00 P:B4 SP:FB CYC:14479
C9EA 10 03    BPL $C9EF			A:40 X:25 Y:00 P:B4 SP:FB CYC:14480
C9EC 4C F3 C9 JMP $C9F3			A:40 X:25 Y:00 P:B4 SP:FB CYC:14482
C9F3 EA       NOP 			A:40 X:25 Y:00 P:B4 SP:FB CYC:14485
C9F4 A9 80    LDA #$80			A:40 X:25 Y:00 P:B4 SP:FB CYC:14487
C9F6 C9 00    CMP #$00			A:80 X:25 Y:00 P:B4 SP:FB CYC:14489
C9F8 F0 07    BEQ $CA01			A:80 X:25 Y:00 P:35 SP:FB CYC:14491
C9FA 10 05    BPL $CA01			A:80 X:25 Y:00 P:35 SP:FB CYC:14493
C903 A9 70    LDA #$70			A:80 X:25 Y:00 P:35 SP:FB CYC:14496
C905 49 70    EOR #$70			A:70 X:25 Y:00 P:35 SP:FB CYC:14498
C907 D0 09    BNE $C912			A:00 X:25 Y:00 P:37 SP:FB CYC:14500
C909 70 07    BVS $C912			A:00 X:25 Y:00 P:37 SP:FB CYC:14503
C90B 90 05    BCC $C912			A:00 X:25 Y:00 P:37 SP:FB CYC:14504
C90D 30 03    BMI $C912			A:00 X:25 Y:00 P:37 SP:FB CYC:14507
C90F 4C 16 C9 JMP $C916			A:00 X:25 Y:00 P:37 SP:FB CYC:14508
C916 EA       NOP 			A:00 X:25 Y:00 P:37 SP:FB CYC:14511
C917 18       CLC 			A:00 X:25 Y:00 P:37 SP:FB CYC:14513
C918 24 01    BIT $01			A:00 X:25 Y:00 P:36 SP:FB CYC:14515
C91A A9 00    LDA #$00			A:00 X:25 Y:00 P:F6 SP:FB CYC:14518
C91C 69 69    ADC #$69			A:00 X:25 Y:00 P:76 SP:FB CYC:14520
C91E 30 0B    BMI $C92B			A:69 X:25 Y:00 P:34 SP:FB CYC:14522
C920 B0 09    BCS $C92B			A:69 X:25 Y:00 P:34 SP:FB CYC:14525
C922 C9 69    CMP #$69			A:69 X:25 Y:00 P:34 SP:FB CYC:14526
C924 D0 05    BNE $C92B			A:69 X:25 Y:00 P:B4 SP:FB CYC:14528
C92B A2 1E    LDX #$1E			A:69 X:25 Y:00 P:B4 SP:FB CYC:14531
C92D 86 00    STX $00			A:69 X:1E Y:00 P:34 SP:FB CYC:14533
C92F EA       NOP 			A:69 X:1E Y:00 P:34 SP:FB CYC:14536
C930 38       SEC 			A:69 X:1E Y:00 P:34 SP:FB CYC:14538
C931 F8       SED 			A:69 X:1E Y:00 P:35 SP:FB CYC:14540
C932 24 01    BIT $01			A:69 X:1E Y:00 P:3D SP:FB CYC:14542
C934 A9 01    LDA #$01			A:69 X:1E Y:00 P:FD SP:FB CYC:14545
C936 69 69    ADC #$69			A:01 X:1E Y:00 P:7D SP:FB CYC:14547
C938 30 0B    BMI $C945			A:6B X:1E Y:00 P:3C SP:FB CYC:14549
C93A B0 09    BCS $C945			A:6B X:1E Y:00 P:3C SP:FB CYC:14552
C93C C9 6B    CMP #$6B			A:6B X:1E Y:00 P:3C SP:FB CYC:14553
C93E D0 05    BNE $C945			A:6B X:1E Y:00 P:BC SP:FB CYC:14555
C945 A2 1F    LDX #$1F			A:6B X:1E Y:00 P:BC SP:FB CYC:14558
C947 86 00    STX $00			A:6B X:1F Y:00 P:3C SP:FB CYC:14560
C949 EA       NOP 			A:6B X:1F Y:00 P:3C SP:FB CYC:14563
C94A D8       CLD 			A:6B X:1F Y:00 P:3C SP:FB CYC:14565
C94B 38       SEC 			A:6B X:1F Y:00 P:34 SP:FB CYC:14567
C94C B8       CLV 			A:6B X:1F Y:00 P:35 SP:FB CYC:14569
C94D A9 7F    LDA #$7F			A:6B X:1F Y:00 P:35 SP:FB CYC:14571
C94F 69 7F    ADC #$7F			A:7F X:1F Y:00 P:35 SP:FB CYC:14573
